ARM GAS  C:\Users\Konrad\AppData\Local\Temp\ccgoq2cw.s 			page 1


   1              		.cpu cortex-m4
   2              		.arch armv7e-m
   3              		.fpu fpv4-sp-d16
   4              		.eabi_attribute 27, 1
   5              		.eabi_attribute 28, 1
   6              		.eabi_attribute 23, 1
   7              		.eabi_attribute 24, 1
   8              		.eabi_attribute 25, 1
   9              		.eabi_attribute 26, 1
  10              		.eabi_attribute 30, 2
  11              		.eabi_attribute 34, 1
  12              		.eabi_attribute 18, 4
  13              		.file	"main.c"
  14              		.text
  15              	.Ltext0:
  16              		.cfi_sections	.debug_frame
  17              		.file 1 "Core/Src/main.c"
  18              		.section	.text.SystemClock_Config,"ax",%progbits
  19              		.align	1
  20              		.p2align 2,,3
  21              		.global	SystemClock_Config
  22              		.syntax unified
  23              		.thumb
  24              		.thumb_func
  26              	SystemClock_Config:
  27              	.LFB217:
   1:Core/Src/main.c **** /* USER CODE BEGIN Header */
   2:Core/Src/main.c **** /**
   3:Core/Src/main.c ****   ******************************************************************************
   4:Core/Src/main.c ****   * @file           : main.c
   5:Core/Src/main.c ****   * @brief          : Main program body
   6:Core/Src/main.c ****   ******************************************************************************
   7:Core/Src/main.c ****   * @attention
   8:Core/Src/main.c ****   *
   9:Core/Src/main.c ****   * Copyright (c) 2023 STMicroelectronics.
  10:Core/Src/main.c ****   * All rights reserved.
  11:Core/Src/main.c ****   *
  12:Core/Src/main.c ****   * This software is licensed under terms that can be found in the LICENSE file
  13:Core/Src/main.c ****   * in the root directory of this software component.
  14:Core/Src/main.c ****   * If no LICENSE file comes with this software, it is provided AS-IS.
  15:Core/Src/main.c ****   *
  16:Core/Src/main.c ****   ******************************************************************************
  17:Core/Src/main.c ****   */
  18:Core/Src/main.c **** /* USER CODE END Header */
  19:Core/Src/main.c **** /* Includes ------------------------------------------------------------------*/
  20:Core/Src/main.c **** #include "main.h"
  21:Core/Src/main.c **** #include "adc.h"
  22:Core/Src/main.c **** #include "dma.h"
  23:Core/Src/main.c **** #include "rtc.h"
  24:Core/Src/main.c **** #include "spi.h"
  25:Core/Src/main.c **** #include "tim.h"
  26:Core/Src/main.c **** #include "usart.h"
  27:Core/Src/main.c **** #include "gpio.h"
  28:Core/Src/main.c **** 
  29:Core/Src/main.c **** /* Private includes ----------------------------------------------------------*/
  30:Core/Src/main.c **** /* USER CODE BEGIN Includes */
  31:Core/Src/main.c **** #include "clean_main.h"
ARM GAS  C:\Users\Konrad\AppData\Local\Temp\ccgoq2cw.s 			page 2


  32:Core/Src/main.c **** /* USER CODE END Includes */
  33:Core/Src/main.c **** 
  34:Core/Src/main.c **** /* Private typedef -----------------------------------------------------------*/
  35:Core/Src/main.c **** /* USER CODE BEGIN PTD */
  36:Core/Src/main.c **** 
  37:Core/Src/main.c **** /* USER CODE END PTD */
  38:Core/Src/main.c **** 
  39:Core/Src/main.c **** /* Private define ------------------------------------------------------------*/
  40:Core/Src/main.c **** /* USER CODE BEGIN PD */
  41:Core/Src/main.c **** 
  42:Core/Src/main.c **** /* USER CODE END PD */
  43:Core/Src/main.c **** 
  44:Core/Src/main.c **** /* Private macro -------------------------------------------------------------*/
  45:Core/Src/main.c **** /* USER CODE BEGIN PM */
  46:Core/Src/main.c **** 
  47:Core/Src/main.c **** /* USER CODE END PM */
  48:Core/Src/main.c **** 
  49:Core/Src/main.c **** /* Private variables ---------------------------------------------------------*/
  50:Core/Src/main.c **** 
  51:Core/Src/main.c **** /* USER CODE BEGIN PV */
  52:Core/Src/main.c **** 
  53:Core/Src/main.c **** /* USER CODE END PV */
  54:Core/Src/main.c **** 
  55:Core/Src/main.c **** /* Private function prototypes -----------------------------------------------*/
  56:Core/Src/main.c **** void SystemClock_Config(void);
  57:Core/Src/main.c **** /* USER CODE BEGIN PFP */
  58:Core/Src/main.c **** 
  59:Core/Src/main.c **** /* USER CODE END PFP */
  60:Core/Src/main.c **** 
  61:Core/Src/main.c **** /* Private user code ---------------------------------------------------------*/
  62:Core/Src/main.c **** /* USER CODE BEGIN 0 */
  63:Core/Src/main.c **** 
  64:Core/Src/main.c **** /* USER CODE END 0 */
  65:Core/Src/main.c **** 
  66:Core/Src/main.c **** /**
  67:Core/Src/main.c ****   * @brief  The application entry point.
  68:Core/Src/main.c ****   * @retval int
  69:Core/Src/main.c ****   */
  70:Core/Src/main.c **** int main(void)
  71:Core/Src/main.c **** {
  72:Core/Src/main.c ****   /* USER CODE BEGIN 1 */
  73:Core/Src/main.c **** 
  74:Core/Src/main.c ****   /* USER CODE END 1 */
  75:Core/Src/main.c **** 
  76:Core/Src/main.c ****   /* MCU Configuration--------------------------------------------------------*/
  77:Core/Src/main.c **** 
  78:Core/Src/main.c ****   /* Reset of all peripherals, Initializes the Flash interface and the Systick. */
  79:Core/Src/main.c ****   HAL_Init();
  80:Core/Src/main.c **** 
  81:Core/Src/main.c ****   /* USER CODE BEGIN Init */
  82:Core/Src/main.c **** 
  83:Core/Src/main.c ****   /* USER CODE END Init */
  84:Core/Src/main.c **** 
  85:Core/Src/main.c ****   /* Configure the system clock */
  86:Core/Src/main.c ****   SystemClock_Config();
  87:Core/Src/main.c **** 
  88:Core/Src/main.c ****   /* USER CODE BEGIN SysInit */
ARM GAS  C:\Users\Konrad\AppData\Local\Temp\ccgoq2cw.s 			page 3


  89:Core/Src/main.c **** 
  90:Core/Src/main.c ****   /* USER CODE END SysInit */
  91:Core/Src/main.c **** 
  92:Core/Src/main.c ****   /* Initialize all configured peripherals */
  93:Core/Src/main.c ****   MX_GPIO_Init();
  94:Core/Src/main.c ****   MX_DMA_Init();
  95:Core/Src/main.c ****   MX_ADC1_Init();
  96:Core/Src/main.c ****   MX_SPI1_Init();
  97:Core/Src/main.c ****   MX_TIM2_Init();
  98:Core/Src/main.c ****   MX_USART1_UART_Init();
  99:Core/Src/main.c ****   MX_TIM1_Init();
 100:Core/Src/main.c ****   MX_TIM3_Init();
 101:Core/Src/main.c ****   MX_TIM4_Init();
 102:Core/Src/main.c ****   MX_RTC_Init();
 103:Core/Src/main.c ****   /* USER CODE BEGIN 2 */
 104:Core/Src/main.c ****   clean_main();
 105:Core/Src/main.c ****   /* USER CODE END 2 */
 106:Core/Src/main.c **** 
 107:Core/Src/main.c ****   /* Infinite loop */
 108:Core/Src/main.c ****   /* USER CODE BEGIN WHILE */
 109:Core/Src/main.c ****   while (1)
 110:Core/Src/main.c ****   {
 111:Core/Src/main.c ****     clean_loop();
 112:Core/Src/main.c ****     /* USER CODE END WHILE */
 113:Core/Src/main.c **** 
 114:Core/Src/main.c ****     /* USER CODE BEGIN 3 */
 115:Core/Src/main.c ****   }
 116:Core/Src/main.c ****   /* USER CODE END 3 */
 117:Core/Src/main.c **** }
 118:Core/Src/main.c **** 
 119:Core/Src/main.c **** /**
 120:Core/Src/main.c ****   * @brief System Clock Configuration
 121:Core/Src/main.c ****   * @retval None
 122:Core/Src/main.c ****   */
 123:Core/Src/main.c **** void SystemClock_Config(void)
 124:Core/Src/main.c **** {
  28              		.loc 1 124 1 view -0
  29              		.cfi_startproc
  30              		@ args = 0, pretend = 0, frame = 80
  31              		@ frame_needed = 0, uses_anonymous_args = 0
 125:Core/Src/main.c ****   RCC_OscInitTypeDef RCC_OscInitStruct = {0};
  32              		.loc 1 125 3 view .LVU1
 124:Core/Src/main.c ****   RCC_OscInitTypeDef RCC_OscInitStruct = {0};
  33              		.loc 1 124 1 is_stmt 0 view .LVU2
  34 0000 10B5     		push	{r4, lr}
  35              		.cfi_def_cfa_offset 8
  36              		.cfi_offset 4, -8
  37              		.cfi_offset 14, -4
  38              		.loc 1 125 22 view .LVU3
  39 0002 0023     		movs	r3, #0
 124:Core/Src/main.c ****   RCC_OscInitTypeDef RCC_OscInitStruct = {0};
  40              		.loc 1 124 1 view .LVU4
  41 0004 94B0     		sub	sp, sp, #80
  42              		.cfi_def_cfa_offset 88
  43              		.loc 1 125 22 view .LVU5
  44 0006 CDE90A33 		strd	r3, r3, [sp, #40]
 126:Core/Src/main.c ****   RCC_ClkInitTypeDef RCC_ClkInitStruct = {0};
ARM GAS  C:\Users\Konrad\AppData\Local\Temp\ccgoq2cw.s 			page 4


  45              		.loc 1 126 22 view .LVU6
  46 000a CDE90333 		strd	r3, r3, [sp, #12]
  47 000e CDE90533 		strd	r3, r3, [sp, #20]
  48              	.LBB14:
 127:Core/Src/main.c **** 
 128:Core/Src/main.c ****   /** Configure the main internal regulator output voltage
 129:Core/Src/main.c ****   */
 130:Core/Src/main.c ****   __HAL_RCC_PWR_CLK_ENABLE();
  49              		.loc 1 130 3 view .LVU7
  50 0012 2149     		ldr	r1, .L8
  51 0014 0193     		str	r3, [sp, #4]
  52              	.LBE14:
 125:Core/Src/main.c ****   RCC_ClkInitTypeDef RCC_ClkInitStruct = {0};
  53              		.loc 1 125 22 view .LVU8
  54 0016 0C93     		str	r3, [sp, #48]
 126:Core/Src/main.c ****   RCC_ClkInitTypeDef RCC_ClkInitStruct = {0};
  55              		.loc 1 126 3 is_stmt 1 view .LVU9
 126:Core/Src/main.c ****   RCC_ClkInitTypeDef RCC_ClkInitStruct = {0};
  56              		.loc 1 126 22 is_stmt 0 view .LVU10
  57 0018 0793     		str	r3, [sp, #28]
  58              		.loc 1 130 3 is_stmt 1 view .LVU11
  59              	.LBB15:
  60              		.loc 1 130 3 view .LVU12
  61              		.loc 1 130 3 view .LVU13
  62 001a 086C     		ldr	r0, [r1, #64]
  63              	.LBE15:
  64              	.LBB16:
 131:Core/Src/main.c ****   __HAL_PWR_VOLTAGESCALING_CONFIG(PWR_REGULATOR_VOLTAGE_SCALE1);
  65              		.loc 1 131 3 is_stmt 0 view .LVU14
  66 001c 1F4A     		ldr	r2, .L8+4
  67              	.LBE16:
  68              	.LBB17:
 130:Core/Src/main.c ****   __HAL_PWR_VOLTAGESCALING_CONFIG(PWR_REGULATOR_VOLTAGE_SCALE1);
  69              		.loc 1 130 3 view .LVU15
  70 001e 40F08050 		orr	r0, r0, #268435456
  71 0022 0864     		str	r0, [r1, #64]
 130:Core/Src/main.c ****   __HAL_PWR_VOLTAGESCALING_CONFIG(PWR_REGULATOR_VOLTAGE_SCALE1);
  72              		.loc 1 130 3 is_stmt 1 view .LVU16
  73 0024 096C     		ldr	r1, [r1, #64]
  74 0026 01F08051 		and	r1, r1, #268435456
  75 002a 0191     		str	r1, [sp, #4]
 130:Core/Src/main.c ****   __HAL_PWR_VOLTAGESCALING_CONFIG(PWR_REGULATOR_VOLTAGE_SCALE1);
  76              		.loc 1 130 3 view .LVU17
  77 002c 0199     		ldr	r1, [sp, #4]
  78              	.LBE17:
 130:Core/Src/main.c ****   __HAL_PWR_VOLTAGESCALING_CONFIG(PWR_REGULATOR_VOLTAGE_SCALE1);
  79              		.loc 1 130 3 view .LVU18
  80              		.loc 1 131 3 view .LVU19
  81              	.LBB18:
  82              		.loc 1 131 3 view .LVU20
  83 002e 0293     		str	r3, [sp, #8]
  84              		.loc 1 131 3 view .LVU21
  85 0030 1368     		ldr	r3, [r2]
  86 0032 43F44043 		orr	r3, r3, #49152
  87 0036 1360     		str	r3, [r2]
  88              		.loc 1 131 3 view .LVU22
  89 0038 1368     		ldr	r3, [r2]
ARM GAS  C:\Users\Konrad\AppData\Local\Temp\ccgoq2cw.s 			page 5


  90 003a 03F44043 		and	r3, r3, #49152
  91              	.LBE18:
 132:Core/Src/main.c **** 
 133:Core/Src/main.c ****   /** Initializes the RCC Oscillators according to the specified parameters
 134:Core/Src/main.c ****   * in the RCC_OscInitTypeDef structure.
 135:Core/Src/main.c ****   */
 136:Core/Src/main.c ****   RCC_OscInitStruct.OscillatorType = RCC_OSCILLATORTYPE_LSI|RCC_OSCILLATORTYPE_HSE;
 137:Core/Src/main.c ****   RCC_OscInitStruct.HSEState = RCC_HSE_ON;
 138:Core/Src/main.c ****   RCC_OscInitStruct.LSIState = RCC_LSI_ON;
 139:Core/Src/main.c ****   RCC_OscInitStruct.PLL.PLLState = RCC_PLL_ON;
  92              		.loc 1 139 34 is_stmt 0 view .LVU23
  93 003e 0224     		movs	r4, #2
 136:Core/Src/main.c ****   RCC_OscInitStruct.HSEState = RCC_HSE_ON;
  94              		.loc 1 136 36 view .LVU24
  95 0040 0920     		movs	r0, #9
  96 0042 4FF48031 		mov	r1, #65536
  97              	.LBB19:
 131:Core/Src/main.c **** 
  98              		.loc 1 131 3 view .LVU25
  99 0046 0293     		str	r3, [sp, #8]
 131:Core/Src/main.c **** 
 100              		.loc 1 131 3 is_stmt 1 view .LVU26
 101              	.LBE19:
 138:Core/Src/main.c ****   RCC_OscInitStruct.PLL.PLLState = RCC_PLL_ON;
 102              		.loc 1 138 30 is_stmt 0 view .LVU27
 103 0048 0122     		movs	r2, #1
 140:Core/Src/main.c ****   RCC_OscInitStruct.PLL.PLLSource = RCC_PLLSOURCE_HSE;
 104              		.loc 1 140 35 view .LVU28
 105 004a 4FF48003 		mov	r3, #4194304
 136:Core/Src/main.c ****   RCC_OscInitStruct.HSEState = RCC_HSE_ON;
 106              		.loc 1 136 36 view .LVU29
 107 004e CDE90801 		strd	r0, [sp, #32]
 139:Core/Src/main.c ****   RCC_OscInitStruct.PLL.PLLSource = RCC_PLLSOURCE_HSE;
 108              		.loc 1 139 34 view .LVU30
 109 0052 CDE90D24 		strd	r2, r4, [sp, #52]
 110              	.LBB20:
 131:Core/Src/main.c **** 
 111              		.loc 1 131 3 view .LVU31
 112 0056 0298     		ldr	r0, [sp, #8]
 113              	.LBE20:
 131:Core/Src/main.c **** 
 114              		.loc 1 131 3 is_stmt 1 view .LVU32
 136:Core/Src/main.c ****   RCC_OscInitStruct.HSEState = RCC_HSE_ON;
 115              		.loc 1 136 3 view .LVU33
 137:Core/Src/main.c ****   RCC_OscInitStruct.LSIState = RCC_LSI_ON;
 116              		.loc 1 137 3 view .LVU34
 138:Core/Src/main.c ****   RCC_OscInitStruct.PLL.PLLState = RCC_PLL_ON;
 117              		.loc 1 138 3 view .LVU35
 118              		.loc 1 140 3 view .LVU36
 119              		.loc 1 140 35 is_stmt 0 view .LVU37
 120 0058 0F93     		str	r3, [sp, #60]
 141:Core/Src/main.c ****   RCC_OscInitStruct.PLL.PLLM = 12;
 121              		.loc 1 141 3 is_stmt 1 view .LVU38
 122              		.loc 1 141 30 is_stmt 0 view .LVU39
 123 005a 0C21     		movs	r1, #12
 142:Core/Src/main.c ****   RCC_OscInitStruct.PLL.PLLN = 96;
 124              		.loc 1 142 30 view .LVU40
ARM GAS  C:\Users\Konrad\AppData\Local\Temp\ccgoq2cw.s 			page 6


 125 005c 6022     		movs	r2, #96
 143:Core/Src/main.c ****   RCC_OscInitStruct.PLL.PLLP = RCC_PLLP_DIV2;
 144:Core/Src/main.c ****   RCC_OscInitStruct.PLL.PLLQ = 4;
 126              		.loc 1 144 30 view .LVU41
 127 005e 0423     		movs	r3, #4
 145:Core/Src/main.c ****   if (HAL_RCC_OscConfig(&RCC_OscInitStruct) != HAL_OK)
 128              		.loc 1 145 7 view .LVU42
 129 0060 08A8     		add	r0, sp, #32
 142:Core/Src/main.c ****   RCC_OscInitStruct.PLL.PLLN = 96;
 130              		.loc 1 142 30 view .LVU43
 131 0062 CDE91012 		strd	r1, r2, [sp, #64]
 144:Core/Src/main.c ****   if (HAL_RCC_OscConfig(&RCC_OscInitStruct) != HAL_OK)
 132              		.loc 1 144 30 view .LVU44
 133 0066 CDE91243 		strd	r4, r3, [sp, #72]
 134              		.loc 1 145 3 is_stmt 1 view .LVU45
 135              		.loc 1 145 7 is_stmt 0 view .LVU46
 136 006a FFF7FEFF 		bl	HAL_RCC_OscConfig
 137              	.LVL0:
 138              		.loc 1 145 6 discriminator 1 view .LVU47
 139 006e 08B1     		cbz	r0, .L2
 146:Core/Src/main.c ****   {
 147:Core/Src/main.c ****     Error_Handler();
 140              		.loc 1 147 5 is_stmt 1 view .LVU48
 141              	.LBB21:
 142              	.LBI21:
 148:Core/Src/main.c ****   }
 149:Core/Src/main.c **** 
 150:Core/Src/main.c ****   /** Initializes the CPU, AHB and APB buses clocks
 151:Core/Src/main.c ****   */
 152:Core/Src/main.c ****   RCC_ClkInitStruct.ClockType = RCC_CLOCKTYPE_HCLK|RCC_CLOCKTYPE_SYSCLK
 153:Core/Src/main.c ****                               |RCC_CLOCKTYPE_PCLK1|RCC_CLOCKTYPE_PCLK2;
 154:Core/Src/main.c ****   RCC_ClkInitStruct.SYSCLKSource = RCC_SYSCLKSOURCE_PLLCLK;
 155:Core/Src/main.c ****   RCC_ClkInitStruct.AHBCLKDivider = RCC_SYSCLK_DIV1;
 156:Core/Src/main.c ****   RCC_ClkInitStruct.APB1CLKDivider = RCC_HCLK_DIV2;
 157:Core/Src/main.c ****   RCC_ClkInitStruct.APB2CLKDivider = RCC_HCLK_DIV1;
 158:Core/Src/main.c **** 
 159:Core/Src/main.c ****   if (HAL_RCC_ClockConfig(&RCC_ClkInitStruct, FLASH_LATENCY_3) != HAL_OK)
 160:Core/Src/main.c ****   {
 161:Core/Src/main.c ****     Error_Handler();
 162:Core/Src/main.c ****   }
 163:Core/Src/main.c **** }
 164:Core/Src/main.c **** 
 165:Core/Src/main.c **** /* USER CODE BEGIN 4 */
 166:Core/Src/main.c **** 
 167:Core/Src/main.c **** /* USER CODE END 4 */
 168:Core/Src/main.c **** 
 169:Core/Src/main.c **** /**
 170:Core/Src/main.c ****   * @brief  This function is executed in case of error occurrence.
 171:Core/Src/main.c ****   * @retval None
 172:Core/Src/main.c ****   */
 173:Core/Src/main.c **** void Error_Handler(void)
 143              		.loc 1 173 6 view .LVU49
 174:Core/Src/main.c **** {
 175:Core/Src/main.c ****   /* USER CODE BEGIN Error_Handler_Debug */
 176:Core/Src/main.c ****   /* User can add his own implementation to report the HAL error return state */
 177:Core/Src/main.c ****   __disable_irq();
 144              		.loc 1 177 3 view .LVU50
ARM GAS  C:\Users\Konrad\AppData\Local\Temp\ccgoq2cw.s 			page 7


 145              	.LBB22:
 146              	.LBI22:
 147              		.file 2 "Drivers/CMSIS/Include/cmsis_gcc.h"
   1:Drivers/CMSIS/Include/cmsis_gcc.h **** /**************************************************************************//**
   2:Drivers/CMSIS/Include/cmsis_gcc.h ****  * @file     cmsis_gcc.h
   3:Drivers/CMSIS/Include/cmsis_gcc.h ****  * @brief    CMSIS compiler GCC header file
   4:Drivers/CMSIS/Include/cmsis_gcc.h ****  * @version  V5.0.4
   5:Drivers/CMSIS/Include/cmsis_gcc.h ****  * @date     09. April 2018
   6:Drivers/CMSIS/Include/cmsis_gcc.h ****  ******************************************************************************/
   7:Drivers/CMSIS/Include/cmsis_gcc.h **** /*
   8:Drivers/CMSIS/Include/cmsis_gcc.h ****  * Copyright (c) 2009-2018 Arm Limited. All rights reserved.
   9:Drivers/CMSIS/Include/cmsis_gcc.h ****  *
  10:Drivers/CMSIS/Include/cmsis_gcc.h ****  * SPDX-License-Identifier: Apache-2.0
  11:Drivers/CMSIS/Include/cmsis_gcc.h ****  *
  12:Drivers/CMSIS/Include/cmsis_gcc.h ****  * Licensed under the Apache License, Version 2.0 (the License); you may
  13:Drivers/CMSIS/Include/cmsis_gcc.h ****  * not use this file except in compliance with the License.
  14:Drivers/CMSIS/Include/cmsis_gcc.h ****  * You may obtain a copy of the License at
  15:Drivers/CMSIS/Include/cmsis_gcc.h ****  *
  16:Drivers/CMSIS/Include/cmsis_gcc.h ****  * www.apache.org/licenses/LICENSE-2.0
  17:Drivers/CMSIS/Include/cmsis_gcc.h ****  *
  18:Drivers/CMSIS/Include/cmsis_gcc.h ****  * Unless required by applicable law or agreed to in writing, software
  19:Drivers/CMSIS/Include/cmsis_gcc.h ****  * distributed under the License is distributed on an AS IS BASIS, WITHOUT
  20:Drivers/CMSIS/Include/cmsis_gcc.h ****  * WARRANTIES OR CONDITIONS OF ANY KIND, either express or implied.
  21:Drivers/CMSIS/Include/cmsis_gcc.h ****  * See the License for the specific language governing permissions and
  22:Drivers/CMSIS/Include/cmsis_gcc.h ****  * limitations under the License.
  23:Drivers/CMSIS/Include/cmsis_gcc.h ****  */
  24:Drivers/CMSIS/Include/cmsis_gcc.h **** 
  25:Drivers/CMSIS/Include/cmsis_gcc.h **** #ifndef __CMSIS_GCC_H
  26:Drivers/CMSIS/Include/cmsis_gcc.h **** #define __CMSIS_GCC_H
  27:Drivers/CMSIS/Include/cmsis_gcc.h **** 
  28:Drivers/CMSIS/Include/cmsis_gcc.h **** /* ignore some GCC warnings */
  29:Drivers/CMSIS/Include/cmsis_gcc.h **** #pragma GCC diagnostic push
  30:Drivers/CMSIS/Include/cmsis_gcc.h **** #pragma GCC diagnostic ignored "-Wsign-conversion"
  31:Drivers/CMSIS/Include/cmsis_gcc.h **** #pragma GCC diagnostic ignored "-Wconversion"
  32:Drivers/CMSIS/Include/cmsis_gcc.h **** #pragma GCC diagnostic ignored "-Wunused-parameter"
  33:Drivers/CMSIS/Include/cmsis_gcc.h **** 
  34:Drivers/CMSIS/Include/cmsis_gcc.h **** /* Fallback for __has_builtin */
  35:Drivers/CMSIS/Include/cmsis_gcc.h **** #ifndef __has_builtin
  36:Drivers/CMSIS/Include/cmsis_gcc.h ****   #define __has_builtin(x) (0)
  37:Drivers/CMSIS/Include/cmsis_gcc.h **** #endif
  38:Drivers/CMSIS/Include/cmsis_gcc.h **** 
  39:Drivers/CMSIS/Include/cmsis_gcc.h **** /* CMSIS compiler specific defines */
  40:Drivers/CMSIS/Include/cmsis_gcc.h **** #ifndef   __ASM
  41:Drivers/CMSIS/Include/cmsis_gcc.h ****   #define __ASM                                  __asm
  42:Drivers/CMSIS/Include/cmsis_gcc.h **** #endif
  43:Drivers/CMSIS/Include/cmsis_gcc.h **** #ifndef   __INLINE
  44:Drivers/CMSIS/Include/cmsis_gcc.h ****   #define __INLINE                               inline
  45:Drivers/CMSIS/Include/cmsis_gcc.h **** #endif
  46:Drivers/CMSIS/Include/cmsis_gcc.h **** #ifndef   __STATIC_INLINE
  47:Drivers/CMSIS/Include/cmsis_gcc.h ****   #define __STATIC_INLINE                        static inline
  48:Drivers/CMSIS/Include/cmsis_gcc.h **** #endif
  49:Drivers/CMSIS/Include/cmsis_gcc.h **** #ifndef   __STATIC_FORCEINLINE                 
  50:Drivers/CMSIS/Include/cmsis_gcc.h ****   #define __STATIC_FORCEINLINE                   __attribute__((always_inline)) static inline
  51:Drivers/CMSIS/Include/cmsis_gcc.h **** #endif                                           
  52:Drivers/CMSIS/Include/cmsis_gcc.h **** #ifndef   __NO_RETURN
  53:Drivers/CMSIS/Include/cmsis_gcc.h ****   #define __NO_RETURN                            __attribute__((__noreturn__))
  54:Drivers/CMSIS/Include/cmsis_gcc.h **** #endif
ARM GAS  C:\Users\Konrad\AppData\Local\Temp\ccgoq2cw.s 			page 8


  55:Drivers/CMSIS/Include/cmsis_gcc.h **** #ifndef   __USED
  56:Drivers/CMSIS/Include/cmsis_gcc.h ****   #define __USED                                 __attribute__((used))
  57:Drivers/CMSIS/Include/cmsis_gcc.h **** #endif
  58:Drivers/CMSIS/Include/cmsis_gcc.h **** #ifndef   __WEAK
  59:Drivers/CMSIS/Include/cmsis_gcc.h ****   #define __WEAK                                 __attribute__((weak))
  60:Drivers/CMSIS/Include/cmsis_gcc.h **** #endif
  61:Drivers/CMSIS/Include/cmsis_gcc.h **** #ifndef   __PACKED
  62:Drivers/CMSIS/Include/cmsis_gcc.h ****   #define __PACKED                               __attribute__((packed, aligned(1)))
  63:Drivers/CMSIS/Include/cmsis_gcc.h **** #endif
  64:Drivers/CMSIS/Include/cmsis_gcc.h **** #ifndef   __PACKED_STRUCT
  65:Drivers/CMSIS/Include/cmsis_gcc.h ****   #define __PACKED_STRUCT                        struct __attribute__((packed, aligned(1)))
  66:Drivers/CMSIS/Include/cmsis_gcc.h **** #endif
  67:Drivers/CMSIS/Include/cmsis_gcc.h **** #ifndef   __PACKED_UNION
  68:Drivers/CMSIS/Include/cmsis_gcc.h ****   #define __PACKED_UNION                         union __attribute__((packed, aligned(1)))
  69:Drivers/CMSIS/Include/cmsis_gcc.h **** #endif
  70:Drivers/CMSIS/Include/cmsis_gcc.h **** #ifndef   __UNALIGNED_UINT32        /* deprecated */
  71:Drivers/CMSIS/Include/cmsis_gcc.h ****   #pragma GCC diagnostic push
  72:Drivers/CMSIS/Include/cmsis_gcc.h ****   #pragma GCC diagnostic ignored "-Wpacked"
  73:Drivers/CMSIS/Include/cmsis_gcc.h ****   #pragma GCC diagnostic ignored "-Wattributes"
  74:Drivers/CMSIS/Include/cmsis_gcc.h ****   struct __attribute__((packed)) T_UINT32 { uint32_t v; };
  75:Drivers/CMSIS/Include/cmsis_gcc.h ****   #pragma GCC diagnostic pop
  76:Drivers/CMSIS/Include/cmsis_gcc.h ****   #define __UNALIGNED_UINT32(x)                  (((struct T_UINT32 *)(x))->v)
  77:Drivers/CMSIS/Include/cmsis_gcc.h **** #endif
  78:Drivers/CMSIS/Include/cmsis_gcc.h **** #ifndef   __UNALIGNED_UINT16_WRITE
  79:Drivers/CMSIS/Include/cmsis_gcc.h ****   #pragma GCC diagnostic push
  80:Drivers/CMSIS/Include/cmsis_gcc.h ****   #pragma GCC diagnostic ignored "-Wpacked"
  81:Drivers/CMSIS/Include/cmsis_gcc.h ****   #pragma GCC diagnostic ignored "-Wattributes"
  82:Drivers/CMSIS/Include/cmsis_gcc.h ****   __PACKED_STRUCT T_UINT16_WRITE { uint16_t v; };
  83:Drivers/CMSIS/Include/cmsis_gcc.h ****   #pragma GCC diagnostic pop
  84:Drivers/CMSIS/Include/cmsis_gcc.h ****   #define __UNALIGNED_UINT16_WRITE(addr, val)    (void)((((struct T_UINT16_WRITE *)(void *)(addr))-
  85:Drivers/CMSIS/Include/cmsis_gcc.h **** #endif
  86:Drivers/CMSIS/Include/cmsis_gcc.h **** #ifndef   __UNALIGNED_UINT16_READ
  87:Drivers/CMSIS/Include/cmsis_gcc.h ****   #pragma GCC diagnostic push
  88:Drivers/CMSIS/Include/cmsis_gcc.h ****   #pragma GCC diagnostic ignored "-Wpacked"
  89:Drivers/CMSIS/Include/cmsis_gcc.h ****   #pragma GCC diagnostic ignored "-Wattributes"
  90:Drivers/CMSIS/Include/cmsis_gcc.h ****   __PACKED_STRUCT T_UINT16_READ { uint16_t v; };
  91:Drivers/CMSIS/Include/cmsis_gcc.h ****   #pragma GCC diagnostic pop
  92:Drivers/CMSIS/Include/cmsis_gcc.h ****   #define __UNALIGNED_UINT16_READ(addr)          (((const struct T_UINT16_READ *)(const void *)(add
  93:Drivers/CMSIS/Include/cmsis_gcc.h **** #endif
  94:Drivers/CMSIS/Include/cmsis_gcc.h **** #ifndef   __UNALIGNED_UINT32_WRITE
  95:Drivers/CMSIS/Include/cmsis_gcc.h ****   #pragma GCC diagnostic push
  96:Drivers/CMSIS/Include/cmsis_gcc.h ****   #pragma GCC diagnostic ignored "-Wpacked"
  97:Drivers/CMSIS/Include/cmsis_gcc.h ****   #pragma GCC diagnostic ignored "-Wattributes"
  98:Drivers/CMSIS/Include/cmsis_gcc.h ****   __PACKED_STRUCT T_UINT32_WRITE { uint32_t v; };
  99:Drivers/CMSIS/Include/cmsis_gcc.h ****   #pragma GCC diagnostic pop
 100:Drivers/CMSIS/Include/cmsis_gcc.h ****   #define __UNALIGNED_UINT32_WRITE(addr, val)    (void)((((struct T_UINT32_WRITE *)(void *)(addr))-
 101:Drivers/CMSIS/Include/cmsis_gcc.h **** #endif
 102:Drivers/CMSIS/Include/cmsis_gcc.h **** #ifndef   __UNALIGNED_UINT32_READ
 103:Drivers/CMSIS/Include/cmsis_gcc.h ****   #pragma GCC diagnostic push
 104:Drivers/CMSIS/Include/cmsis_gcc.h ****   #pragma GCC diagnostic ignored "-Wpacked"
 105:Drivers/CMSIS/Include/cmsis_gcc.h ****   #pragma GCC diagnostic ignored "-Wattributes"
 106:Drivers/CMSIS/Include/cmsis_gcc.h ****   __PACKED_STRUCT T_UINT32_READ { uint32_t v; };
 107:Drivers/CMSIS/Include/cmsis_gcc.h ****   #pragma GCC diagnostic pop
 108:Drivers/CMSIS/Include/cmsis_gcc.h ****   #define __UNALIGNED_UINT32_READ(addr)          (((const struct T_UINT32_READ *)(const void *)(add
 109:Drivers/CMSIS/Include/cmsis_gcc.h **** #endif
 110:Drivers/CMSIS/Include/cmsis_gcc.h **** #ifndef   __ALIGNED
 111:Drivers/CMSIS/Include/cmsis_gcc.h ****   #define __ALIGNED(x)                           __attribute__((aligned(x)))
ARM GAS  C:\Users\Konrad\AppData\Local\Temp\ccgoq2cw.s 			page 9


 112:Drivers/CMSIS/Include/cmsis_gcc.h **** #endif
 113:Drivers/CMSIS/Include/cmsis_gcc.h **** #ifndef   __RESTRICT
 114:Drivers/CMSIS/Include/cmsis_gcc.h ****   #define __RESTRICT                             __restrict
 115:Drivers/CMSIS/Include/cmsis_gcc.h **** #endif
 116:Drivers/CMSIS/Include/cmsis_gcc.h **** 
 117:Drivers/CMSIS/Include/cmsis_gcc.h **** 
 118:Drivers/CMSIS/Include/cmsis_gcc.h **** /* ###########################  Core Function Access  ########################### */
 119:Drivers/CMSIS/Include/cmsis_gcc.h **** /** \ingroup  CMSIS_Core_FunctionInterface
 120:Drivers/CMSIS/Include/cmsis_gcc.h ****     \defgroup CMSIS_Core_RegAccFunctions CMSIS Core Register Access Functions
 121:Drivers/CMSIS/Include/cmsis_gcc.h ****   @{
 122:Drivers/CMSIS/Include/cmsis_gcc.h ****  */
 123:Drivers/CMSIS/Include/cmsis_gcc.h **** 
 124:Drivers/CMSIS/Include/cmsis_gcc.h **** /**
 125:Drivers/CMSIS/Include/cmsis_gcc.h ****   \brief   Enable IRQ Interrupts
 126:Drivers/CMSIS/Include/cmsis_gcc.h ****   \details Enables IRQ interrupts by clearing the I-bit in the CPSR.
 127:Drivers/CMSIS/Include/cmsis_gcc.h ****            Can only be executed in Privileged modes.
 128:Drivers/CMSIS/Include/cmsis_gcc.h ****  */
 129:Drivers/CMSIS/Include/cmsis_gcc.h **** __STATIC_FORCEINLINE void __enable_irq(void)
 130:Drivers/CMSIS/Include/cmsis_gcc.h **** {
 131:Drivers/CMSIS/Include/cmsis_gcc.h ****   __ASM volatile ("cpsie i" : : : "memory");
 132:Drivers/CMSIS/Include/cmsis_gcc.h **** }
 133:Drivers/CMSIS/Include/cmsis_gcc.h **** 
 134:Drivers/CMSIS/Include/cmsis_gcc.h **** 
 135:Drivers/CMSIS/Include/cmsis_gcc.h **** /**
 136:Drivers/CMSIS/Include/cmsis_gcc.h ****   \brief   Disable IRQ Interrupts
 137:Drivers/CMSIS/Include/cmsis_gcc.h ****   \details Disables IRQ interrupts by setting the I-bit in the CPSR.
 138:Drivers/CMSIS/Include/cmsis_gcc.h ****            Can only be executed in Privileged modes.
 139:Drivers/CMSIS/Include/cmsis_gcc.h ****  */
 140:Drivers/CMSIS/Include/cmsis_gcc.h **** __STATIC_FORCEINLINE void __disable_irq(void)
 148              		.loc 2 140 27 view .LVU51
 149              	.LBB23:
 141:Drivers/CMSIS/Include/cmsis_gcc.h **** {
 142:Drivers/CMSIS/Include/cmsis_gcc.h ****   __ASM volatile ("cpsid i" : : : "memory");
 150              		.loc 2 142 3 view .LVU52
 151              		.syntax unified
 152              	@ 142 "Drivers/CMSIS/Include/cmsis_gcc.h" 1
 153 0070 72B6     		cpsid i
 154              	@ 0 "" 2
 155              		.thumb
 156              		.syntax unified
 157              	.L3:
 158              	.LBE23:
 159              	.LBE22:
 178:Core/Src/main.c ****   while (1)
 160              		.loc 1 178 3 view .LVU53
 179:Core/Src/main.c ****   {
 180:Core/Src/main.c ****   }
 161              		.loc 1 180 3 view .LVU54
 178:Core/Src/main.c ****   while (1)
 162              		.loc 1 178 9 view .LVU55
 178:Core/Src/main.c ****   while (1)
 163              		.loc 1 178 3 view .LVU56
 164              		.loc 1 180 3 view .LVU57
 178:Core/Src/main.c ****   while (1)
 165              		.loc 1 178 9 view .LVU58
 166 0072 FEE7     		b	.L3
 167              	.L2:
ARM GAS  C:\Users\Konrad\AppData\Local\Temp\ccgoq2cw.s 			page 10


 168              	.LBE21:
 152:Core/Src/main.c ****                               |RCC_CLOCKTYPE_PCLK1|RCC_CLOCKTYPE_PCLK2;
 169              		.loc 1 152 3 view .LVU59
 152:Core/Src/main.c ****                               |RCC_CLOCKTYPE_PCLK1|RCC_CLOCKTYPE_PCLK2;
 170              		.loc 1 152 31 is_stmt 0 view .LVU60
 171 0074 0F21     		movs	r1, #15
 172 0076 0346     		mov	r3, r0
 154:Core/Src/main.c ****   RCC_ClkInitStruct.AHBCLKDivider = RCC_SYSCLK_DIV1;
 173              		.loc 1 154 34 view .LVU61
 174 0078 CDE90314 		strd	r1, r4, [sp, #12]
 155:Core/Src/main.c ****   RCC_ClkInitStruct.APB1CLKDivider = RCC_HCLK_DIV2;
 175              		.loc 1 155 3 is_stmt 1 view .LVU62
 156:Core/Src/main.c ****   RCC_ClkInitStruct.APB2CLKDivider = RCC_HCLK_DIV1;
 176              		.loc 1 156 36 is_stmt 0 view .LVU63
 177 007c 4FF48052 		mov	r2, #4096
 159:Core/Src/main.c ****   {
 178              		.loc 1 159 7 view .LVU64
 179 0080 03A8     		add	r0, sp, #12
 180 0082 0321     		movs	r1, #3
 156:Core/Src/main.c ****   RCC_ClkInitStruct.APB2CLKDivider = RCC_HCLK_DIV1;
 181              		.loc 1 156 36 view .LVU65
 182 0084 CDE90532 		strd	r3, r2, [sp, #20]
 157:Core/Src/main.c **** 
 183              		.loc 1 157 3 is_stmt 1 view .LVU66
 157:Core/Src/main.c **** 
 184              		.loc 1 157 36 is_stmt 0 view .LVU67
 185 0088 0793     		str	r3, [sp, #28]
 159:Core/Src/main.c ****   {
 186              		.loc 1 159 3 is_stmt 1 view .LVU68
 159:Core/Src/main.c ****   {
 187              		.loc 1 159 7 is_stmt 0 view .LVU69
 188 008a FFF7FEFF 		bl	HAL_RCC_ClockConfig
 189              	.LVL1:
 159:Core/Src/main.c ****   {
 190              		.loc 1 159 6 discriminator 1 view .LVU70
 191 008e 08B1     		cbz	r0, .L1
 161:Core/Src/main.c ****   }
 192              		.loc 1 161 5 is_stmt 1 view .LVU71
 193              	.LBB24:
 194              	.LBI24:
 173:Core/Src/main.c **** {
 195              		.loc 1 173 6 view .LVU72
 177:Core/Src/main.c ****   while (1)
 196              		.loc 1 177 3 view .LVU73
 197              	.LBB25:
 198              	.LBI25:
 140:Drivers/CMSIS/Include/cmsis_gcc.h **** {
 199              		.loc 2 140 27 view .LVU74
 200              	.LBB26:
 201              		.loc 2 142 3 view .LVU75
 202              		.syntax unified
 203              	@ 142 "Drivers/CMSIS/Include/cmsis_gcc.h" 1
 204 0090 72B6     		cpsid i
 205              	@ 0 "" 2
 206              		.thumb
 207              		.syntax unified
 208              	.L5:
ARM GAS  C:\Users\Konrad\AppData\Local\Temp\ccgoq2cw.s 			page 11


 209              	.LBE26:
 210              	.LBE25:
 178:Core/Src/main.c ****   {
 211              		.loc 1 178 3 view .LVU76
 212              		.loc 1 180 3 view .LVU77
 178:Core/Src/main.c ****   {
 213              		.loc 1 178 9 view .LVU78
 178:Core/Src/main.c ****   {
 214              		.loc 1 178 3 view .LVU79
 215              		.loc 1 180 3 view .LVU80
 178:Core/Src/main.c ****   {
 216              		.loc 1 178 9 view .LVU81
 217 0092 FEE7     		b	.L5
 218              	.L1:
 219              	.LBE24:
 163:Core/Src/main.c **** 
 220              		.loc 1 163 1 is_stmt 0 view .LVU82
 221 0094 14B0     		add	sp, sp, #80
 222              		.cfi_def_cfa_offset 8
 223              		@ sp needed
 224 0096 10BD     		pop	{r4, pc}
 225              	.L9:
 226              		.align	2
 227              	.L8:
 228 0098 00380240 		.word	1073887232
 229 009c 00700040 		.word	1073770496
 230              		.cfi_endproc
 231              	.LFE217:
 233              		.section	.text.startup.main,"ax",%progbits
 234              		.align	1
 235              		.p2align 2,,3
 236              		.global	main
 237              		.syntax unified
 238              		.thumb
 239              		.thumb_func
 241              	main:
 242              	.LFB216:
  71:Core/Src/main.c ****   /* USER CODE BEGIN 1 */
 243              		.loc 1 71 1 is_stmt 1 view -0
 244              		.cfi_startproc
 245              		@ Volatile: function does not return.
 246              		@ args = 0, pretend = 0, frame = 0
 247              		@ frame_needed = 0, uses_anonymous_args = 0
  79:Core/Src/main.c **** 
 248              		.loc 1 79 3 view .LVU84
  71:Core/Src/main.c ****   /* USER CODE BEGIN 1 */
 249              		.loc 1 71 1 is_stmt 0 view .LVU85
 250 0000 08B5     		push	{r3, lr}
 251              		.cfi_def_cfa_offset 8
 252              		.cfi_offset 3, -8
 253              		.cfi_offset 14, -4
  79:Core/Src/main.c **** 
 254              		.loc 1 79 3 view .LVU86
 255 0002 FFF7FEFF 		bl	HAL_Init
 256              	.LVL2:
  86:Core/Src/main.c **** 
 257              		.loc 1 86 3 is_stmt 1 view .LVU87
ARM GAS  C:\Users\Konrad\AppData\Local\Temp\ccgoq2cw.s 			page 12


 258 0006 FFF7FEFF 		bl	SystemClock_Config
 259              	.LVL3:
  93:Core/Src/main.c ****   MX_DMA_Init();
 260              		.loc 1 93 3 view .LVU88
 261 000a FFF7FEFF 		bl	MX_GPIO_Init
 262              	.LVL4:
  94:Core/Src/main.c ****   MX_ADC1_Init();
 263              		.loc 1 94 3 view .LVU89
 264 000e FFF7FEFF 		bl	MX_DMA_Init
 265              	.LVL5:
  95:Core/Src/main.c ****   MX_SPI1_Init();
 266              		.loc 1 95 3 view .LVU90
 267 0012 FFF7FEFF 		bl	MX_ADC1_Init
 268              	.LVL6:
  96:Core/Src/main.c ****   MX_TIM2_Init();
 269              		.loc 1 96 3 view .LVU91
 270 0016 FFF7FEFF 		bl	MX_SPI1_Init
 271              	.LVL7:
  97:Core/Src/main.c ****   MX_USART1_UART_Init();
 272              		.loc 1 97 3 view .LVU92
 273 001a FFF7FEFF 		bl	MX_TIM2_Init
 274              	.LVL8:
  98:Core/Src/main.c ****   MX_TIM1_Init();
 275              		.loc 1 98 3 view .LVU93
 276 001e FFF7FEFF 		bl	MX_USART1_UART_Init
 277              	.LVL9:
  99:Core/Src/main.c ****   MX_TIM3_Init();
 278              		.loc 1 99 3 view .LVU94
 279 0022 FFF7FEFF 		bl	MX_TIM1_Init
 280              	.LVL10:
 100:Core/Src/main.c ****   MX_TIM4_Init();
 281              		.loc 1 100 3 view .LVU95
 282 0026 FFF7FEFF 		bl	MX_TIM3_Init
 283              	.LVL11:
 101:Core/Src/main.c ****   MX_RTC_Init();
 284              		.loc 1 101 3 view .LVU96
 285 002a FFF7FEFF 		bl	MX_TIM4_Init
 286              	.LVL12:
 102:Core/Src/main.c ****   /* USER CODE BEGIN 2 */
 287              		.loc 1 102 3 view .LVU97
 288 002e FFF7FEFF 		bl	MX_RTC_Init
 289              	.LVL13:
 104:Core/Src/main.c ****   /* USER CODE END 2 */
 290              		.loc 1 104 3 view .LVU98
 291 0032 FFF7FEFF 		bl	clean_main
 292              	.LVL14:
 293              	.L11:
 109:Core/Src/main.c ****   {
 294              		.loc 1 109 3 view .LVU99
 111:Core/Src/main.c ****     /* USER CODE END WHILE */
 295              		.loc 1 111 5 discriminator 1 view .LVU100
 296 0036 FFF7FEFF 		bl	clean_loop
 297              	.LVL15:
 109:Core/Src/main.c ****   {
 298              		.loc 1 109 9 view .LVU101
 299 003a FCE7     		b	.L11
 300              		.cfi_endproc
ARM GAS  C:\Users\Konrad\AppData\Local\Temp\ccgoq2cw.s 			page 13


 301              	.LFE216:
 303              		.section	.text.Error_Handler,"ax",%progbits
 304              		.align	1
 305              		.p2align 2,,3
 306              		.global	Error_Handler
 307              		.syntax unified
 308              		.thumb
 309              		.thumb_func
 311              	Error_Handler:
 312              	.LFB218:
 174:Core/Src/main.c ****   /* USER CODE BEGIN Error_Handler_Debug */
 313              		.loc 1 174 1 view -0
 314              		.cfi_startproc
 315              		@ Volatile: function does not return.
 316              		@ args = 0, pretend = 0, frame = 0
 317              		@ frame_needed = 0, uses_anonymous_args = 0
 318              		@ link register save eliminated.
 177:Core/Src/main.c ****   while (1)
 319              		.loc 1 177 3 view .LVU103
 320              	.LBB27:
 321              	.LBI27:
 140:Drivers/CMSIS/Include/cmsis_gcc.h **** {
 322              		.loc 2 140 27 view .LVU104
 323              	.LBB28:
 324              		.loc 2 142 3 view .LVU105
 325              		.syntax unified
 326              	@ 142 "Drivers/CMSIS/Include/cmsis_gcc.h" 1
 327 0000 72B6     		cpsid i
 328              	@ 0 "" 2
 329              		.thumb
 330              		.syntax unified
 331              	.L14:
 332              	.LBE28:
 333              	.LBE27:
 178:Core/Src/main.c ****   {
 334              		.loc 1 178 3 view .LVU106
 335              		.loc 1 180 3 view .LVU107
 178:Core/Src/main.c ****   {
 336              		.loc 1 178 9 view .LVU108
 178:Core/Src/main.c ****   {
 337              		.loc 1 178 3 view .LVU109
 338              		.loc 1 180 3 view .LVU110
 178:Core/Src/main.c ****   {
 339              		.loc 1 178 9 view .LVU111
 340 0002 FEE7     		b	.L14
 341              		.cfi_endproc
 342              	.LFE218:
 344              		.text
 345              	.Letext0:
 346              		.file 3 "C:/Users/Konrad/AppData/Roaming/Code/User/globalStorage/bmd.stm32-for-vscode/@xpack-dev-t
 347              		.file 4 "C:/Users/Konrad/AppData/Roaming/Code/User/globalStorage/bmd.stm32-for-vscode/@xpack-dev-t
 348              		.file 5 "Drivers/CMSIS/Device/ST/STM32F4xx/Include/stm32f411xe.h"
 349              		.file 6 "Drivers/STM32F4xx_HAL_Driver/Inc/stm32f4xx_hal_def.h"
 350              		.file 7 "Drivers/STM32F4xx_HAL_Driver/Inc/stm32f4xx_hal_rcc_ex.h"
 351              		.file 8 "Drivers/STM32F4xx_HAL_Driver/Inc/stm32f4xx_hal_rcc.h"
 352              		.file 9 "Core/Inc/clean_main.h"
 353              		.file 10 "Core/Inc/rtc.h"
ARM GAS  C:\Users\Konrad\AppData\Local\Temp\ccgoq2cw.s 			page 14


 354              		.file 11 "Core/Inc/tim.h"
 355              		.file 12 "Core/Inc/usart.h"
 356              		.file 13 "Core/Inc/spi.h"
 357              		.file 14 "Core/Inc/adc.h"
 358              		.file 15 "Core/Inc/dma.h"
 359              		.file 16 "Core/Inc/gpio.h"
 360              		.file 17 "Drivers/STM32F4xx_HAL_Driver/Inc/stm32f4xx_hal.h"
ARM GAS  C:\Users\Konrad\AppData\Local\Temp\ccgoq2cw.s 			page 15

