ARM GAS  C:\Users\Konrad\AppData\Local\Temp\ccbXyGXO.s 			page 1


   1              		.cpu cortex-m4
   2              		.arch armv7e-m
   3              		.fpu fpv4-sp-d16
   4              		.eabi_attribute 27, 1
   5              		.eabi_attribute 28, 1
   6              		.eabi_attribute 23, 1
   7              		.eabi_attribute 24, 1
   8              		.eabi_attribute 25, 1
   9              		.eabi_attribute 26, 1
  10              		.eabi_attribute 30, 2
  11              		.eabi_attribute 34, 1
  12              		.eabi_attribute 18, 4
  13              		.file	"stm32f4xx_hal_rtc_ex.c"
  14              		.text
  15              	.Ltext0:
  16              		.cfi_sections	.debug_frame
  17              		.file 1 "Drivers/STM32F4xx_HAL_Driver/Src/stm32f4xx_hal_rtc_ex.c"
  18              		.section	.text.HAL_RTCEx_SetTimeStamp,"ax",%progbits
  19              		.align	1
  20              		.p2align 2,,3
  21              		.global	HAL_RTCEx_SetTimeStamp
  22              		.syntax unified
  23              		.thumb
  24              		.thumb_func
  26              	HAL_RTCEx_SetTimeStamp:
  27              	.LVL0:
  28              	.LFB216:
   1:Drivers/STM32F4xx_HAL_Driver/Src/stm32f4xx_hal_rtc_ex.c **** /**
   2:Drivers/STM32F4xx_HAL_Driver/Src/stm32f4xx_hal_rtc_ex.c ****   ******************************************************************************
   3:Drivers/STM32F4xx_HAL_Driver/Src/stm32f4xx_hal_rtc_ex.c ****   * @file    stm32f4xx_hal_rtc_ex.c
   4:Drivers/STM32F4xx_HAL_Driver/Src/stm32f4xx_hal_rtc_ex.c ****   * @author  MCD Application Team
   5:Drivers/STM32F4xx_HAL_Driver/Src/stm32f4xx_hal_rtc_ex.c ****   * @brief   Extended RTC HAL module driver.
   6:Drivers/STM32F4xx_HAL_Driver/Src/stm32f4xx_hal_rtc_ex.c ****   *          This file provides firmware functions to manage the following
   7:Drivers/STM32F4xx_HAL_Driver/Src/stm32f4xx_hal_rtc_ex.c ****   *          functionalities of the Real-Time Clock (RTC) Extended peripheral:
   8:Drivers/STM32F4xx_HAL_Driver/Src/stm32f4xx_hal_rtc_ex.c ****   *           + RTC Timestamp functions
   9:Drivers/STM32F4xx_HAL_Driver/Src/stm32f4xx_hal_rtc_ex.c ****   *           + RTC Tamper functions
  10:Drivers/STM32F4xx_HAL_Driver/Src/stm32f4xx_hal_rtc_ex.c ****   *           + RTC Wakeup functions
  11:Drivers/STM32F4xx_HAL_Driver/Src/stm32f4xx_hal_rtc_ex.c ****   *           + Extended Control functions
  12:Drivers/STM32F4xx_HAL_Driver/Src/stm32f4xx_hal_rtc_ex.c ****   *           + Extended RTC features functions
  13:Drivers/STM32F4xx_HAL_Driver/Src/stm32f4xx_hal_rtc_ex.c ****   *
  14:Drivers/STM32F4xx_HAL_Driver/Src/stm32f4xx_hal_rtc_ex.c ****   ******************************************************************************
  15:Drivers/STM32F4xx_HAL_Driver/Src/stm32f4xx_hal_rtc_ex.c ****   * @attention
  16:Drivers/STM32F4xx_HAL_Driver/Src/stm32f4xx_hal_rtc_ex.c ****   *
  17:Drivers/STM32F4xx_HAL_Driver/Src/stm32f4xx_hal_rtc_ex.c ****   * Copyright (c) 2017 STMicroelectronics.
  18:Drivers/STM32F4xx_HAL_Driver/Src/stm32f4xx_hal_rtc_ex.c ****   * All rights reserved.
  19:Drivers/STM32F4xx_HAL_Driver/Src/stm32f4xx_hal_rtc_ex.c ****   *
  20:Drivers/STM32F4xx_HAL_Driver/Src/stm32f4xx_hal_rtc_ex.c ****   * This software is licensed under terms that can be found in the LICENSE file
  21:Drivers/STM32F4xx_HAL_Driver/Src/stm32f4xx_hal_rtc_ex.c ****   * in the root directory of this software component.
  22:Drivers/STM32F4xx_HAL_Driver/Src/stm32f4xx_hal_rtc_ex.c ****   * If no LICENSE file comes with this software, it is provided AS-IS.
  23:Drivers/STM32F4xx_HAL_Driver/Src/stm32f4xx_hal_rtc_ex.c ****   *
  24:Drivers/STM32F4xx_HAL_Driver/Src/stm32f4xx_hal_rtc_ex.c ****   ******************************************************************************
  25:Drivers/STM32F4xx_HAL_Driver/Src/stm32f4xx_hal_rtc_ex.c ****   @verbatim
  26:Drivers/STM32F4xx_HAL_Driver/Src/stm32f4xx_hal_rtc_ex.c ****   ==============================================================================
  27:Drivers/STM32F4xx_HAL_Driver/Src/stm32f4xx_hal_rtc_ex.c ****                         ##### How to use this driver #####
  28:Drivers/STM32F4xx_HAL_Driver/Src/stm32f4xx_hal_rtc_ex.c ****   ==============================================================================
  29:Drivers/STM32F4xx_HAL_Driver/Src/stm32f4xx_hal_rtc_ex.c ****   [..]
  30:Drivers/STM32F4xx_HAL_Driver/Src/stm32f4xx_hal_rtc_ex.c ****     (+) Enable the RTC domain access.
ARM GAS  C:\Users\Konrad\AppData\Local\Temp\ccbXyGXO.s 			page 2


  31:Drivers/STM32F4xx_HAL_Driver/Src/stm32f4xx_hal_rtc_ex.c ****     (+) Configure the RTC Prescaler (Asynchronous and Synchronous) and RTC hour
  32:Drivers/STM32F4xx_HAL_Driver/Src/stm32f4xx_hal_rtc_ex.c ****         format using the HAL_RTC_Init() function.
  33:Drivers/STM32F4xx_HAL_Driver/Src/stm32f4xx_hal_rtc_ex.c **** 
  34:Drivers/STM32F4xx_HAL_Driver/Src/stm32f4xx_hal_rtc_ex.c ****   *** RTC Wakeup configuration ***
  35:Drivers/STM32F4xx_HAL_Driver/Src/stm32f4xx_hal_rtc_ex.c ****   ================================
  36:Drivers/STM32F4xx_HAL_Driver/Src/stm32f4xx_hal_rtc_ex.c ****   [..]
  37:Drivers/STM32F4xx_HAL_Driver/Src/stm32f4xx_hal_rtc_ex.c ****     (+) To configure the RTC Wakeup Clock source and Counter use the
  38:Drivers/STM32F4xx_HAL_Driver/Src/stm32f4xx_hal_rtc_ex.c ****         HAL_RTCEx_SetWakeUpTimer() function.
  39:Drivers/STM32F4xx_HAL_Driver/Src/stm32f4xx_hal_rtc_ex.c ****         You can also configure the RTC Wakeup timer in interrupt mode using the
  40:Drivers/STM32F4xx_HAL_Driver/Src/stm32f4xx_hal_rtc_ex.c ****         HAL_RTCEx_SetWakeUpTimer_IT() function.
  41:Drivers/STM32F4xx_HAL_Driver/Src/stm32f4xx_hal_rtc_ex.c ****     (+) To read the RTC Wakeup Counter register, use the HAL_RTCEx_GetWakeUpTimer()
  42:Drivers/STM32F4xx_HAL_Driver/Src/stm32f4xx_hal_rtc_ex.c ****         function.
  43:Drivers/STM32F4xx_HAL_Driver/Src/stm32f4xx_hal_rtc_ex.c **** 
  44:Drivers/STM32F4xx_HAL_Driver/Src/stm32f4xx_hal_rtc_ex.c ****   *** Timestamp configuration ***
  45:Drivers/STM32F4xx_HAL_Driver/Src/stm32f4xx_hal_rtc_ex.c ****   ===============================
  46:Drivers/STM32F4xx_HAL_Driver/Src/stm32f4xx_hal_rtc_ex.c ****   [..]
  47:Drivers/STM32F4xx_HAL_Driver/Src/stm32f4xx_hal_rtc_ex.c ****     (+) To configure the RTC Timestamp use the HAL_RTCEx_SetTimeStamp() function.
  48:Drivers/STM32F4xx_HAL_Driver/Src/stm32f4xx_hal_rtc_ex.c ****         You can also configure the RTC Timestamp with interrupt mode using the
  49:Drivers/STM32F4xx_HAL_Driver/Src/stm32f4xx_hal_rtc_ex.c ****         HAL_RTCEx_SetTimeStamp_IT() function.
  50:Drivers/STM32F4xx_HAL_Driver/Src/stm32f4xx_hal_rtc_ex.c ****     (+) To read the RTC Timestamp Time and Date register, use the
  51:Drivers/STM32F4xx_HAL_Driver/Src/stm32f4xx_hal_rtc_ex.c ****         HAL_RTCEx_GetTimeStamp() function.
  52:Drivers/STM32F4xx_HAL_Driver/Src/stm32f4xx_hal_rtc_ex.c ****     (+) The Timestamp alternate function can be mapped either to RTC_AF1 (PC13)
  53:Drivers/STM32F4xx_HAL_Driver/Src/stm32f4xx_hal_rtc_ex.c ****         or RTC_AF2 (PI8) depending on the value of TSINSEL bit in RTC_TAFCR
  54:Drivers/STM32F4xx_HAL_Driver/Src/stm32f4xx_hal_rtc_ex.c ****         register.
  55:Drivers/STM32F4xx_HAL_Driver/Src/stm32f4xx_hal_rtc_ex.c ****         For STM32F446xx devices RTC_AF2 corresponds to pin PA0 and not to pin PI8.
  56:Drivers/STM32F4xx_HAL_Driver/Src/stm32f4xx_hal_rtc_ex.c ****         The corresponding pin is also selected by HAL_RTCEx_SetTimeStamp()
  57:Drivers/STM32F4xx_HAL_Driver/Src/stm32f4xx_hal_rtc_ex.c ****         or HAL_RTCEx_SetTimeStamp_IT() functions.
  58:Drivers/STM32F4xx_HAL_Driver/Src/stm32f4xx_hal_rtc_ex.c **** 
  59:Drivers/STM32F4xx_HAL_Driver/Src/stm32f4xx_hal_rtc_ex.c ****   *** Tamper configuration ***
  60:Drivers/STM32F4xx_HAL_Driver/Src/stm32f4xx_hal_rtc_ex.c ****   ============================
  61:Drivers/STM32F4xx_HAL_Driver/Src/stm32f4xx_hal_rtc_ex.c ****   [..]
  62:Drivers/STM32F4xx_HAL_Driver/Src/stm32f4xx_hal_rtc_ex.c ****     (+) To Enable the RTC Tamper and configure the Tamper filter count, trigger
  63:Drivers/STM32F4xx_HAL_Driver/Src/stm32f4xx_hal_rtc_ex.c ****         Edge or Level according to the Tamper filter value (if equal to 0 Edge
  64:Drivers/STM32F4xx_HAL_Driver/Src/stm32f4xx_hal_rtc_ex.c ****         else Level), sampling frequency, precharge or discharge and Pull-UP use
  65:Drivers/STM32F4xx_HAL_Driver/Src/stm32f4xx_hal_rtc_ex.c ****         the HAL_RTCEx_SetTamper() function.
  66:Drivers/STM32F4xx_HAL_Driver/Src/stm32f4xx_hal_rtc_ex.c ****         You can configure RTC Tamper in interrupt mode using HAL_RTCEx_SetTamper_IT()
  67:Drivers/STM32F4xx_HAL_Driver/Src/stm32f4xx_hal_rtc_ex.c ****         function.
  68:Drivers/STM32F4xx_HAL_Driver/Src/stm32f4xx_hal_rtc_ex.c ****     (+) The TAMPER1 alternate function can be mapped either to RTC_AF1 (PC13)
  69:Drivers/STM32F4xx_HAL_Driver/Src/stm32f4xx_hal_rtc_ex.c ****         or RTC_AF2 (PI8) depending on the value of TAMP1INSEL bit in RTC_TAFCR
  70:Drivers/STM32F4xx_HAL_Driver/Src/stm32f4xx_hal_rtc_ex.c ****         register.
  71:Drivers/STM32F4xx_HAL_Driver/Src/stm32f4xx_hal_rtc_ex.c ****         The corresponding pin is also selected by HAL_RTCEx_SetTamper()
  72:Drivers/STM32F4xx_HAL_Driver/Src/stm32f4xx_hal_rtc_ex.c ****         or HAL_RTCEx_SetTamper_IT() functions.
  73:Drivers/STM32F4xx_HAL_Driver/Src/stm32f4xx_hal_rtc_ex.c ****     (+) The TAMPER2 alternate function is mapped to RTC_AF2 (PI8).
  74:Drivers/STM32F4xx_HAL_Driver/Src/stm32f4xx_hal_rtc_ex.c ****         For STM32F446xx devices RTC_AF2 corresponds to pin PA0 and not to pin PI8.
  75:Drivers/STM32F4xx_HAL_Driver/Src/stm32f4xx_hal_rtc_ex.c **** 
  76:Drivers/STM32F4xx_HAL_Driver/Src/stm32f4xx_hal_rtc_ex.c ****   *** Backup Data Registers configuration ***
  77:Drivers/STM32F4xx_HAL_Driver/Src/stm32f4xx_hal_rtc_ex.c ****   ===========================================
  78:Drivers/STM32F4xx_HAL_Driver/Src/stm32f4xx_hal_rtc_ex.c ****   [..]
  79:Drivers/STM32F4xx_HAL_Driver/Src/stm32f4xx_hal_rtc_ex.c ****     (+) To write to the RTC Backup Data registers, use the HAL_RTCEx_BKUPWrite()
  80:Drivers/STM32F4xx_HAL_Driver/Src/stm32f4xx_hal_rtc_ex.c ****         function.
  81:Drivers/STM32F4xx_HAL_Driver/Src/stm32f4xx_hal_rtc_ex.c ****     (+) To read the RTC Backup Data registers, use the HAL_RTCEx_BKUPRead()
  82:Drivers/STM32F4xx_HAL_Driver/Src/stm32f4xx_hal_rtc_ex.c ****         function.
  83:Drivers/STM32F4xx_HAL_Driver/Src/stm32f4xx_hal_rtc_ex.c **** 
  84:Drivers/STM32F4xx_HAL_Driver/Src/stm32f4xx_hal_rtc_ex.c ****   *** Coarse Digital Calibration configuration ***
  85:Drivers/STM32F4xx_HAL_Driver/Src/stm32f4xx_hal_rtc_ex.c ****   ================================================
  86:Drivers/STM32F4xx_HAL_Driver/Src/stm32f4xx_hal_rtc_ex.c ****   [..]
  87:Drivers/STM32F4xx_HAL_Driver/Src/stm32f4xx_hal_rtc_ex.c ****     (+) The Coarse Digital Calibration can be used to compensate crystal inaccuracy
ARM GAS  C:\Users\Konrad\AppData\Local\Temp\ccbXyGXO.s 			page 3


  88:Drivers/STM32F4xx_HAL_Driver/Src/stm32f4xx_hal_rtc_ex.c ****         by setting the DCS bit in RTC_CALIBR register.
  89:Drivers/STM32F4xx_HAL_Driver/Src/stm32f4xx_hal_rtc_ex.c ****     (+) When positive calibration is enabled (DCS = ‘0’), 2 asynchronous prescaler
  90:Drivers/STM32F4xx_HAL_Driver/Src/stm32f4xx_hal_rtc_ex.c ****         clock cycles are added every minute during 2xDC minutes.
  91:Drivers/STM32F4xx_HAL_Driver/Src/stm32f4xx_hal_rtc_ex.c ****         This causes the calendar to be updated sooner, thereby adjusting the
  92:Drivers/STM32F4xx_HAL_Driver/Src/stm32f4xx_hal_rtc_ex.c ****         effective RTC frequency to be a bit higher.
  93:Drivers/STM32F4xx_HAL_Driver/Src/stm32f4xx_hal_rtc_ex.c ****     (+) When negative calibration is enabled (DCS = ‘1’), 1 asynchronous prescaler
  94:Drivers/STM32F4xx_HAL_Driver/Src/stm32f4xx_hal_rtc_ex.c ****         clock cycle is removed every minute during 2xDC minutes.
  95:Drivers/STM32F4xx_HAL_Driver/Src/stm32f4xx_hal_rtc_ex.c ****         This causes the calendar to be updated later, thereby adjusting the
  96:Drivers/STM32F4xx_HAL_Driver/Src/stm32f4xx_hal_rtc_ex.c ****         effective RTC frequency to be a bit lower.
  97:Drivers/STM32F4xx_HAL_Driver/Src/stm32f4xx_hal_rtc_ex.c ****     (+) DC is configured through bits DC[4:0] of RTC_CALIBR register. This number
  98:Drivers/STM32F4xx_HAL_Driver/Src/stm32f4xx_hal_rtc_ex.c ****         ranges from 0 to 31 corresponding to a time interval (2xDC) ranging from
  99:Drivers/STM32F4xx_HAL_Driver/Src/stm32f4xx_hal_rtc_ex.c ****         0 to 62.
 100:Drivers/STM32F4xx_HAL_Driver/Src/stm32f4xx_hal_rtc_ex.c ****     (+) In order to measure the clock deviation, a 512 Hz clock is output for
 101:Drivers/STM32F4xx_HAL_Driver/Src/stm32f4xx_hal_rtc_ex.c ****         calibration.
 102:Drivers/STM32F4xx_HAL_Driver/Src/stm32f4xx_hal_rtc_ex.c ****     (+) The RTC Coarse Digital Calibration value and sign can be calibrated using
 103:Drivers/STM32F4xx_HAL_Driver/Src/stm32f4xx_hal_rtc_ex.c ****         the HAL_RTCEx_SetCoarseCalib() function.
 104:Drivers/STM32F4xx_HAL_Driver/Src/stm32f4xx_hal_rtc_ex.c **** 
 105:Drivers/STM32F4xx_HAL_Driver/Src/stm32f4xx_hal_rtc_ex.c ****   *** Smooth Digital Calibration configuration ***
 106:Drivers/STM32F4xx_HAL_Driver/Src/stm32f4xx_hal_rtc_ex.c ****   ================================================
 107:Drivers/STM32F4xx_HAL_Driver/Src/stm32f4xx_hal_rtc_ex.c ****   [..]
 108:Drivers/STM32F4xx_HAL_Driver/Src/stm32f4xx_hal_rtc_ex.c ****     (+) RTC frequency can be digitally calibrated with a resolution of about
 109:Drivers/STM32F4xx_HAL_Driver/Src/stm32f4xx_hal_rtc_ex.c ****         0.954 ppm with a range from -487.1 ppm to +488.5 ppm.
 110:Drivers/STM32F4xx_HAL_Driver/Src/stm32f4xx_hal_rtc_ex.c ****         The correction of the frequency is performed using a series of small
 111:Drivers/STM32F4xx_HAL_Driver/Src/stm32f4xx_hal_rtc_ex.c ****         adjustments (adding and/or subtracting individual RTCCLK pulses).
 112:Drivers/STM32F4xx_HAL_Driver/Src/stm32f4xx_hal_rtc_ex.c ****     (+) The smooth digital calibration is performed during a cycle of about 2^20
 113:Drivers/STM32F4xx_HAL_Driver/Src/stm32f4xx_hal_rtc_ex.c ****         RTCCLK pulses (or 32 seconds) when the input frequency is 32,768 Hz.
 114:Drivers/STM32F4xx_HAL_Driver/Src/stm32f4xx_hal_rtc_ex.c ****         This cycle is maintained by a 20-bit counter clocked by RTCCLK.
 115:Drivers/STM32F4xx_HAL_Driver/Src/stm32f4xx_hal_rtc_ex.c ****     (+) The smooth calibration register (RTC_CALR) specifies the number of RTCCLK
 116:Drivers/STM32F4xx_HAL_Driver/Src/stm32f4xx_hal_rtc_ex.c ****         clock cycles to be masked during the 32-second cycle.
 117:Drivers/STM32F4xx_HAL_Driver/Src/stm32f4xx_hal_rtc_ex.c ****     (+) The RTC Smooth Digital Calibration value and the corresponding calibration
 118:Drivers/STM32F4xx_HAL_Driver/Src/stm32f4xx_hal_rtc_ex.c ****         cycle period (32s, 16s, or 8s) can be calibrated using the
 119:Drivers/STM32F4xx_HAL_Driver/Src/stm32f4xx_hal_rtc_ex.c ****         HAL_RTCEx_SetSmoothCalib() function.
 120:Drivers/STM32F4xx_HAL_Driver/Src/stm32f4xx_hal_rtc_ex.c **** 
 121:Drivers/STM32F4xx_HAL_Driver/Src/stm32f4xx_hal_rtc_ex.c ****   @endverbatim
 122:Drivers/STM32F4xx_HAL_Driver/Src/stm32f4xx_hal_rtc_ex.c ****   ******************************************************************************
 123:Drivers/STM32F4xx_HAL_Driver/Src/stm32f4xx_hal_rtc_ex.c ****   */
 124:Drivers/STM32F4xx_HAL_Driver/Src/stm32f4xx_hal_rtc_ex.c **** 
 125:Drivers/STM32F4xx_HAL_Driver/Src/stm32f4xx_hal_rtc_ex.c **** /* Includes ------------------------------------------------------------------*/
 126:Drivers/STM32F4xx_HAL_Driver/Src/stm32f4xx_hal_rtc_ex.c **** #include "stm32f4xx_hal.h"
 127:Drivers/STM32F4xx_HAL_Driver/Src/stm32f4xx_hal_rtc_ex.c **** 
 128:Drivers/STM32F4xx_HAL_Driver/Src/stm32f4xx_hal_rtc_ex.c **** /** @addtogroup STM32F4xx_HAL_Driver
 129:Drivers/STM32F4xx_HAL_Driver/Src/stm32f4xx_hal_rtc_ex.c ****   * @{
 130:Drivers/STM32F4xx_HAL_Driver/Src/stm32f4xx_hal_rtc_ex.c ****   */
 131:Drivers/STM32F4xx_HAL_Driver/Src/stm32f4xx_hal_rtc_ex.c **** 
 132:Drivers/STM32F4xx_HAL_Driver/Src/stm32f4xx_hal_rtc_ex.c **** /** @defgroup RTCEx RTCEx
 133:Drivers/STM32F4xx_HAL_Driver/Src/stm32f4xx_hal_rtc_ex.c ****   * @brief    RTC Extended HAL module driver
 134:Drivers/STM32F4xx_HAL_Driver/Src/stm32f4xx_hal_rtc_ex.c ****   * @{
 135:Drivers/STM32F4xx_HAL_Driver/Src/stm32f4xx_hal_rtc_ex.c ****   */
 136:Drivers/STM32F4xx_HAL_Driver/Src/stm32f4xx_hal_rtc_ex.c **** 
 137:Drivers/STM32F4xx_HAL_Driver/Src/stm32f4xx_hal_rtc_ex.c **** #ifdef HAL_RTC_MODULE_ENABLED
 138:Drivers/STM32F4xx_HAL_Driver/Src/stm32f4xx_hal_rtc_ex.c **** 
 139:Drivers/STM32F4xx_HAL_Driver/Src/stm32f4xx_hal_rtc_ex.c **** /* Private typedef -----------------------------------------------------------*/
 140:Drivers/STM32F4xx_HAL_Driver/Src/stm32f4xx_hal_rtc_ex.c **** /* Private define ------------------------------------------------------------*/
 141:Drivers/STM32F4xx_HAL_Driver/Src/stm32f4xx_hal_rtc_ex.c **** /* Private macro -------------------------------------------------------------*/
 142:Drivers/STM32F4xx_HAL_Driver/Src/stm32f4xx_hal_rtc_ex.c **** /* Private variables ---------------------------------------------------------*/
 143:Drivers/STM32F4xx_HAL_Driver/Src/stm32f4xx_hal_rtc_ex.c **** /* Private function prototypes -----------------------------------------------*/
 144:Drivers/STM32F4xx_HAL_Driver/Src/stm32f4xx_hal_rtc_ex.c **** /* Exported functions --------------------------------------------------------*/
ARM GAS  C:\Users\Konrad\AppData\Local\Temp\ccbXyGXO.s 			page 4


 145:Drivers/STM32F4xx_HAL_Driver/Src/stm32f4xx_hal_rtc_ex.c **** 
 146:Drivers/STM32F4xx_HAL_Driver/Src/stm32f4xx_hal_rtc_ex.c **** /** @defgroup RTCEx_Exported_Functions RTCEx Exported Functions
 147:Drivers/STM32F4xx_HAL_Driver/Src/stm32f4xx_hal_rtc_ex.c ****   * @{
 148:Drivers/STM32F4xx_HAL_Driver/Src/stm32f4xx_hal_rtc_ex.c ****   */
 149:Drivers/STM32F4xx_HAL_Driver/Src/stm32f4xx_hal_rtc_ex.c **** 
 150:Drivers/STM32F4xx_HAL_Driver/Src/stm32f4xx_hal_rtc_ex.c **** /** @defgroup RTCEx_Exported_Functions_Group1 RTC Timestamp and Tamper functions
 151:Drivers/STM32F4xx_HAL_Driver/Src/stm32f4xx_hal_rtc_ex.c ****   * @brief    RTC Timestamp and Tamper functions
 152:Drivers/STM32F4xx_HAL_Driver/Src/stm32f4xx_hal_rtc_ex.c ****   *
 153:Drivers/STM32F4xx_HAL_Driver/Src/stm32f4xx_hal_rtc_ex.c **** @verbatim
 154:Drivers/STM32F4xx_HAL_Driver/Src/stm32f4xx_hal_rtc_ex.c ****  ===============================================================================
 155:Drivers/STM32F4xx_HAL_Driver/Src/stm32f4xx_hal_rtc_ex.c ****                  ##### RTC Timestamp and Tamper functions #####
 156:Drivers/STM32F4xx_HAL_Driver/Src/stm32f4xx_hal_rtc_ex.c ****  ===============================================================================
 157:Drivers/STM32F4xx_HAL_Driver/Src/stm32f4xx_hal_rtc_ex.c **** 
 158:Drivers/STM32F4xx_HAL_Driver/Src/stm32f4xx_hal_rtc_ex.c ****  [..] This section provides functions allowing to configure Timestamp feature
 159:Drivers/STM32F4xx_HAL_Driver/Src/stm32f4xx_hal_rtc_ex.c **** 
 160:Drivers/STM32F4xx_HAL_Driver/Src/stm32f4xx_hal_rtc_ex.c **** @endverbatim
 161:Drivers/STM32F4xx_HAL_Driver/Src/stm32f4xx_hal_rtc_ex.c ****   * @{
 162:Drivers/STM32F4xx_HAL_Driver/Src/stm32f4xx_hal_rtc_ex.c ****   */
 163:Drivers/STM32F4xx_HAL_Driver/Src/stm32f4xx_hal_rtc_ex.c **** 
 164:Drivers/STM32F4xx_HAL_Driver/Src/stm32f4xx_hal_rtc_ex.c **** /**
 165:Drivers/STM32F4xx_HAL_Driver/Src/stm32f4xx_hal_rtc_ex.c ****   * @brief  Sets Timestamp.
 166:Drivers/STM32F4xx_HAL_Driver/Src/stm32f4xx_hal_rtc_ex.c ****   * @note   This API must be called before enabling the Timestamp feature.
 167:Drivers/STM32F4xx_HAL_Driver/Src/stm32f4xx_hal_rtc_ex.c ****   * @param  hrtc pointer to a RTC_HandleTypeDef structure that contains
 168:Drivers/STM32F4xx_HAL_Driver/Src/stm32f4xx_hal_rtc_ex.c ****   *                the configuration information for RTC.
 169:Drivers/STM32F4xx_HAL_Driver/Src/stm32f4xx_hal_rtc_ex.c ****   * @param  RTC_TimeStampEdge Specifies the pin edge on which the Timestamp is
 170:Drivers/STM32F4xx_HAL_Driver/Src/stm32f4xx_hal_rtc_ex.c ****   *         activated.
 171:Drivers/STM32F4xx_HAL_Driver/Src/stm32f4xx_hal_rtc_ex.c ****   *          This parameter can be one of the following values:
 172:Drivers/STM32F4xx_HAL_Driver/Src/stm32f4xx_hal_rtc_ex.c ****   *             @arg RTC_TIMESTAMPEDGE_RISING: the Timestamp event occurs on
 173:Drivers/STM32F4xx_HAL_Driver/Src/stm32f4xx_hal_rtc_ex.c ****   *                                        the rising edge of the related pin.
 174:Drivers/STM32F4xx_HAL_Driver/Src/stm32f4xx_hal_rtc_ex.c ****   *             @arg RTC_TIMESTAMPEDGE_FALLING: the Timestamp event occurs on
 175:Drivers/STM32F4xx_HAL_Driver/Src/stm32f4xx_hal_rtc_ex.c ****   *                                        the falling edge of the related pin.
 176:Drivers/STM32F4xx_HAL_Driver/Src/stm32f4xx_hal_rtc_ex.c ****   * @param  RTC_TimeStampPin Specifies the RTC Timestamp Pin.
 177:Drivers/STM32F4xx_HAL_Driver/Src/stm32f4xx_hal_rtc_ex.c ****   *          This parameter can be one of the following values:
 178:Drivers/STM32F4xx_HAL_Driver/Src/stm32f4xx_hal_rtc_ex.c ****   *             @arg RTC_TIMESTAMPPIN_DEFAULT: PC13 is selected as RTC Timestamp Pin.
 179:Drivers/STM32F4xx_HAL_Driver/Src/stm32f4xx_hal_rtc_ex.c ****   *             @arg RTC_TIMESTAMPPIN_POS1: PI8 is selected as RTC Timestamp Pin.
 180:Drivers/STM32F4xx_HAL_Driver/Src/stm32f4xx_hal_rtc_ex.c ****   * @note RTC_TIMESTAMPPIN_POS1 corresponds to pin PA0 in the case of
 181:Drivers/STM32F4xx_HAL_Driver/Src/stm32f4xx_hal_rtc_ex.c ****   *       STM32F446xx devices.
 182:Drivers/STM32F4xx_HAL_Driver/Src/stm32f4xx_hal_rtc_ex.c ****   * @note RTC_TIMESTAMPPIN_POS1 is not applicable to the following list of devices:
 183:Drivers/STM32F4xx_HAL_Driver/Src/stm32f4xx_hal_rtc_ex.c ****   *       STM32F412xx, STM32F413xx and STM32F423xx.
 184:Drivers/STM32F4xx_HAL_Driver/Src/stm32f4xx_hal_rtc_ex.c ****   * @retval HAL status
 185:Drivers/STM32F4xx_HAL_Driver/Src/stm32f4xx_hal_rtc_ex.c ****   */
 186:Drivers/STM32F4xx_HAL_Driver/Src/stm32f4xx_hal_rtc_ex.c **** HAL_StatusTypeDef HAL_RTCEx_SetTimeStamp(RTC_HandleTypeDef *hrtc, uint32_t RTC_TimeStampEdge, uint3
 187:Drivers/STM32F4xx_HAL_Driver/Src/stm32f4xx_hal_rtc_ex.c **** {
  29              		.loc 1 187 1 view -0
  30              		.cfi_startproc
  31              		@ args = 0, pretend = 0, frame = 0
  32              		@ frame_needed = 0, uses_anonymous_args = 0
  33              		@ link register save eliminated.
 188:Drivers/STM32F4xx_HAL_Driver/Src/stm32f4xx_hal_rtc_ex.c ****   uint32_t tmpreg = 0U;
  34              		.loc 1 188 3 view .LVU1
 189:Drivers/STM32F4xx_HAL_Driver/Src/stm32f4xx_hal_rtc_ex.c **** 
 190:Drivers/STM32F4xx_HAL_Driver/Src/stm32f4xx_hal_rtc_ex.c ****   /* Check the parameters */
 191:Drivers/STM32F4xx_HAL_Driver/Src/stm32f4xx_hal_rtc_ex.c ****   assert_param(IS_TIMESTAMP_EDGE(RTC_TimeStampEdge));
  35              		.loc 1 191 3 view .LVU2
 192:Drivers/STM32F4xx_HAL_Driver/Src/stm32f4xx_hal_rtc_ex.c ****   assert_param(IS_RTC_TIMESTAMP_PIN(RTC_TimeStampPin));
  36              		.loc 1 192 3 view .LVU3
 193:Drivers/STM32F4xx_HAL_Driver/Src/stm32f4xx_hal_rtc_ex.c **** 
ARM GAS  C:\Users\Konrad\AppData\Local\Temp\ccbXyGXO.s 			page 5


 194:Drivers/STM32F4xx_HAL_Driver/Src/stm32f4xx_hal_rtc_ex.c ****   /* Process Locked */
 195:Drivers/STM32F4xx_HAL_Driver/Src/stm32f4xx_hal_rtc_ex.c ****   __HAL_LOCK(hrtc);
  37              		.loc 1 195 3 view .LVU4
  38              		.loc 1 195 3 view .LVU5
  39 0000 037F     		ldrb	r3, [r0, #28]	@ zero_extendqisi2
  40 0002 012B     		cmp	r3, #1
 187:Drivers/STM32F4xx_HAL_Driver/Src/stm32f4xx_hal_rtc_ex.c ****   uint32_t tmpreg = 0U;
  41              		.loc 1 187 1 is_stmt 0 view .LVU6
  42 0004 8446     		mov	ip, r0
  43              		.loc 1 195 3 view .LVU7
  44 0006 2DD0     		beq	.L3
  45              		.loc 1 195 3 is_stmt 1 discriminator 2 view .LVU8
  46              		.loc 1 195 3 discriminator 2 view .LVU9
 196:Drivers/STM32F4xx_HAL_Driver/Src/stm32f4xx_hal_rtc_ex.c **** 
 197:Drivers/STM32F4xx_HAL_Driver/Src/stm32f4xx_hal_rtc_ex.c ****   /* Change RTC state to BUSY */
 198:Drivers/STM32F4xx_HAL_Driver/Src/stm32f4xx_hal_rtc_ex.c ****   hrtc->State = HAL_RTC_STATE_BUSY;
  47              		.loc 1 198 3 view .LVU10
 199:Drivers/STM32F4xx_HAL_Driver/Src/stm32f4xx_hal_rtc_ex.c **** 
 200:Drivers/STM32F4xx_HAL_Driver/Src/stm32f4xx_hal_rtc_ex.c ****   hrtc->Instance->TAFCR &= (uint32_t)~RTC_TAFCR_TSINSEL;
  48              		.loc 1 200 7 is_stmt 0 view .LVU11
  49 0008 0368     		ldr	r3, [r0]
 198:Drivers/STM32F4xx_HAL_Driver/Src/stm32f4xx_hal_rtc_ex.c **** 
  50              		.loc 1 198 15 view .LVU12
  51 000a 0220     		movs	r0, #2
  52              	.LVL1:
 198:Drivers/STM32F4xx_HAL_Driver/Src/stm32f4xx_hal_rtc_ex.c **** 
  53              		.loc 1 198 15 view .LVU13
  54 000c 8CF81D00 		strb	r0, [ip, #29]
  55              		.loc 1 200 3 is_stmt 1 view .LVU14
  56              		.loc 1 200 17 is_stmt 0 view .LVU15
  57 0010 186C     		ldr	r0, [r3, #64]
  58              		.loc 1 200 25 view .LVU16
  59 0012 20F40030 		bic	r0, r0, #131072
  60 0016 1864     		str	r0, [r3, #64]
 201:Drivers/STM32F4xx_HAL_Driver/Src/stm32f4xx_hal_rtc_ex.c ****   hrtc->Instance->TAFCR |= (uint32_t)(RTC_TimeStampPin);
  61              		.loc 1 201 3 is_stmt 1 view .LVU17
  62              		.loc 1 201 17 is_stmt 0 view .LVU18
  63 0018 186C     		ldr	r0, [r3, #64]
  64              		.loc 1 201 25 view .LVU19
  65 001a 0243     		orrs	r2, r2, r0
  66              	.LVL2:
  67              		.loc 1 201 25 view .LVU20
  68 001c 1A64     		str	r2, [r3, #64]
 202:Drivers/STM32F4xx_HAL_Driver/Src/stm32f4xx_hal_rtc_ex.c **** 
 203:Drivers/STM32F4xx_HAL_Driver/Src/stm32f4xx_hal_rtc_ex.c ****   /* Get the RTC_CR register and clear the bits to be configured */
 204:Drivers/STM32F4xx_HAL_Driver/Src/stm32f4xx_hal_rtc_ex.c ****   tmpreg = (uint32_t)(hrtc->Instance->CR & (uint32_t)~(RTC_CR_TSEDGE | RTC_CR_TSE));
  69              		.loc 1 204 3 is_stmt 1 view .LVU21
  70              		.loc 1 204 37 is_stmt 0 view .LVU22
  71 001e 9A68     		ldr	r2, [r3, #8]
  72              		.loc 1 204 10 view .LVU23
  73 0020 22F40062 		bic	r2, r2, #2048
  74 0024 22F00802 		bic	r2, r2, #8
  75              	.LVL3:
 205:Drivers/STM32F4xx_HAL_Driver/Src/stm32f4xx_hal_rtc_ex.c **** 
 206:Drivers/STM32F4xx_HAL_Driver/Src/stm32f4xx_hal_rtc_ex.c ****   /* Configure the Timestamp TSEDGE bit */
 207:Drivers/STM32F4xx_HAL_Driver/Src/stm32f4xx_hal_rtc_ex.c ****   tmpreg |= RTC_TimeStampEdge;
  76              		.loc 1 207 3 is_stmt 1 view .LVU24
ARM GAS  C:\Users\Konrad\AppData\Local\Temp\ccbXyGXO.s 			page 6


  77              		.loc 1 207 10 is_stmt 0 view .LVU25
  78 0028 0A43     		orrs	r2, r2, r1
  79              	.LVL4:
 208:Drivers/STM32F4xx_HAL_Driver/Src/stm32f4xx_hal_rtc_ex.c **** 
 209:Drivers/STM32F4xx_HAL_Driver/Src/stm32f4xx_hal_rtc_ex.c ****   /* Disable the write protection for RTC registers */
 210:Drivers/STM32F4xx_HAL_Driver/Src/stm32f4xx_hal_rtc_ex.c ****   __HAL_RTC_WRITEPROTECTION_DISABLE(hrtc);
  80              		.loc 1 210 3 is_stmt 1 view .LVU26
  81              		.loc 1 210 3 view .LVU27
  82 002a CA20     		movs	r0, #202
  83 002c 5321     		movs	r1, #83
  84              	.LVL5:
  85              		.loc 1 210 3 is_stmt 0 view .LVU28
  86 002e 5862     		str	r0, [r3, #36]
  87              		.loc 1 210 3 is_stmt 1 view .LVU29
  88 0030 5962     		str	r1, [r3, #36]
  89              		.loc 1 210 3 view .LVU30
 211:Drivers/STM32F4xx_HAL_Driver/Src/stm32f4xx_hal_rtc_ex.c **** 
 212:Drivers/STM32F4xx_HAL_Driver/Src/stm32f4xx_hal_rtc_ex.c ****   /* Copy the desired configuration into the CR register */
 213:Drivers/STM32F4xx_HAL_Driver/Src/stm32f4xx_hal_rtc_ex.c ****   hrtc->Instance->CR = (uint32_t)tmpreg;
  90              		.loc 1 213 3 view .LVU31
  91              		.loc 1 213 22 is_stmt 0 view .LVU32
  92 0032 9A60     		str	r2, [r3, #8]
 214:Drivers/STM32F4xx_HAL_Driver/Src/stm32f4xx_hal_rtc_ex.c **** 
 215:Drivers/STM32F4xx_HAL_Driver/Src/stm32f4xx_hal_rtc_ex.c ****   /* Clear RTC Timestamp flag */
 216:Drivers/STM32F4xx_HAL_Driver/Src/stm32f4xx_hal_rtc_ex.c ****   __HAL_RTC_TIMESTAMP_CLEAR_FLAG(hrtc, RTC_FLAG_TSF);
  93              		.loc 1 216 3 is_stmt 1 view .LVU33
  94 0034 DA68     		ldr	r2, [r3, #12]
  95              	.LVL6:
  96              		.loc 1 216 3 is_stmt 0 view .LVU34
  97 0036 D2B2     		uxtb	r2, r2
  98 0038 62F40862 		orn	r2, r2, #2176
  99 003c DA60     		str	r2, [r3, #12]
 100              	.LVL7:
 217:Drivers/STM32F4xx_HAL_Driver/Src/stm32f4xx_hal_rtc_ex.c **** 
 218:Drivers/STM32F4xx_HAL_Driver/Src/stm32f4xx_hal_rtc_ex.c ****   /* Clear RTC Timestamp overrun Flag */
 219:Drivers/STM32F4xx_HAL_Driver/Src/stm32f4xx_hal_rtc_ex.c ****   __HAL_RTC_TIMESTAMP_CLEAR_FLAG(hrtc, RTC_FLAG_TSOVF);
 101              		.loc 1 219 3 is_stmt 1 view .LVU35
 102 003e DA68     		ldr	r2, [r3, #12]
 103 0040 D2B2     		uxtb	r2, r2
 104 0042 62F48452 		orn	r2, r2, #4224
 105 0046 DA60     		str	r2, [r3, #12]
 220:Drivers/STM32F4xx_HAL_Driver/Src/stm32f4xx_hal_rtc_ex.c **** 
 221:Drivers/STM32F4xx_HAL_Driver/Src/stm32f4xx_hal_rtc_ex.c ****   /* Enable the Timestamp saving */
 222:Drivers/STM32F4xx_HAL_Driver/Src/stm32f4xx_hal_rtc_ex.c ****   __HAL_RTC_TIMESTAMP_ENABLE(hrtc);
 106              		.loc 1 222 3 view .LVU36
 107 0048 9A68     		ldr	r2, [r3, #8]
 108 004a 42F40062 		orr	r2, r2, #2048
 109 004e 9A60     		str	r2, [r3, #8]
 223:Drivers/STM32F4xx_HAL_Driver/Src/stm32f4xx_hal_rtc_ex.c **** 
 224:Drivers/STM32F4xx_HAL_Driver/Src/stm32f4xx_hal_rtc_ex.c ****   /* Enable the write protection for RTC registers */
 225:Drivers/STM32F4xx_HAL_Driver/Src/stm32f4xx_hal_rtc_ex.c ****   __HAL_RTC_WRITEPROTECTION_ENABLE(hrtc);
 110              		.loc 1 225 3 view .LVU37
 111              		.loc 1 225 3 view .LVU38
 226:Drivers/STM32F4xx_HAL_Driver/Src/stm32f4xx_hal_rtc_ex.c **** 
 227:Drivers/STM32F4xx_HAL_Driver/Src/stm32f4xx_hal_rtc_ex.c ****   /* Change RTC state back to READY */
 228:Drivers/STM32F4xx_HAL_Driver/Src/stm32f4xx_hal_rtc_ex.c ****   hrtc->State = HAL_RTC_STATE_READY;
 229:Drivers/STM32F4xx_HAL_Driver/Src/stm32f4xx_hal_rtc_ex.c **** 
ARM GAS  C:\Users\Konrad\AppData\Local\Temp\ccbXyGXO.s 			page 7


 230:Drivers/STM32F4xx_HAL_Driver/Src/stm32f4xx_hal_rtc_ex.c ****   /* Process Unlocked */
 231:Drivers/STM32F4xx_HAL_Driver/Src/stm32f4xx_hal_rtc_ex.c ****   __HAL_UNLOCK(hrtc);
 112              		.loc 1 231 3 is_stmt 0 view .LVU39
 113 0050 0021     		movs	r1, #0
 225:Drivers/STM32F4xx_HAL_Driver/Src/stm32f4xx_hal_rtc_ex.c **** 
 114              		.loc 1 225 3 view .LVU40
 115 0052 FF20     		movs	r0, #255
 228:Drivers/STM32F4xx_HAL_Driver/Src/stm32f4xx_hal_rtc_ex.c **** 
 116              		.loc 1 228 15 view .LVU41
 117 0054 0122     		movs	r2, #1
 225:Drivers/STM32F4xx_HAL_Driver/Src/stm32f4xx_hal_rtc_ex.c **** 
 118              		.loc 1 225 3 view .LVU42
 119 0056 5862     		str	r0, [r3, #36]
 225:Drivers/STM32F4xx_HAL_Driver/Src/stm32f4xx_hal_rtc_ex.c **** 
 120              		.loc 1 225 3 is_stmt 1 view .LVU43
 228:Drivers/STM32F4xx_HAL_Driver/Src/stm32f4xx_hal_rtc_ex.c **** 
 121              		.loc 1 228 3 view .LVU44
 232:Drivers/STM32F4xx_HAL_Driver/Src/stm32f4xx_hal_rtc_ex.c **** 
 233:Drivers/STM32F4xx_HAL_Driver/Src/stm32f4xx_hal_rtc_ex.c ****   return HAL_OK;
 122              		.loc 1 233 10 is_stmt 0 view .LVU45
 123 0058 0846     		mov	r0, r1
 228:Drivers/STM32F4xx_HAL_Driver/Src/stm32f4xx_hal_rtc_ex.c **** 
 124              		.loc 1 228 15 view .LVU46
 125 005a 8CF81D20 		strb	r2, [ip, #29]
 231:Drivers/STM32F4xx_HAL_Driver/Src/stm32f4xx_hal_rtc_ex.c **** 
 126              		.loc 1 231 3 is_stmt 1 view .LVU47
 231:Drivers/STM32F4xx_HAL_Driver/Src/stm32f4xx_hal_rtc_ex.c **** 
 127              		.loc 1 231 3 view .LVU48
 128 005e 8CF81C10 		strb	r1, [ip, #28]
 231:Drivers/STM32F4xx_HAL_Driver/Src/stm32f4xx_hal_rtc_ex.c **** 
 129              		.loc 1 231 3 view .LVU49
 130              		.loc 1 233 3 view .LVU50
 131              		.loc 1 233 10 is_stmt 0 view .LVU51
 132 0062 7047     		bx	lr
 133              	.LVL8:
 134              	.L3:
 195:Drivers/STM32F4xx_HAL_Driver/Src/stm32f4xx_hal_rtc_ex.c **** 
 135              		.loc 1 195 3 discriminator 1 view .LVU52
 136 0064 0220     		movs	r0, #2
 137              	.LVL9:
 234:Drivers/STM32F4xx_HAL_Driver/Src/stm32f4xx_hal_rtc_ex.c **** }
 138              		.loc 1 234 1 view .LVU53
 139 0066 7047     		bx	lr
 140              		.cfi_endproc
 141              	.LFE216:
 143              		.section	.text.HAL_RTCEx_SetTimeStamp_IT,"ax",%progbits
 144              		.align	1
 145              		.p2align 2,,3
 146              		.global	HAL_RTCEx_SetTimeStamp_IT
 147              		.syntax unified
 148              		.thumb
 149              		.thumb_func
 151              	HAL_RTCEx_SetTimeStamp_IT:
 152              	.LVL10:
 153              	.LFB217:
 235:Drivers/STM32F4xx_HAL_Driver/Src/stm32f4xx_hal_rtc_ex.c **** 
 236:Drivers/STM32F4xx_HAL_Driver/Src/stm32f4xx_hal_rtc_ex.c **** /**
ARM GAS  C:\Users\Konrad\AppData\Local\Temp\ccbXyGXO.s 			page 8


 237:Drivers/STM32F4xx_HAL_Driver/Src/stm32f4xx_hal_rtc_ex.c ****   * @brief  Sets Timestamp with Interrupt.
 238:Drivers/STM32F4xx_HAL_Driver/Src/stm32f4xx_hal_rtc_ex.c ****   * @param  hrtc pointer to a RTC_HandleTypeDef structure that contains
 239:Drivers/STM32F4xx_HAL_Driver/Src/stm32f4xx_hal_rtc_ex.c ****   *                the configuration information for RTC.
 240:Drivers/STM32F4xx_HAL_Driver/Src/stm32f4xx_hal_rtc_ex.c ****   * @note   This API must be called before enabling the Timestamp feature.
 241:Drivers/STM32F4xx_HAL_Driver/Src/stm32f4xx_hal_rtc_ex.c ****   * @param  RTC_TimeStampEdge Specifies the pin edge on which the Timestamp is
 242:Drivers/STM32F4xx_HAL_Driver/Src/stm32f4xx_hal_rtc_ex.c ****   *         activated.
 243:Drivers/STM32F4xx_HAL_Driver/Src/stm32f4xx_hal_rtc_ex.c ****   *          This parameter can be one of the following values:
 244:Drivers/STM32F4xx_HAL_Driver/Src/stm32f4xx_hal_rtc_ex.c ****   *             @arg RTC_TIMESTAMPEDGE_RISING: the Timestamp event occurs on
 245:Drivers/STM32F4xx_HAL_Driver/Src/stm32f4xx_hal_rtc_ex.c ****   *                                        the rising edge of the related pin.
 246:Drivers/STM32F4xx_HAL_Driver/Src/stm32f4xx_hal_rtc_ex.c ****   *             @arg RTC_TIMESTAMPEDGE_FALLING: the Timestamp event occurs on
 247:Drivers/STM32F4xx_HAL_Driver/Src/stm32f4xx_hal_rtc_ex.c ****   *                                        the falling edge of the related pin.
 248:Drivers/STM32F4xx_HAL_Driver/Src/stm32f4xx_hal_rtc_ex.c ****   * @param  RTC_TimeStampPin Specifies the RTC Timestamp Pin.
 249:Drivers/STM32F4xx_HAL_Driver/Src/stm32f4xx_hal_rtc_ex.c ****   *          This parameter can be one of the following values:
 250:Drivers/STM32F4xx_HAL_Driver/Src/stm32f4xx_hal_rtc_ex.c ****   *             @arg RTC_TIMESTAMPPIN_DEFAULT: PC13 is selected as RTC Timestamp Pin.
 251:Drivers/STM32F4xx_HAL_Driver/Src/stm32f4xx_hal_rtc_ex.c ****   *             @arg RTC_TIMESTAMPPIN_POS1: PI8 is selected as RTC Timestamp Pin.
 252:Drivers/STM32F4xx_HAL_Driver/Src/stm32f4xx_hal_rtc_ex.c ****   * @note RTC_TIMESTAMPPIN_POS1 corresponds to pin PA0 in the case of
 253:Drivers/STM32F4xx_HAL_Driver/Src/stm32f4xx_hal_rtc_ex.c ****   *       STM32F446xx devices.
 254:Drivers/STM32F4xx_HAL_Driver/Src/stm32f4xx_hal_rtc_ex.c ****   * @note RTC_TIMESTAMPPIN_POS1 is not applicable to the following list of devices:
 255:Drivers/STM32F4xx_HAL_Driver/Src/stm32f4xx_hal_rtc_ex.c ****   *       STM32F412xx, STM32F413xx and STM32F423xx.
 256:Drivers/STM32F4xx_HAL_Driver/Src/stm32f4xx_hal_rtc_ex.c ****   * @retval HAL status
 257:Drivers/STM32F4xx_HAL_Driver/Src/stm32f4xx_hal_rtc_ex.c ****   */
 258:Drivers/STM32F4xx_HAL_Driver/Src/stm32f4xx_hal_rtc_ex.c **** HAL_StatusTypeDef HAL_RTCEx_SetTimeStamp_IT(RTC_HandleTypeDef *hrtc, uint32_t RTC_TimeStampEdge, ui
 259:Drivers/STM32F4xx_HAL_Driver/Src/stm32f4xx_hal_rtc_ex.c **** {
 154              		.loc 1 259 1 is_stmt 1 view -0
 155              		.cfi_startproc
 156              		@ args = 0, pretend = 0, frame = 0
 157              		@ frame_needed = 0, uses_anonymous_args = 0
 260:Drivers/STM32F4xx_HAL_Driver/Src/stm32f4xx_hal_rtc_ex.c ****   uint32_t tmpreg = 0U;
 158              		.loc 1 260 3 view .LVU55
 261:Drivers/STM32F4xx_HAL_Driver/Src/stm32f4xx_hal_rtc_ex.c **** 
 262:Drivers/STM32F4xx_HAL_Driver/Src/stm32f4xx_hal_rtc_ex.c ****   /* Check the parameters */
 263:Drivers/STM32F4xx_HAL_Driver/Src/stm32f4xx_hal_rtc_ex.c ****   assert_param(IS_TIMESTAMP_EDGE(RTC_TimeStampEdge));
 159              		.loc 1 263 3 view .LVU56
 264:Drivers/STM32F4xx_HAL_Driver/Src/stm32f4xx_hal_rtc_ex.c ****   assert_param(IS_RTC_TIMESTAMP_PIN(RTC_TimeStampPin));
 160              		.loc 1 264 3 view .LVU57
 265:Drivers/STM32F4xx_HAL_Driver/Src/stm32f4xx_hal_rtc_ex.c **** 
 266:Drivers/STM32F4xx_HAL_Driver/Src/stm32f4xx_hal_rtc_ex.c ****   /* Process Locked */
 267:Drivers/STM32F4xx_HAL_Driver/Src/stm32f4xx_hal_rtc_ex.c ****   __HAL_LOCK(hrtc);
 161              		.loc 1 267 3 view .LVU58
 162              		.loc 1 267 3 view .LVU59
 163 0000 037F     		ldrb	r3, [r0, #28]	@ zero_extendqisi2
 164 0002 012B     		cmp	r3, #1
 165 0004 3ED0     		beq	.L7
 166              		.loc 1 267 3 discriminator 2 view .LVU60
 167              		.loc 1 267 3 discriminator 2 view .LVU61
 268:Drivers/STM32F4xx_HAL_Driver/Src/stm32f4xx_hal_rtc_ex.c **** 
 269:Drivers/STM32F4xx_HAL_Driver/Src/stm32f4xx_hal_rtc_ex.c ****   /* Change RTC state to BUSY */
 270:Drivers/STM32F4xx_HAL_Driver/Src/stm32f4xx_hal_rtc_ex.c ****   hrtc->State = HAL_RTC_STATE_BUSY;
 168              		.loc 1 270 3 view .LVU62
 169 0006 8446     		mov	ip, r0
 271:Drivers/STM32F4xx_HAL_Driver/Src/stm32f4xx_hal_rtc_ex.c **** 
 272:Drivers/STM32F4xx_HAL_Driver/Src/stm32f4xx_hal_rtc_ex.c ****   hrtc->Instance->TAFCR &= (uint32_t)~RTC_TAFCR_TSINSEL;
 170              		.loc 1 272 7 is_stmt 0 view .LVU63
 171 0008 0368     		ldr	r3, [r0]
 270:Drivers/STM32F4xx_HAL_Driver/Src/stm32f4xx_hal_rtc_ex.c **** 
 172              		.loc 1 270 15 view .LVU64
 173 000a 0220     		movs	r0, #2
ARM GAS  C:\Users\Konrad\AppData\Local\Temp\ccbXyGXO.s 			page 9


 174              	.LVL11:
 259:Drivers/STM32F4xx_HAL_Driver/Src/stm32f4xx_hal_rtc_ex.c ****   uint32_t tmpreg = 0U;
 175              		.loc 1 259 1 view .LVU65
 176 000c 00B5     		push	{lr}
 177              		.cfi_def_cfa_offset 4
 178              		.cfi_offset 14, -4
 270:Drivers/STM32F4xx_HAL_Driver/Src/stm32f4xx_hal_rtc_ex.c **** 
 179              		.loc 1 270 15 view .LVU66
 180 000e 8CF81D00 		strb	r0, [ip, #29]
 181              		.loc 1 272 3 is_stmt 1 view .LVU67
 182              		.loc 1 272 17 is_stmt 0 view .LVU68
 183 0012 186C     		ldr	r0, [r3, #64]
 184              		.loc 1 272 25 view .LVU69
 185 0014 20F40030 		bic	r0, r0, #131072
 186 0018 1864     		str	r0, [r3, #64]
 273:Drivers/STM32F4xx_HAL_Driver/Src/stm32f4xx_hal_rtc_ex.c ****   hrtc->Instance->TAFCR |= (uint32_t)(RTC_TimeStampPin);
 187              		.loc 1 273 3 is_stmt 1 view .LVU70
 188              		.loc 1 273 17 is_stmt 0 view .LVU71
 189 001a 186C     		ldr	r0, [r3, #64]
 190              		.loc 1 273 25 view .LVU72
 191 001c 0243     		orrs	r2, r2, r0
 192              	.LVL12:
 193              		.loc 1 273 25 view .LVU73
 194 001e 1A64     		str	r2, [r3, #64]
 274:Drivers/STM32F4xx_HAL_Driver/Src/stm32f4xx_hal_rtc_ex.c **** 
 275:Drivers/STM32F4xx_HAL_Driver/Src/stm32f4xx_hal_rtc_ex.c ****   /* Get the RTC_CR register and clear the bits to be configured */
 276:Drivers/STM32F4xx_HAL_Driver/Src/stm32f4xx_hal_rtc_ex.c ****   tmpreg = (uint32_t)(hrtc->Instance->CR & (uint32_t)~(RTC_CR_TSEDGE | RTC_CR_TSE));
 195              		.loc 1 276 3 is_stmt 1 view .LVU74
 196              		.loc 1 276 37 is_stmt 0 view .LVU75
 197 0020 9A68     		ldr	r2, [r3, #8]
 198              		.loc 1 276 10 view .LVU76
 199 0022 22F40062 		bic	r2, r2, #2048
 200 0026 22F00802 		bic	r2, r2, #8
 201              	.LVL13:
 277:Drivers/STM32F4xx_HAL_Driver/Src/stm32f4xx_hal_rtc_ex.c **** 
 278:Drivers/STM32F4xx_HAL_Driver/Src/stm32f4xx_hal_rtc_ex.c ****   /* Configure the Timestamp TSEDGE bit */
 279:Drivers/STM32F4xx_HAL_Driver/Src/stm32f4xx_hal_rtc_ex.c ****   tmpreg |= RTC_TimeStampEdge;
 202              		.loc 1 279 3 is_stmt 1 view .LVU77
 203              		.loc 1 279 10 is_stmt 0 view .LVU78
 204 002a 0A43     		orrs	r2, r2, r1
 205              	.LVL14:
 280:Drivers/STM32F4xx_HAL_Driver/Src/stm32f4xx_hal_rtc_ex.c **** 
 281:Drivers/STM32F4xx_HAL_Driver/Src/stm32f4xx_hal_rtc_ex.c ****   /* Disable the write protection for RTC registers */
 282:Drivers/STM32F4xx_HAL_Driver/Src/stm32f4xx_hal_rtc_ex.c ****   __HAL_RTC_WRITEPROTECTION_DISABLE(hrtc);
 206              		.loc 1 282 3 is_stmt 1 view .LVU79
 207              		.loc 1 282 3 view .LVU80
 208 002c CA20     		movs	r0, #202
 209 002e 5321     		movs	r1, #83
 210              	.LVL15:
 211              		.loc 1 282 3 is_stmt 0 view .LVU81
 212 0030 5862     		str	r0, [r3, #36]
 213              		.loc 1 282 3 is_stmt 1 view .LVU82
 214 0032 5962     		str	r1, [r3, #36]
 215              		.loc 1 282 3 view .LVU83
 283:Drivers/STM32F4xx_HAL_Driver/Src/stm32f4xx_hal_rtc_ex.c **** 
 284:Drivers/STM32F4xx_HAL_Driver/Src/stm32f4xx_hal_rtc_ex.c ****   /* Copy the desired configuration into the CR register */
 285:Drivers/STM32F4xx_HAL_Driver/Src/stm32f4xx_hal_rtc_ex.c ****   hrtc->Instance->CR = (uint32_t)tmpreg;
ARM GAS  C:\Users\Konrad\AppData\Local\Temp\ccbXyGXO.s 			page 10


 216              		.loc 1 285 3 view .LVU84
 217              		.loc 1 285 22 is_stmt 0 view .LVU85
 218 0034 9A60     		str	r2, [r3, #8]
 286:Drivers/STM32F4xx_HAL_Driver/Src/stm32f4xx_hal_rtc_ex.c **** 
 287:Drivers/STM32F4xx_HAL_Driver/Src/stm32f4xx_hal_rtc_ex.c ****   /* Clear RTC Timestamp flag */
 288:Drivers/STM32F4xx_HAL_Driver/Src/stm32f4xx_hal_rtc_ex.c ****   __HAL_RTC_TIMESTAMP_CLEAR_FLAG(hrtc, RTC_FLAG_TSF);
 219              		.loc 1 288 3 is_stmt 1 view .LVU86
 220 0036 DA68     		ldr	r2, [r3, #12]
 221              	.LVL16:
 289:Drivers/STM32F4xx_HAL_Driver/Src/stm32f4xx_hal_rtc_ex.c **** 
 290:Drivers/STM32F4xx_HAL_Driver/Src/stm32f4xx_hal_rtc_ex.c ****   /* Clear RTC Timestamp overrun Flag */
 291:Drivers/STM32F4xx_HAL_Driver/Src/stm32f4xx_hal_rtc_ex.c ****   __HAL_RTC_TIMESTAMP_CLEAR_FLAG(hrtc, RTC_FLAG_TSOVF);
 292:Drivers/STM32F4xx_HAL_Driver/Src/stm32f4xx_hal_rtc_ex.c **** 
 293:Drivers/STM32F4xx_HAL_Driver/Src/stm32f4xx_hal_rtc_ex.c ****   /* Enable the Timestamp saving */
 294:Drivers/STM32F4xx_HAL_Driver/Src/stm32f4xx_hal_rtc_ex.c ****   __HAL_RTC_TIMESTAMP_ENABLE(hrtc);
 295:Drivers/STM32F4xx_HAL_Driver/Src/stm32f4xx_hal_rtc_ex.c **** 
 296:Drivers/STM32F4xx_HAL_Driver/Src/stm32f4xx_hal_rtc_ex.c ****   /* Enable IT Timestamp */
 297:Drivers/STM32F4xx_HAL_Driver/Src/stm32f4xx_hal_rtc_ex.c ****   __HAL_RTC_TIMESTAMP_ENABLE_IT(hrtc, RTC_IT_TS);
 298:Drivers/STM32F4xx_HAL_Driver/Src/stm32f4xx_hal_rtc_ex.c **** 
 299:Drivers/STM32F4xx_HAL_Driver/Src/stm32f4xx_hal_rtc_ex.c ****   /* Enable the write protection for RTC registers */
 300:Drivers/STM32F4xx_HAL_Driver/Src/stm32f4xx_hal_rtc_ex.c ****   __HAL_RTC_WRITEPROTECTION_ENABLE(hrtc);
 301:Drivers/STM32F4xx_HAL_Driver/Src/stm32f4xx_hal_rtc_ex.c **** 
 302:Drivers/STM32F4xx_HAL_Driver/Src/stm32f4xx_hal_rtc_ex.c ****   /* RTC Timestamp Interrupt Configuration: EXTI configuration */
 303:Drivers/STM32F4xx_HAL_Driver/Src/stm32f4xx_hal_rtc_ex.c ****   __HAL_RTC_TAMPER_TIMESTAMP_EXTI_ENABLE_IT();
 222              		.loc 1 303 3 is_stmt 0 view .LVU87
 223 0038 1349     		ldr	r1, .L12
 288:Drivers/STM32F4xx_HAL_Driver/Src/stm32f4xx_hal_rtc_ex.c **** 
 224              		.loc 1 288 3 view .LVU88
 225 003a D2B2     		uxtb	r2, r2
 226 003c 62F40862 		orn	r2, r2, #2176
 227 0040 DA60     		str	r2, [r3, #12]
 228              	.LVL17:
 291:Drivers/STM32F4xx_HAL_Driver/Src/stm32f4xx_hal_rtc_ex.c **** 
 229              		.loc 1 291 3 is_stmt 1 view .LVU89
 230 0042 DA68     		ldr	r2, [r3, #12]
 231 0044 D2B2     		uxtb	r2, r2
 232 0046 62F48452 		orn	r2, r2, #4224
 233 004a DA60     		str	r2, [r3, #12]
 294:Drivers/STM32F4xx_HAL_Driver/Src/stm32f4xx_hal_rtc_ex.c **** 
 234              		.loc 1 294 3 view .LVU90
 235 004c 9A68     		ldr	r2, [r3, #8]
 236 004e 42F40062 		orr	r2, r2, #2048
 237 0052 9A60     		str	r2, [r3, #8]
 297:Drivers/STM32F4xx_HAL_Driver/Src/stm32f4xx_hal_rtc_ex.c **** 
 238              		.loc 1 297 3 view .LVU91
 239 0054 9A68     		ldr	r2, [r3, #8]
 300:Drivers/STM32F4xx_HAL_Driver/Src/stm32f4xx_hal_rtc_ex.c **** 
 240              		.loc 1 300 3 is_stmt 0 view .LVU92
 241 0056 FF20     		movs	r0, #255
 297:Drivers/STM32F4xx_HAL_Driver/Src/stm32f4xx_hal_rtc_ex.c **** 
 242              		.loc 1 297 3 view .LVU93
 243 0058 42F40042 		orr	r2, r2, #32768
 244 005c 9A60     		str	r2, [r3, #8]
 300:Drivers/STM32F4xx_HAL_Driver/Src/stm32f4xx_hal_rtc_ex.c **** 
 245              		.loc 1 300 3 is_stmt 1 view .LVU94
 300:Drivers/STM32F4xx_HAL_Driver/Src/stm32f4xx_hal_rtc_ex.c **** 
 246              		.loc 1 300 3 view .LVU95
ARM GAS  C:\Users\Konrad\AppData\Local\Temp\ccbXyGXO.s 			page 11


 247 005e 5862     		str	r0, [r3, #36]
 300:Drivers/STM32F4xx_HAL_Driver/Src/stm32f4xx_hal_rtc_ex.c **** 
 248              		.loc 1 300 3 view .LVU96
 249              		.loc 1 303 3 view .LVU97
 250 0060 0B68     		ldr	r3, [r1]
 251 0062 43F40013 		orr	r3, r3, #2097152
 252 0066 0B60     		str	r3, [r1]
 304:Drivers/STM32F4xx_HAL_Driver/Src/stm32f4xx_hal_rtc_ex.c ****   __HAL_RTC_TAMPER_TIMESTAMP_EXTI_ENABLE_RISING_EDGE();
 253              		.loc 1 304 3 view .LVU98
 254 0068 8B68     		ldr	r3, [r1, #8]
 305:Drivers/STM32F4xx_HAL_Driver/Src/stm32f4xx_hal_rtc_ex.c **** 
 306:Drivers/STM32F4xx_HAL_Driver/Src/stm32f4xx_hal_rtc_ex.c ****   /* Change RTC state back to READY */
 307:Drivers/STM32F4xx_HAL_Driver/Src/stm32f4xx_hal_rtc_ex.c ****   hrtc->State = HAL_RTC_STATE_READY;
 308:Drivers/STM32F4xx_HAL_Driver/Src/stm32f4xx_hal_rtc_ex.c **** 
 309:Drivers/STM32F4xx_HAL_Driver/Src/stm32f4xx_hal_rtc_ex.c ****   /* Process Unlocked */
 310:Drivers/STM32F4xx_HAL_Driver/Src/stm32f4xx_hal_rtc_ex.c ****   __HAL_UNLOCK(hrtc);
 255              		.loc 1 310 3 is_stmt 0 view .LVU99
 256 006a 0022     		movs	r2, #0
 307:Drivers/STM32F4xx_HAL_Driver/Src/stm32f4xx_hal_rtc_ex.c **** 
 257              		.loc 1 307 15 view .LVU100
 258 006c 4FF0010E 		mov	lr, #1
 304:Drivers/STM32F4xx_HAL_Driver/Src/stm32f4xx_hal_rtc_ex.c ****   __HAL_RTC_TAMPER_TIMESTAMP_EXTI_ENABLE_RISING_EDGE();
 259              		.loc 1 304 3 view .LVU101
 260 0070 43F40013 		orr	r3, r3, #2097152
 261 0074 8B60     		str	r3, [r1, #8]
 307:Drivers/STM32F4xx_HAL_Driver/Src/stm32f4xx_hal_rtc_ex.c **** 
 262              		.loc 1 307 3 is_stmt 1 view .LVU102
 307:Drivers/STM32F4xx_HAL_Driver/Src/stm32f4xx_hal_rtc_ex.c **** 
 263              		.loc 1 307 15 is_stmt 0 view .LVU103
 264 0076 8CF81DE0 		strb	lr, [ip, #29]
 265              		.loc 1 310 3 is_stmt 1 view .LVU104
 266              		.loc 1 310 3 view .LVU105
 267 007a 8CF81C20 		strb	r2, [ip, #28]
 268              		.loc 1 310 3 view .LVU106
 311:Drivers/STM32F4xx_HAL_Driver/Src/stm32f4xx_hal_rtc_ex.c **** 
 312:Drivers/STM32F4xx_HAL_Driver/Src/stm32f4xx_hal_rtc_ex.c ****   return HAL_OK;
 269              		.loc 1 312 3 view .LVU107
 270              		.loc 1 312 10 is_stmt 0 view .LVU108
 271 007e 1046     		mov	r0, r2
 313:Drivers/STM32F4xx_HAL_Driver/Src/stm32f4xx_hal_rtc_ex.c **** }
 272              		.loc 1 313 1 view .LVU109
 273 0080 5DF804FB 		ldr	pc, [sp], #4
 274              	.LVL18:
 275              	.L7:
 276              		.cfi_def_cfa_offset 0
 277              		.cfi_restore 14
 267:Drivers/STM32F4xx_HAL_Driver/Src/stm32f4xx_hal_rtc_ex.c **** 
 278              		.loc 1 267 3 discriminator 1 view .LVU110
 279 0084 0220     		movs	r0, #2
 280              	.LVL19:
 281              		.loc 1 313 1 view .LVU111
 282 0086 7047     		bx	lr
 283              	.L13:
 284              		.align	2
 285              	.L12:
 286 0088 003C0140 		.word	1073822720
 287              		.cfi_endproc
ARM GAS  C:\Users\Konrad\AppData\Local\Temp\ccbXyGXO.s 			page 12


 288              	.LFE217:
 290              		.section	.text.HAL_RTCEx_DeactivateTimeStamp,"ax",%progbits
 291              		.align	1
 292              		.p2align 2,,3
 293              		.global	HAL_RTCEx_DeactivateTimeStamp
 294              		.syntax unified
 295              		.thumb
 296              		.thumb_func
 298              	HAL_RTCEx_DeactivateTimeStamp:
 299              	.LVL20:
 300              	.LFB218:
 314:Drivers/STM32F4xx_HAL_Driver/Src/stm32f4xx_hal_rtc_ex.c **** 
 315:Drivers/STM32F4xx_HAL_Driver/Src/stm32f4xx_hal_rtc_ex.c **** /**
 316:Drivers/STM32F4xx_HAL_Driver/Src/stm32f4xx_hal_rtc_ex.c ****   * @brief  Deactivates Timestamp.
 317:Drivers/STM32F4xx_HAL_Driver/Src/stm32f4xx_hal_rtc_ex.c ****   * @param  hrtc pointer to a RTC_HandleTypeDef structure that contains
 318:Drivers/STM32F4xx_HAL_Driver/Src/stm32f4xx_hal_rtc_ex.c ****   *                the configuration information for RTC.
 319:Drivers/STM32F4xx_HAL_Driver/Src/stm32f4xx_hal_rtc_ex.c ****   * @retval HAL status
 320:Drivers/STM32F4xx_HAL_Driver/Src/stm32f4xx_hal_rtc_ex.c ****   */
 321:Drivers/STM32F4xx_HAL_Driver/Src/stm32f4xx_hal_rtc_ex.c **** HAL_StatusTypeDef HAL_RTCEx_DeactivateTimeStamp(RTC_HandleTypeDef *hrtc)
 322:Drivers/STM32F4xx_HAL_Driver/Src/stm32f4xx_hal_rtc_ex.c **** {
 301              		.loc 1 322 1 is_stmt 1 view -0
 302              		.cfi_startproc
 303              		@ args = 0, pretend = 0, frame = 0
 304              		@ frame_needed = 0, uses_anonymous_args = 0
 305              		@ link register save eliminated.
 323:Drivers/STM32F4xx_HAL_Driver/Src/stm32f4xx_hal_rtc_ex.c ****   uint32_t tmpreg = 0U;
 306              		.loc 1 323 3 view .LVU113
 324:Drivers/STM32F4xx_HAL_Driver/Src/stm32f4xx_hal_rtc_ex.c **** 
 325:Drivers/STM32F4xx_HAL_Driver/Src/stm32f4xx_hal_rtc_ex.c ****   /* Process Locked */
 326:Drivers/STM32F4xx_HAL_Driver/Src/stm32f4xx_hal_rtc_ex.c ****   __HAL_LOCK(hrtc);
 307              		.loc 1 326 3 view .LVU114
 308              		.loc 1 326 3 view .LVU115
 309 0000 037F     		ldrb	r3, [r0, #28]	@ zero_extendqisi2
 310 0002 012B     		cmp	r3, #1
 311 0004 1BD0     		beq	.L16
 312              		.loc 1 326 3 discriminator 2 view .LVU116
 313              		.loc 1 326 3 discriminator 2 view .LVU117
 327:Drivers/STM32F4xx_HAL_Driver/Src/stm32f4xx_hal_rtc_ex.c **** 
 328:Drivers/STM32F4xx_HAL_Driver/Src/stm32f4xx_hal_rtc_ex.c ****   hrtc->State = HAL_RTC_STATE_BUSY;
 314              		.loc 1 328 3 view .LVU118
 329:Drivers/STM32F4xx_HAL_Driver/Src/stm32f4xx_hal_rtc_ex.c **** 
 330:Drivers/STM32F4xx_HAL_Driver/Src/stm32f4xx_hal_rtc_ex.c ****   /* Disable the write protection for RTC registers */
 331:Drivers/STM32F4xx_HAL_Driver/Src/stm32f4xx_hal_rtc_ex.c ****   __HAL_RTC_WRITEPROTECTION_DISABLE(hrtc);
 315              		.loc 1 331 3 is_stmt 0 view .LVU119
 316 0006 0368     		ldr	r3, [r0]
 322:Drivers/STM32F4xx_HAL_Driver/Src/stm32f4xx_hal_rtc_ex.c ****   uint32_t tmpreg = 0U;
 317              		.loc 1 322 1 view .LVU120
 318 0008 10B4     		push	{r4}
 319              		.cfi_def_cfa_offset 4
 320              		.cfi_offset 4, -4
 321              		.loc 1 331 3 view .LVU121
 322 000a CA21     		movs	r1, #202
 328:Drivers/STM32F4xx_HAL_Driver/Src/stm32f4xx_hal_rtc_ex.c **** 
 323              		.loc 1 328 15 view .LVU122
 324 000c 0224     		movs	r4, #2
 325              		.loc 1 331 3 view .LVU123
 326 000e 5322     		movs	r2, #83
ARM GAS  C:\Users\Konrad\AppData\Local\Temp\ccbXyGXO.s 			page 13


 328:Drivers/STM32F4xx_HAL_Driver/Src/stm32f4xx_hal_rtc_ex.c **** 
 327              		.loc 1 328 15 view .LVU124
 328 0010 4477     		strb	r4, [r0, #29]
 329              		.loc 1 331 3 is_stmt 1 view .LVU125
 330              		.loc 1 331 3 view .LVU126
 331 0012 5962     		str	r1, [r3, #36]
 332              		.loc 1 331 3 view .LVU127
 333 0014 5A62     		str	r2, [r3, #36]
 334              		.loc 1 331 3 view .LVU128
 332:Drivers/STM32F4xx_HAL_Driver/Src/stm32f4xx_hal_rtc_ex.c **** 
 333:Drivers/STM32F4xx_HAL_Driver/Src/stm32f4xx_hal_rtc_ex.c ****   /* In case of interrupt mode is used, the interrupt source must disabled */
 334:Drivers/STM32F4xx_HAL_Driver/Src/stm32f4xx_hal_rtc_ex.c ****   __HAL_RTC_TIMESTAMP_DISABLE_IT(hrtc, RTC_IT_TS);
 335              		.loc 1 334 3 view .LVU129
 336 0016 9A68     		ldr	r2, [r3, #8]
 337 0018 22F40042 		bic	r2, r2, #32768
 338 001c 9A60     		str	r2, [r3, #8]
 335:Drivers/STM32F4xx_HAL_Driver/Src/stm32f4xx_hal_rtc_ex.c **** 
 336:Drivers/STM32F4xx_HAL_Driver/Src/stm32f4xx_hal_rtc_ex.c ****   /* Get the RTC_CR register and clear the bits to be configured */
 337:Drivers/STM32F4xx_HAL_Driver/Src/stm32f4xx_hal_rtc_ex.c ****   tmpreg = (uint32_t)(hrtc->Instance->CR & (uint32_t)~(RTC_CR_TSEDGE | RTC_CR_TSE));
 339              		.loc 1 337 3 view .LVU130
 340              		.loc 1 337 37 is_stmt 0 view .LVU131
 341 001e 9A68     		ldr	r2, [r3, #8]
 342              		.loc 1 337 10 view .LVU132
 343 0020 22F40062 		bic	r2, r2, #2048
 338:Drivers/STM32F4xx_HAL_Driver/Src/stm32f4xx_hal_rtc_ex.c **** 
 339:Drivers/STM32F4xx_HAL_Driver/Src/stm32f4xx_hal_rtc_ex.c ****   /* Configure the Timestamp TSEDGE and Enable bits */
 340:Drivers/STM32F4xx_HAL_Driver/Src/stm32f4xx_hal_rtc_ex.c ****   hrtc->Instance->CR = (uint32_t)tmpreg;
 341:Drivers/STM32F4xx_HAL_Driver/Src/stm32f4xx_hal_rtc_ex.c **** 
 342:Drivers/STM32F4xx_HAL_Driver/Src/stm32f4xx_hal_rtc_ex.c ****   /* Enable the write protection for RTC registers */
 343:Drivers/STM32F4xx_HAL_Driver/Src/stm32f4xx_hal_rtc_ex.c ****   __HAL_RTC_WRITEPROTECTION_ENABLE(hrtc);
 344              		.loc 1 343 3 view .LVU133
 345 0024 FF24     		movs	r4, #255
 337:Drivers/STM32F4xx_HAL_Driver/Src/stm32f4xx_hal_rtc_ex.c **** 
 346              		.loc 1 337 10 view .LVU134
 347 0026 22F00802 		bic	r2, r2, #8
 348              	.LVL21:
 340:Drivers/STM32F4xx_HAL_Driver/Src/stm32f4xx_hal_rtc_ex.c **** 
 349              		.loc 1 340 3 is_stmt 1 view .LVU135
 340:Drivers/STM32F4xx_HAL_Driver/Src/stm32f4xx_hal_rtc_ex.c **** 
 350              		.loc 1 340 22 is_stmt 0 view .LVU136
 351 002a 9A60     		str	r2, [r3, #8]
 352              		.loc 1 343 3 is_stmt 1 view .LVU137
 353              		.loc 1 343 3 view .LVU138
 344:Drivers/STM32F4xx_HAL_Driver/Src/stm32f4xx_hal_rtc_ex.c **** 
 345:Drivers/STM32F4xx_HAL_Driver/Src/stm32f4xx_hal_rtc_ex.c ****   hrtc->State = HAL_RTC_STATE_READY;
 346:Drivers/STM32F4xx_HAL_Driver/Src/stm32f4xx_hal_rtc_ex.c **** 
 347:Drivers/STM32F4xx_HAL_Driver/Src/stm32f4xx_hal_rtc_ex.c ****   /* Process Unlocked */
 348:Drivers/STM32F4xx_HAL_Driver/Src/stm32f4xx_hal_rtc_ex.c ****   __HAL_UNLOCK(hrtc);
 354              		.loc 1 348 3 is_stmt 0 view .LVU139
 355 002c 0021     		movs	r1, #0
 343:Drivers/STM32F4xx_HAL_Driver/Src/stm32f4xx_hal_rtc_ex.c **** 
 356              		.loc 1 343 3 view .LVU140
 357 002e 5C62     		str	r4, [r3, #36]
 343:Drivers/STM32F4xx_HAL_Driver/Src/stm32f4xx_hal_rtc_ex.c **** 
 358              		.loc 1 343 3 is_stmt 1 view .LVU141
 345:Drivers/STM32F4xx_HAL_Driver/Src/stm32f4xx_hal_rtc_ex.c **** 
 359              		.loc 1 345 3 view .LVU142
ARM GAS  C:\Users\Konrad\AppData\Local\Temp\ccbXyGXO.s 			page 14


 345:Drivers/STM32F4xx_HAL_Driver/Src/stm32f4xx_hal_rtc_ex.c **** 
 360              		.loc 1 345 15 is_stmt 0 view .LVU143
 361 0030 0123     		movs	r3, #1
 362 0032 4377     		strb	r3, [r0, #29]
 363              		.loc 1 348 3 is_stmt 1 view .LVU144
 364              		.loc 1 348 3 view .LVU145
 365 0034 0177     		strb	r1, [r0, #28]
 366              		.loc 1 348 3 view .LVU146
 349:Drivers/STM32F4xx_HAL_Driver/Src/stm32f4xx_hal_rtc_ex.c **** 
 350:Drivers/STM32F4xx_HAL_Driver/Src/stm32f4xx_hal_rtc_ex.c ****   return HAL_OK;
 367              		.loc 1 350 3 view .LVU147
 351:Drivers/STM32F4xx_HAL_Driver/Src/stm32f4xx_hal_rtc_ex.c **** }
 368              		.loc 1 351 1 is_stmt 0 view .LVU148
 369 0036 5DF8044B 		ldr	r4, [sp], #4
 370              		.cfi_restore 4
 371              		.cfi_def_cfa_offset 0
 350:Drivers/STM32F4xx_HAL_Driver/Src/stm32f4xx_hal_rtc_ex.c **** }
 372              		.loc 1 350 10 view .LVU149
 373 003a 0846     		mov	r0, r1
 374              	.LVL22:
 375              		.loc 1 351 1 view .LVU150
 376 003c 7047     		bx	lr
 377              	.LVL23:
 378              	.L16:
 326:Drivers/STM32F4xx_HAL_Driver/Src/stm32f4xx_hal_rtc_ex.c **** 
 379              		.loc 1 326 3 discriminator 1 view .LVU151
 380 003e 0220     		movs	r0, #2
 381              	.LVL24:
 382              		.loc 1 351 1 view .LVU152
 383 0040 7047     		bx	lr
 384              		.cfi_endproc
 385              	.LFE218:
 387 0042 00BF     		.section	.text.HAL_RTCEx_GetTimeStamp,"ax",%progbits
 388              		.align	1
 389              		.p2align 2,,3
 390              		.global	HAL_RTCEx_GetTimeStamp
 391              		.syntax unified
 392              		.thumb
 393              		.thumb_func
 395              	HAL_RTCEx_GetTimeStamp:
 396              	.LVL25:
 397              	.LFB219:
 352:Drivers/STM32F4xx_HAL_Driver/Src/stm32f4xx_hal_rtc_ex.c **** 
 353:Drivers/STM32F4xx_HAL_Driver/Src/stm32f4xx_hal_rtc_ex.c **** /**
 354:Drivers/STM32F4xx_HAL_Driver/Src/stm32f4xx_hal_rtc_ex.c ****   * @brief  Gets the RTC Timestamp value.
 355:Drivers/STM32F4xx_HAL_Driver/Src/stm32f4xx_hal_rtc_ex.c ****   * @param  hrtc pointer to a RTC_HandleTypeDef structure that contains
 356:Drivers/STM32F4xx_HAL_Driver/Src/stm32f4xx_hal_rtc_ex.c ****   *                the configuration information for RTC.
 357:Drivers/STM32F4xx_HAL_Driver/Src/stm32f4xx_hal_rtc_ex.c ****   * @param  sTimeStamp Pointer to Time structure
 358:Drivers/STM32F4xx_HAL_Driver/Src/stm32f4xx_hal_rtc_ex.c ****   * @param  sTimeStampDate Pointer to Date structure
 359:Drivers/STM32F4xx_HAL_Driver/Src/stm32f4xx_hal_rtc_ex.c ****   * @param  Format specifies the format of the entered parameters.
 360:Drivers/STM32F4xx_HAL_Driver/Src/stm32f4xx_hal_rtc_ex.c ****   *          This parameter can be one of the following values:
 361:Drivers/STM32F4xx_HAL_Driver/Src/stm32f4xx_hal_rtc_ex.c ****   *             @arg RTC_FORMAT_BIN: Binary data format
 362:Drivers/STM32F4xx_HAL_Driver/Src/stm32f4xx_hal_rtc_ex.c ****   *             @arg RTC_FORMAT_BCD: BCD data format
 363:Drivers/STM32F4xx_HAL_Driver/Src/stm32f4xx_hal_rtc_ex.c ****   * @retval HAL status
 364:Drivers/STM32F4xx_HAL_Driver/Src/stm32f4xx_hal_rtc_ex.c ****   */
 365:Drivers/STM32F4xx_HAL_Driver/Src/stm32f4xx_hal_rtc_ex.c **** HAL_StatusTypeDef HAL_RTCEx_GetTimeStamp(RTC_HandleTypeDef *hrtc, RTC_TimeTypeDef *sTimeStamp, RTC_
 366:Drivers/STM32F4xx_HAL_Driver/Src/stm32f4xx_hal_rtc_ex.c **** {
ARM GAS  C:\Users\Konrad\AppData\Local\Temp\ccbXyGXO.s 			page 15


 398              		.loc 1 366 1 is_stmt 1 view -0
 399              		.cfi_startproc
 400              		@ args = 0, pretend = 0, frame = 0
 401              		@ frame_needed = 0, uses_anonymous_args = 0
 367:Drivers/STM32F4xx_HAL_Driver/Src/stm32f4xx_hal_rtc_ex.c ****   uint32_t tmptime = 0U;
 402              		.loc 1 367 3 view .LVU154
 368:Drivers/STM32F4xx_HAL_Driver/Src/stm32f4xx_hal_rtc_ex.c ****   uint32_t tmpdate = 0U;
 403              		.loc 1 368 3 view .LVU155
 369:Drivers/STM32F4xx_HAL_Driver/Src/stm32f4xx_hal_rtc_ex.c **** 
 370:Drivers/STM32F4xx_HAL_Driver/Src/stm32f4xx_hal_rtc_ex.c ****   /* Check the parameters */
 371:Drivers/STM32F4xx_HAL_Driver/Src/stm32f4xx_hal_rtc_ex.c ****   assert_param(IS_RTC_FORMAT(Format));
 404              		.loc 1 371 3 view .LVU156
 372:Drivers/STM32F4xx_HAL_Driver/Src/stm32f4xx_hal_rtc_ex.c **** 
 373:Drivers/STM32F4xx_HAL_Driver/Src/stm32f4xx_hal_rtc_ex.c ****   /* Get the Timestamp time and date registers values */
 374:Drivers/STM32F4xx_HAL_Driver/Src/stm32f4xx_hal_rtc_ex.c ****   tmptime = (uint32_t)(hrtc->Instance->TSTR & RTC_TR_RESERVED_MASK);
 405              		.loc 1 374 3 view .LVU157
 366:Drivers/STM32F4xx_HAL_Driver/Src/stm32f4xx_hal_rtc_ex.c ****   uint32_t tmptime = 0U;
 406              		.loc 1 366 1 is_stmt 0 view .LVU158
 407 0000 F8B5     		push	{r3, r4, r5, r6, r7, lr}
 408              		.cfi_def_cfa_offset 24
 409              		.cfi_offset 3, -24
 410              		.cfi_offset 4, -20
 411              		.cfi_offset 5, -16
 412              		.cfi_offset 6, -12
 413              		.cfi_offset 7, -8
 414              		.cfi_offset 14, -4
 415              		.loc 1 374 28 view .LVU159
 416 0002 0668     		ldr	r6, [r0]
 366:Drivers/STM32F4xx_HAL_Driver/Src/stm32f4xx_hal_rtc_ex.c ****   uint32_t tmptime = 0U;
 417              		.loc 1 366 1 view .LVU160
 418 0004 0746     		mov	r7, r0
 419              		.loc 1 374 38 view .LVU161
 420 0006 306B     		ldr	r0, [r6, #48]
 421              	.LVL26:
 366:Drivers/STM32F4xx_HAL_Driver/Src/stm32f4xx_hal_rtc_ex.c ****   uint32_t tmptime = 0U;
 422              		.loc 1 366 1 view .LVU162
 423 0008 1446     		mov	r4, r2
 424              		.loc 1 374 11 view .LVU163
 425 000a 00F07F32 		and	r2, r0, #2139062143
 426              	.LVL27:
 366:Drivers/STM32F4xx_HAL_Driver/Src/stm32f4xx_hal_rtc_ex.c ****   uint32_t tmptime = 0U;
 427              		.loc 1 366 1 view .LVU164
 428 000e 0D46     		mov	r5, r1
 429              		.loc 1 374 11 view .LVU165
 430 0010 22F0FE42 		bic	r2, r2, #2130706432
 431              	.LVL28:
 375:Drivers/STM32F4xx_HAL_Driver/Src/stm32f4xx_hal_rtc_ex.c ****   tmpdate = (uint32_t)(hrtc->Instance->TSDR & RTC_DR_RESERVED_MASK);
 432              		.loc 1 375 3 is_stmt 1 view .LVU166
 376:Drivers/STM32F4xx_HAL_Driver/Src/stm32f4xx_hal_rtc_ex.c **** 
 377:Drivers/STM32F4xx_HAL_Driver/Src/stm32f4xx_hal_rtc_ex.c ****   /* Fill the Time structure fields with the read parameters */
 378:Drivers/STM32F4xx_HAL_Driver/Src/stm32f4xx_hal_rtc_ex.c ****   sTimeStamp->Hours      = (uint8_t)((tmptime & (RTC_TSTR_HT  | RTC_TSTR_HU))  >> RTC_TSTR_HU_Pos);
 433              		.loc 1 378 28 is_stmt 0 view .LVU167
 434 0014 C0F3054C 		ubfx	ip, r0, #16, #6
 435              		.loc 1 378 26 view .LVU168
 436 0018 0021     		movs	r1, #0
 437              	.LVL29:
 379:Drivers/STM32F4xx_HAL_Driver/Src/stm32f4xx_hal_rtc_ex.c ****   sTimeStamp->Minutes    = (uint8_t)((tmptime & (RTC_TSTR_MNT | RTC_TSTR_MNU)) >> RTC_TSTR_MNU_Pos)
ARM GAS  C:\Users\Konrad\AppData\Local\Temp\ccbXyGXO.s 			page 16


 438              		.loc 1 379 80 view .LVU169
 439 001a 100A     		lsrs	r0, r2, #8
 378:Drivers/STM32F4xx_HAL_Driver/Src/stm32f4xx_hal_rtc_ex.c ****   sTimeStamp->Minutes    = (uint8_t)((tmptime & (RTC_TSTR_MNT | RTC_TSTR_MNU)) >> RTC_TSTR_MNU_Pos)
 440              		.loc 1 378 26 view .LVU170
 441 001c 6CF30701 		bfi	r1, ip, #0, #8
 442 0020 60F30F21 		bfi	r1, r0, #8, #8
 443 0024 62F31741 		bfi	r1, r2, #16, #8
 375:Drivers/STM32F4xx_HAL_Driver/Src/stm32f4xx_hal_rtc_ex.c **** 
 444              		.loc 1 375 38 view .LVU171
 445 0028 706B     		ldr	r0, [r6, #52]
 380:Drivers/STM32F4xx_HAL_Driver/Src/stm32f4xx_hal_rtc_ex.c ****   sTimeStamp->Seconds    = (uint8_t)((tmptime & (RTC_TSTR_ST  | RTC_TSTR_SU))  >> RTC_TSTR_SU_Pos);
 381:Drivers/STM32F4xx_HAL_Driver/Src/stm32f4xx_hal_rtc_ex.c ****   sTimeStamp->TimeFormat = (uint8_t)((tmptime & (RTC_TSTR_PM))                 >> RTC_TSTR_PM_Pos);
 446              		.loc 1 381 80 view .LVU172
 447 002a 920D     		lsrs	r2, r2, #22
 448              	.LVL30:
 378:Drivers/STM32F4xx_HAL_Driver/Src/stm32f4xx_hal_rtc_ex.c ****   sTimeStamp->Minutes    = (uint8_t)((tmptime & (RTC_TSTR_MNT | RTC_TSTR_MNU)) >> RTC_TSTR_MNU_Pos)
 449              		.loc 1 378 26 view .LVU173
 450 002c 62F31F61 		bfi	r1, r2, #24, #8
 451 0030 2960     		str	r1, [r5]
 375:Drivers/STM32F4xx_HAL_Driver/Src/stm32f4xx_hal_rtc_ex.c **** 
 452              		.loc 1 375 11 view .LVU174
 453 0032 20F07F42 		bic	r2, r0, #-16777216
 454 0036 22F0C002 		bic	r2, r2, #192
 455              	.LVL31:
 378:Drivers/STM32F4xx_HAL_Driver/Src/stm32f4xx_hal_rtc_ex.c ****   sTimeStamp->Minutes    = (uint8_t)((tmptime & (RTC_TSTR_MNT | RTC_TSTR_MNU)) >> RTC_TSTR_MNU_Pos)
 456              		.loc 1 378 3 is_stmt 1 view .LVU175
 379:Drivers/STM32F4xx_HAL_Driver/Src/stm32f4xx_hal_rtc_ex.c ****   sTimeStamp->Seconds    = (uint8_t)((tmptime & (RTC_TSTR_ST  | RTC_TSTR_SU))  >> RTC_TSTR_SU_Pos);
 457              		.loc 1 379 3 view .LVU176
 380:Drivers/STM32F4xx_HAL_Driver/Src/stm32f4xx_hal_rtc_ex.c ****   sTimeStamp->Seconds    = (uint8_t)((tmptime & (RTC_TSTR_ST  | RTC_TSTR_SU))  >> RTC_TSTR_SU_Pos);
 458              		.loc 1 380 3 view .LVU177
 459              		.loc 1 381 3 view .LVU178
 382:Drivers/STM32F4xx_HAL_Driver/Src/stm32f4xx_hal_rtc_ex.c ****   sTimeStamp->SubSeconds = (uint32_t) hrtc->Instance->TSSSR;
 460              		.loc 1 382 3 view .LVU179
 383:Drivers/STM32F4xx_HAL_Driver/Src/stm32f4xx_hal_rtc_ex.c **** 
 384:Drivers/STM32F4xx_HAL_Driver/Src/stm32f4xx_hal_rtc_ex.c ****   /* Fill the Date structure fields with the read parameters */
 385:Drivers/STM32F4xx_HAL_Driver/Src/stm32f4xx_hal_rtc_ex.c ****   sTimeStampDate->Year    = 0U;
 386:Drivers/STM32F4xx_HAL_Driver/Src/stm32f4xx_hal_rtc_ex.c ****   sTimeStampDate->Month   = (uint8_t)((tmpdate & (RTC_TSDR_MT | RTC_TSDR_MU)) >> RTC_TSDR_MU_Pos);
 461              		.loc 1 386 29 is_stmt 0 view .LVU180
 462 003a C0F30421 		ubfx	r1, r0, #8, #5
 382:Drivers/STM32F4xx_HAL_Driver/Src/stm32f4xx_hal_rtc_ex.c ****   sTimeStamp->SubSeconds = (uint32_t) hrtc->Instance->TSSSR;
 463              		.loc 1 382 53 view .LVU181
 464 003e B06B     		ldr	r0, [r6, #56]
 382:Drivers/STM32F4xx_HAL_Driver/Src/stm32f4xx_hal_rtc_ex.c ****   sTimeStamp->SubSeconds = (uint32_t) hrtc->Instance->TSSSR;
 465              		.loc 1 382 26 view .LVU182
 466 0040 6860     		str	r0, [r5, #4]
 385:Drivers/STM32F4xx_HAL_Driver/Src/stm32f4xx_hal_rtc_ex.c ****   sTimeStampDate->Month   = (uint8_t)((tmpdate & (RTC_TSDR_MT | RTC_TSDR_MU)) >> RTC_TSDR_MU_Pos);
 467              		.loc 1 385 3 is_stmt 1 view .LVU183
 387:Drivers/STM32F4xx_HAL_Driver/Src/stm32f4xx_hal_rtc_ex.c ****   sTimeStampDate->Date    = (uint8_t)((tmpdate & (RTC_TSDR_DT | RTC_TSDR_DU)) >> RTC_TSDR_DU_Pos);
 468              		.loc 1 387 29 is_stmt 0 view .LVU184
 469 0042 A270     		strb	r2, [r4, #2]
 388:Drivers/STM32F4xx_HAL_Driver/Src/stm32f4xx_hal_rtc_ex.c ****   sTimeStampDate->WeekDay = (uint8_t)((tmpdate & (RTC_TSDR_WDU))              >> RTC_TSDR_WDU_Pos);
 470              		.loc 1 388 29 view .LVU185
 471 0044 C2F34232 		ubfx	r2, r2, #13, #3
 472              	.LVL32:
 473              		.loc 1 388 27 view .LVU186
 474 0048 2270     		strb	r2, [r4]
 385:Drivers/STM32F4xx_HAL_Driver/Src/stm32f4xx_hal_rtc_ex.c ****   sTimeStampDate->Month   = (uint8_t)((tmpdate & (RTC_TSDR_MT | RTC_TSDR_MU)) >> RTC_TSDR_MU_Pos);
ARM GAS  C:\Users\Konrad\AppData\Local\Temp\ccbXyGXO.s 			page 17


 475              		.loc 1 385 27 view .LVU187
 476 004a 0022     		movs	r2, #0
 386:Drivers/STM32F4xx_HAL_Driver/Src/stm32f4xx_hal_rtc_ex.c ****   sTimeStampDate->Date    = (uint8_t)((tmpdate & (RTC_TSDR_DT | RTC_TSDR_DU)) >> RTC_TSDR_DU_Pos);
 477              		.loc 1 386 27 view .LVU188
 478 004c 6170     		strb	r1, [r4, #1]
 385:Drivers/STM32F4xx_HAL_Driver/Src/stm32f4xx_hal_rtc_ex.c ****   sTimeStampDate->Month   = (uint8_t)((tmpdate & (RTC_TSDR_MT | RTC_TSDR_MU)) >> RTC_TSDR_MU_Pos);
 479              		.loc 1 385 27 view .LVU189
 480 004e E270     		strb	r2, [r4, #3]
 386:Drivers/STM32F4xx_HAL_Driver/Src/stm32f4xx_hal_rtc_ex.c ****   sTimeStampDate->Date    = (uint8_t)((tmpdate & (RTC_TSDR_DT | RTC_TSDR_DU)) >> RTC_TSDR_DU_Pos);
 481              		.loc 1 386 3 is_stmt 1 view .LVU190
 387:Drivers/STM32F4xx_HAL_Driver/Src/stm32f4xx_hal_rtc_ex.c ****   sTimeStampDate->WeekDay = (uint8_t)((tmpdate & (RTC_TSDR_WDU))              >> RTC_TSDR_WDU_Pos);
 482              		.loc 1 387 3 view .LVU191
 483              		.loc 1 388 3 view .LVU192
 389:Drivers/STM32F4xx_HAL_Driver/Src/stm32f4xx_hal_rtc_ex.c **** 
 390:Drivers/STM32F4xx_HAL_Driver/Src/stm32f4xx_hal_rtc_ex.c ****   /* Check the input parameters format */
 391:Drivers/STM32F4xx_HAL_Driver/Src/stm32f4xx_hal_rtc_ex.c ****   if (Format == RTC_FORMAT_BIN)
 484              		.loc 1 391 3 view .LVU193
 485              		.loc 1 391 6 is_stmt 0 view .LVU194
 486 0050 33B1     		cbz	r3, .L24
 487              	.LVL33:
 488              	.L22:
 392:Drivers/STM32F4xx_HAL_Driver/Src/stm32f4xx_hal_rtc_ex.c ****   {
 393:Drivers/STM32F4xx_HAL_Driver/Src/stm32f4xx_hal_rtc_ex.c ****     /* Convert the Timestamp structure parameters to Binary format */
 394:Drivers/STM32F4xx_HAL_Driver/Src/stm32f4xx_hal_rtc_ex.c ****     sTimeStamp->Hours   = (uint8_t)RTC_Bcd2ToByte(sTimeStamp->Hours);
 395:Drivers/STM32F4xx_HAL_Driver/Src/stm32f4xx_hal_rtc_ex.c ****     sTimeStamp->Minutes = (uint8_t)RTC_Bcd2ToByte(sTimeStamp->Minutes);
 396:Drivers/STM32F4xx_HAL_Driver/Src/stm32f4xx_hal_rtc_ex.c ****     sTimeStamp->Seconds = (uint8_t)RTC_Bcd2ToByte(sTimeStamp->Seconds);
 397:Drivers/STM32F4xx_HAL_Driver/Src/stm32f4xx_hal_rtc_ex.c **** 
 398:Drivers/STM32F4xx_HAL_Driver/Src/stm32f4xx_hal_rtc_ex.c ****     /* Convert the DateTimeStamp structure parameters to Binary format */
 399:Drivers/STM32F4xx_HAL_Driver/Src/stm32f4xx_hal_rtc_ex.c ****     sTimeStampDate->Month   = (uint8_t)RTC_Bcd2ToByte(sTimeStampDate->Month);
 400:Drivers/STM32F4xx_HAL_Driver/Src/stm32f4xx_hal_rtc_ex.c ****     sTimeStampDate->Date    = (uint8_t)RTC_Bcd2ToByte(sTimeStampDate->Date);
 401:Drivers/STM32F4xx_HAL_Driver/Src/stm32f4xx_hal_rtc_ex.c ****     sTimeStampDate->WeekDay = (uint8_t)RTC_Bcd2ToByte(sTimeStampDate->WeekDay);
 402:Drivers/STM32F4xx_HAL_Driver/Src/stm32f4xx_hal_rtc_ex.c ****   }
 403:Drivers/STM32F4xx_HAL_Driver/Src/stm32f4xx_hal_rtc_ex.c **** 
 404:Drivers/STM32F4xx_HAL_Driver/Src/stm32f4xx_hal_rtc_ex.c ****   /* Clear the Timestamp Flag */
 405:Drivers/STM32F4xx_HAL_Driver/Src/stm32f4xx_hal_rtc_ex.c ****   __HAL_RTC_TIMESTAMP_CLEAR_FLAG(hrtc, RTC_FLAG_TSF);
 489              		.loc 1 405 3 is_stmt 1 view .LVU195
 490 0052 F368     		ldr	r3, [r6, #12]
 491 0054 DBB2     		uxtb	r3, r3
 492 0056 63F40863 		orn	r3, r3, #2176
 406:Drivers/STM32F4xx_HAL_Driver/Src/stm32f4xx_hal_rtc_ex.c **** 
 407:Drivers/STM32F4xx_HAL_Driver/Src/stm32f4xx_hal_rtc_ex.c ****   return HAL_OK;
 408:Drivers/STM32F4xx_HAL_Driver/Src/stm32f4xx_hal_rtc_ex.c **** }
 493              		.loc 1 408 1 is_stmt 0 view .LVU196
 494 005a 0020     		movs	r0, #0
 405:Drivers/STM32F4xx_HAL_Driver/Src/stm32f4xx_hal_rtc_ex.c **** 
 495              		.loc 1 405 3 view .LVU197
 496 005c F360     		str	r3, [r6, #12]
 407:Drivers/STM32F4xx_HAL_Driver/Src/stm32f4xx_hal_rtc_ex.c **** }
 497              		.loc 1 407 3 is_stmt 1 view .LVU198
 498              		.loc 1 408 1 is_stmt 0 view .LVU199
 499 005e F8BD     		pop	{r3, r4, r5, r6, r7, pc}
 500              	.LVL34:
 501              	.L24:
 394:Drivers/STM32F4xx_HAL_Driver/Src/stm32f4xx_hal_rtc_ex.c ****     sTimeStamp->Minutes = (uint8_t)RTC_Bcd2ToByte(sTimeStamp->Minutes);
 502              		.loc 1 394 5 is_stmt 1 view .LVU200
 394:Drivers/STM32F4xx_HAL_Driver/Src/stm32f4xx_hal_rtc_ex.c ****     sTimeStamp->Minutes = (uint8_t)RTC_Bcd2ToByte(sTimeStamp->Minutes);
 503              		.loc 1 394 36 is_stmt 0 view .LVU201
ARM GAS  C:\Users\Konrad\AppData\Local\Temp\ccbXyGXO.s 			page 18


 504 0060 6046     		mov	r0, ip
 505 0062 FFF7FEFF 		bl	RTC_Bcd2ToByte
 506              	.LVL35:
 394:Drivers/STM32F4xx_HAL_Driver/Src/stm32f4xx_hal_rtc_ex.c ****     sTimeStamp->Minutes = (uint8_t)RTC_Bcd2ToByte(sTimeStamp->Minutes);
 507              		.loc 1 394 25 discriminator 1 view .LVU202
 508 0066 2870     		strb	r0, [r5]
 395:Drivers/STM32F4xx_HAL_Driver/Src/stm32f4xx_hal_rtc_ex.c ****     sTimeStamp->Seconds = (uint8_t)RTC_Bcd2ToByte(sTimeStamp->Seconds);
 509              		.loc 1 395 5 is_stmt 1 view .LVU203
 395:Drivers/STM32F4xx_HAL_Driver/Src/stm32f4xx_hal_rtc_ex.c ****     sTimeStamp->Seconds = (uint8_t)RTC_Bcd2ToByte(sTimeStamp->Seconds);
 510              		.loc 1 395 36 is_stmt 0 view .LVU204
 511 0068 6878     		ldrb	r0, [r5, #1]	@ zero_extendqisi2
 512 006a FFF7FEFF 		bl	RTC_Bcd2ToByte
 513              	.LVL36:
 395:Drivers/STM32F4xx_HAL_Driver/Src/stm32f4xx_hal_rtc_ex.c ****     sTimeStamp->Seconds = (uint8_t)RTC_Bcd2ToByte(sTimeStamp->Seconds);
 514              		.loc 1 395 25 discriminator 1 view .LVU205
 515 006e 6870     		strb	r0, [r5, #1]
 396:Drivers/STM32F4xx_HAL_Driver/Src/stm32f4xx_hal_rtc_ex.c **** 
 516              		.loc 1 396 5 is_stmt 1 view .LVU206
 396:Drivers/STM32F4xx_HAL_Driver/Src/stm32f4xx_hal_rtc_ex.c **** 
 517              		.loc 1 396 36 is_stmt 0 view .LVU207
 518 0070 A878     		ldrb	r0, [r5, #2]	@ zero_extendqisi2
 519 0072 FFF7FEFF 		bl	RTC_Bcd2ToByte
 520              	.LVL37:
 396:Drivers/STM32F4xx_HAL_Driver/Src/stm32f4xx_hal_rtc_ex.c **** 
 521              		.loc 1 396 25 discriminator 1 view .LVU208
 522 0076 A870     		strb	r0, [r5, #2]
 399:Drivers/STM32F4xx_HAL_Driver/Src/stm32f4xx_hal_rtc_ex.c ****     sTimeStampDate->Date    = (uint8_t)RTC_Bcd2ToByte(sTimeStampDate->Date);
 523              		.loc 1 399 5 is_stmt 1 view .LVU209
 399:Drivers/STM32F4xx_HAL_Driver/Src/stm32f4xx_hal_rtc_ex.c ****     sTimeStampDate->Date    = (uint8_t)RTC_Bcd2ToByte(sTimeStampDate->Date);
 524              		.loc 1 399 40 is_stmt 0 view .LVU210
 525 0078 6078     		ldrb	r0, [r4, #1]	@ zero_extendqisi2
 526 007a FFF7FEFF 		bl	RTC_Bcd2ToByte
 527              	.LVL38:
 399:Drivers/STM32F4xx_HAL_Driver/Src/stm32f4xx_hal_rtc_ex.c ****     sTimeStampDate->Date    = (uint8_t)RTC_Bcd2ToByte(sTimeStampDate->Date);
 528              		.loc 1 399 29 discriminator 1 view .LVU211
 529 007e 6070     		strb	r0, [r4, #1]
 400:Drivers/STM32F4xx_HAL_Driver/Src/stm32f4xx_hal_rtc_ex.c ****     sTimeStampDate->WeekDay = (uint8_t)RTC_Bcd2ToByte(sTimeStampDate->WeekDay);
 530              		.loc 1 400 5 is_stmt 1 view .LVU212
 400:Drivers/STM32F4xx_HAL_Driver/Src/stm32f4xx_hal_rtc_ex.c ****     sTimeStampDate->WeekDay = (uint8_t)RTC_Bcd2ToByte(sTimeStampDate->WeekDay);
 531              		.loc 1 400 40 is_stmt 0 view .LVU213
 532 0080 A078     		ldrb	r0, [r4, #2]	@ zero_extendqisi2
 533 0082 FFF7FEFF 		bl	RTC_Bcd2ToByte
 534              	.LVL39:
 400:Drivers/STM32F4xx_HAL_Driver/Src/stm32f4xx_hal_rtc_ex.c ****     sTimeStampDate->WeekDay = (uint8_t)RTC_Bcd2ToByte(sTimeStampDate->WeekDay);
 535              		.loc 1 400 29 discriminator 1 view .LVU214
 536 0086 A070     		strb	r0, [r4, #2]
 401:Drivers/STM32F4xx_HAL_Driver/Src/stm32f4xx_hal_rtc_ex.c ****   }
 537              		.loc 1 401 5 is_stmt 1 view .LVU215
 401:Drivers/STM32F4xx_HAL_Driver/Src/stm32f4xx_hal_rtc_ex.c ****   }
 538              		.loc 1 401 40 is_stmt 0 view .LVU216
 539 0088 2078     		ldrb	r0, [r4]	@ zero_extendqisi2
 540 008a FFF7FEFF 		bl	RTC_Bcd2ToByte
 541              	.LVL40:
 401:Drivers/STM32F4xx_HAL_Driver/Src/stm32f4xx_hal_rtc_ex.c ****   }
 542              		.loc 1 401 29 discriminator 1 view .LVU217
 543 008e 2070     		strb	r0, [r4]
 405:Drivers/STM32F4xx_HAL_Driver/Src/stm32f4xx_hal_rtc_ex.c **** 
ARM GAS  C:\Users\Konrad\AppData\Local\Temp\ccbXyGXO.s 			page 19


 544              		.loc 1 405 3 view .LVU218
 545 0090 3E68     		ldr	r6, [r7]
 546 0092 DEE7     		b	.L22
 547              		.cfi_endproc
 548              	.LFE219:
 550              		.section	.text.HAL_RTCEx_SetTamper,"ax",%progbits
 551              		.align	1
 552              		.p2align 2,,3
 553              		.global	HAL_RTCEx_SetTamper
 554              		.syntax unified
 555              		.thumb
 556              		.thumb_func
 558              	HAL_RTCEx_SetTamper:
 559              	.LVL41:
 560              	.LFB220:
 409:Drivers/STM32F4xx_HAL_Driver/Src/stm32f4xx_hal_rtc_ex.c **** 
 410:Drivers/STM32F4xx_HAL_Driver/Src/stm32f4xx_hal_rtc_ex.c **** /**
 411:Drivers/STM32F4xx_HAL_Driver/Src/stm32f4xx_hal_rtc_ex.c ****   * @brief  Sets Tamper.
 412:Drivers/STM32F4xx_HAL_Driver/Src/stm32f4xx_hal_rtc_ex.c ****   * @note   By calling this API the tamper global interrupt will be disabled.
 413:Drivers/STM32F4xx_HAL_Driver/Src/stm32f4xx_hal_rtc_ex.c ****   * @param  hrtc pointer to a RTC_HandleTypeDef structure that contains
 414:Drivers/STM32F4xx_HAL_Driver/Src/stm32f4xx_hal_rtc_ex.c ****   *                the configuration information for RTC.
 415:Drivers/STM32F4xx_HAL_Driver/Src/stm32f4xx_hal_rtc_ex.c ****   * @param  sTamper Pointer to Tamper Structure.
 416:Drivers/STM32F4xx_HAL_Driver/Src/stm32f4xx_hal_rtc_ex.c ****   * @retval HAL status
 417:Drivers/STM32F4xx_HAL_Driver/Src/stm32f4xx_hal_rtc_ex.c ****   */
 418:Drivers/STM32F4xx_HAL_Driver/Src/stm32f4xx_hal_rtc_ex.c **** HAL_StatusTypeDef HAL_RTCEx_SetTamper(RTC_HandleTypeDef *hrtc, RTC_TamperTypeDef *sTamper)
 419:Drivers/STM32F4xx_HAL_Driver/Src/stm32f4xx_hal_rtc_ex.c **** {
 561              		.loc 1 419 1 is_stmt 1 view -0
 562              		.cfi_startproc
 563              		@ args = 0, pretend = 0, frame = 0
 564              		@ frame_needed = 0, uses_anonymous_args = 0
 565              		@ link register save eliminated.
 420:Drivers/STM32F4xx_HAL_Driver/Src/stm32f4xx_hal_rtc_ex.c ****   uint32_t tmpreg = 0U;
 566              		.loc 1 420 3 view .LVU220
 421:Drivers/STM32F4xx_HAL_Driver/Src/stm32f4xx_hal_rtc_ex.c **** 
 422:Drivers/STM32F4xx_HAL_Driver/Src/stm32f4xx_hal_rtc_ex.c ****   /* Check the parameters */
 423:Drivers/STM32F4xx_HAL_Driver/Src/stm32f4xx_hal_rtc_ex.c ****   assert_param(IS_RTC_TAMPER(sTamper->Tamper));
 567              		.loc 1 423 3 view .LVU221
 424:Drivers/STM32F4xx_HAL_Driver/Src/stm32f4xx_hal_rtc_ex.c ****   assert_param(IS_RTC_TAMPER_PIN(sTamper->PinSelection));
 568              		.loc 1 424 3 view .LVU222
 425:Drivers/STM32F4xx_HAL_Driver/Src/stm32f4xx_hal_rtc_ex.c ****   assert_param(IS_RTC_TAMPER_TRIGGER(sTamper->Trigger));
 569              		.loc 1 425 3 view .LVU223
 426:Drivers/STM32F4xx_HAL_Driver/Src/stm32f4xx_hal_rtc_ex.c ****   assert_param(IS_RTC_TAMPER_FILTER(sTamper->Filter));
 570              		.loc 1 426 3 view .LVU224
 427:Drivers/STM32F4xx_HAL_Driver/Src/stm32f4xx_hal_rtc_ex.c ****   assert_param(IS_RTC_TAMPER_FILTER_CONFIG_CORRECT(sTamper->Filter, sTamper->Trigger));
 571              		.loc 1 427 3 view .LVU225
 428:Drivers/STM32F4xx_HAL_Driver/Src/stm32f4xx_hal_rtc_ex.c ****   assert_param(IS_RTC_TAMPER_SAMPLING_FREQ(sTamper->SamplingFrequency));
 572              		.loc 1 428 3 view .LVU226
 429:Drivers/STM32F4xx_HAL_Driver/Src/stm32f4xx_hal_rtc_ex.c ****   assert_param(IS_RTC_TAMPER_PRECHARGE_DURATION(sTamper->PrechargeDuration));
 573              		.loc 1 429 3 view .LVU227
 430:Drivers/STM32F4xx_HAL_Driver/Src/stm32f4xx_hal_rtc_ex.c ****   assert_param(IS_RTC_TAMPER_PULLUP_STATE(sTamper->TamperPullUp));
 574              		.loc 1 430 3 view .LVU228
 431:Drivers/STM32F4xx_HAL_Driver/Src/stm32f4xx_hal_rtc_ex.c ****   assert_param(IS_RTC_TAMPER_TIMESTAMPONTAMPER_DETECTION(sTamper->TimeStampOnTamperDetection));
 575              		.loc 1 431 3 view .LVU229
 432:Drivers/STM32F4xx_HAL_Driver/Src/stm32f4xx_hal_rtc_ex.c **** 
 433:Drivers/STM32F4xx_HAL_Driver/Src/stm32f4xx_hal_rtc_ex.c ****   /* Process Locked */
 434:Drivers/STM32F4xx_HAL_Driver/Src/stm32f4xx_hal_rtc_ex.c ****   __HAL_LOCK(hrtc);
 576              		.loc 1 434 3 view .LVU230
ARM GAS  C:\Users\Konrad\AppData\Local\Temp\ccbXyGXO.s 			page 20


 577              		.loc 1 434 3 view .LVU231
 578 0000 037F     		ldrb	r3, [r0, #28]	@ zero_extendqisi2
 579 0002 012B     		cmp	r3, #1
 580 0004 26D0     		beq	.L29
 419:Drivers/STM32F4xx_HAL_Driver/Src/stm32f4xx_hal_rtc_ex.c ****   uint32_t tmpreg = 0U;
 581              		.loc 1 419 1 is_stmt 0 view .LVU232
 582 0006 30B4     		push	{r4, r5}
 583              		.cfi_def_cfa_offset 8
 584              		.cfi_offset 4, -8
 585              		.cfi_offset 5, -4
 435:Drivers/STM32F4xx_HAL_Driver/Src/stm32f4xx_hal_rtc_ex.c **** 
 436:Drivers/STM32F4xx_HAL_Driver/Src/stm32f4xx_hal_rtc_ex.c ****   hrtc->State = HAL_RTC_STATE_BUSY;
 586              		.loc 1 436 15 view .LVU233
 587 0008 0223     		movs	r3, #2
 437:Drivers/STM32F4xx_HAL_Driver/Src/stm32f4xx_hal_rtc_ex.c **** 
 438:Drivers/STM32F4xx_HAL_Driver/Src/stm32f4xx_hal_rtc_ex.c ****   /* Copy control register into temporary variable */
 439:Drivers/STM32F4xx_HAL_Driver/Src/stm32f4xx_hal_rtc_ex.c ****   tmpreg = hrtc->Instance->TAFCR;
 588              		.loc 1 439 16 view .LVU234
 589 000a 0468     		ldr	r4, [r0]
 436:Drivers/STM32F4xx_HAL_Driver/Src/stm32f4xx_hal_rtc_ex.c **** 
 590              		.loc 1 436 15 view .LVU235
 591 000c 4377     		strb	r3, [r0, #29]
 440:Drivers/STM32F4xx_HAL_Driver/Src/stm32f4xx_hal_rtc_ex.c **** 
 441:Drivers/STM32F4xx_HAL_Driver/Src/stm32f4xx_hal_rtc_ex.c ****   /* Enable selected tamper */
 442:Drivers/STM32F4xx_HAL_Driver/Src/stm32f4xx_hal_rtc_ex.c ****   tmpreg |= (sTamper->Tamper);
 592              		.loc 1 442 21 view .LVU236
 593 000e 0B68     		ldr	r3, [r1]
 443:Drivers/STM32F4xx_HAL_Driver/Src/stm32f4xx_hal_rtc_ex.c **** 
 444:Drivers/STM32F4xx_HAL_Driver/Src/stm32f4xx_hal_rtc_ex.c ****   /* Configure the tamper trigger bit (this bit is just on the right of the
 445:Drivers/STM32F4xx_HAL_Driver/Src/stm32f4xx_hal_rtc_ex.c ****        tamper enable bit, hence the one-time right shift before updating it) */
 446:Drivers/STM32F4xx_HAL_Driver/Src/stm32f4xx_hal_rtc_ex.c ****   if (sTamper->Trigger == RTC_TAMPERTRIGGER_FALLINGEDGE)
 594              		.loc 1 446 6 view .LVU237
 595 0010 8D68     		ldr	r5, [r1, #8]
 596 0012 0246     		mov	r2, r0
 434:Drivers/STM32F4xx_HAL_Driver/Src/stm32f4xx_hal_rtc_ex.c **** 
 597              		.loc 1 434 3 is_stmt 1 discriminator 2 view .LVU238
 434:Drivers/STM32F4xx_HAL_Driver/Src/stm32f4xx_hal_rtc_ex.c **** 
 598              		.loc 1 434 3 discriminator 2 view .LVU239
 436:Drivers/STM32F4xx_HAL_Driver/Src/stm32f4xx_hal_rtc_ex.c **** 
 599              		.loc 1 436 3 view .LVU240
 439:Drivers/STM32F4xx_HAL_Driver/Src/stm32f4xx_hal_rtc_ex.c **** 
 600              		.loc 1 439 3 view .LVU241
 439:Drivers/STM32F4xx_HAL_Driver/Src/stm32f4xx_hal_rtc_ex.c **** 
 601              		.loc 1 439 10 is_stmt 0 view .LVU242
 602 0014 206C     		ldr	r0, [r4, #64]
 603              	.LVL42:
 442:Drivers/STM32F4xx_HAL_Driver/Src/stm32f4xx_hal_rtc_ex.c **** 
 604              		.loc 1 442 3 is_stmt 1 view .LVU243
 605              		.loc 1 446 6 is_stmt 0 view .LVU244
 606 0016 022D     		cmp	r5, #2
 442:Drivers/STM32F4xx_HAL_Driver/Src/stm32f4xx_hal_rtc_ex.c **** 
 607              		.loc 1 442 10 view .LVU245
 608 0018 40EA0300 		orr	r0, r0, r3
 609              	.LVL43:
 610              		.loc 1 446 3 is_stmt 1 view .LVU246
 447:Drivers/STM32F4xx_HAL_Driver/Src/stm32f4xx_hal_rtc_ex.c ****   {
 448:Drivers/STM32F4xx_HAL_Driver/Src/stm32f4xx_hal_rtc_ex.c ****     /* Set the tamper trigger bit (case of falling edge or high level) */
ARM GAS  C:\Users\Konrad\AppData\Local\Temp\ccbXyGXO.s 			page 21


 449:Drivers/STM32F4xx_HAL_Driver/Src/stm32f4xx_hal_rtc_ex.c ****     tmpreg |= (uint32_t)(sTamper->Tamper << 1U);
 611              		.loc 1 449 5 view .LVU247
 612              		.loc 1 449 15 is_stmt 0 view .LVU248
 613 001c 4FEA4303 		lsl	r3, r3, #1
 450:Drivers/STM32F4xx_HAL_Driver/Src/stm32f4xx_hal_rtc_ex.c ****   }
 451:Drivers/STM32F4xx_HAL_Driver/Src/stm32f4xx_hal_rtc_ex.c ****   else
 452:Drivers/STM32F4xx_HAL_Driver/Src/stm32f4xx_hal_rtc_ex.c ****   {
 453:Drivers/STM32F4xx_HAL_Driver/Src/stm32f4xx_hal_rtc_ex.c ****     /* Clear the tamper trigger bit (case of rising edge or low level) */
 454:Drivers/STM32F4xx_HAL_Driver/Src/stm32f4xx_hal_rtc_ex.c ****     tmpreg &= (uint32_t)~(sTamper->Tamper << 1U);
 455:Drivers/STM32F4xx_HAL_Driver/Src/stm32f4xx_hal_rtc_ex.c ****   }
 456:Drivers/STM32F4xx_HAL_Driver/Src/stm32f4xx_hal_rtc_ex.c **** 
 457:Drivers/STM32F4xx_HAL_Driver/Src/stm32f4xx_hal_rtc_ex.c ****   /* Clear remaining fields before setting them */
 458:Drivers/STM32F4xx_HAL_Driver/Src/stm32f4xx_hal_rtc_ex.c ****   tmpreg &= ~(RTC_TAMPERFILTER_MASK              | \
 459:Drivers/STM32F4xx_HAL_Driver/Src/stm32f4xx_hal_rtc_ex.c ****               RTC_TAMPERSAMPLINGFREQ_RTCCLK_MASK | \
 460:Drivers/STM32F4xx_HAL_Driver/Src/stm32f4xx_hal_rtc_ex.c ****               RTC_TAMPERPRECHARGEDURATION_MASK   | \
 461:Drivers/STM32F4xx_HAL_Driver/Src/stm32f4xx_hal_rtc_ex.c ****               RTC_TAMPER_PULLUP_MASK             | \
 462:Drivers/STM32F4xx_HAL_Driver/Src/stm32f4xx_hal_rtc_ex.c ****               RTC_TAFCR_TAMP1INSEL               | \
 463:Drivers/STM32F4xx_HAL_Driver/Src/stm32f4xx_hal_rtc_ex.c ****               RTC_TIMESTAMPONTAMPERDETECTION_MASK);
 464:Drivers/STM32F4xx_HAL_Driver/Src/stm32f4xx_hal_rtc_ex.c **** 
 465:Drivers/STM32F4xx_HAL_Driver/Src/stm32f4xx_hal_rtc_ex.c ****   /* Set remaining parameters of desired configuration into temporary variable */
 466:Drivers/STM32F4xx_HAL_Driver/Src/stm32f4xx_hal_rtc_ex.c ****   tmpreg |= ((uint32_t)sTamper->Filter            | \
 614              		.loc 1 466 51 view .LVU249
 615 0020 0D69     		ldr	r5, [r1, #16]
 449:Drivers/STM32F4xx_HAL_Driver/Src/stm32f4xx_hal_rtc_ex.c ****   }
 616              		.loc 1 449 12 view .LVU250
 617 0022 0CBF     		ite	eq
 618 0024 1843     		orreq	r0, r0, r3
 619              	.LVL44:
 454:Drivers/STM32F4xx_HAL_Driver/Src/stm32f4xx_hal_rtc_ex.c ****   }
 620              		.loc 1 454 5 is_stmt 1 view .LVU251
 454:Drivers/STM32F4xx_HAL_Driver/Src/stm32f4xx_hal_rtc_ex.c ****   }
 621              		.loc 1 454 12 is_stmt 0 view .LVU252
 622 0026 9843     		bicne	r0, r0, r3
 623              	.LVL45:
 458:Drivers/STM32F4xx_HAL_Driver/Src/stm32f4xx_hal_rtc_ex.c ****               RTC_TAMPERSAMPLINGFREQ_RTCCLK_MASK | \
 624              		.loc 1 458 3 is_stmt 1 view .LVU253
 625              		.loc 1 466 51 is_stmt 0 view .LVU254
 626 0028 CB68     		ldr	r3, [r1, #12]
 627 002a 2B43     		orrs	r3, r3, r5
 467:Drivers/STM32F4xx_HAL_Driver/Src/stm32f4xx_hal_rtc_ex.c ****              (uint32_t)sTamper->SamplingFrequency | \
 628              		.loc 1 467 51 view .LVU255
 629 002c 4D69     		ldr	r5, [r1, #20]
 630 002e 2B43     		orrs	r3, r3, r5
 468:Drivers/STM32F4xx_HAL_Driver/Src/stm32f4xx_hal_rtc_ex.c ****              (uint32_t)sTamper->PrechargeDuration | \
 631              		.loc 1 468 51 view .LVU256
 632 0030 8D69     		ldr	r5, [r1, #24]
 633 0032 2B43     		orrs	r3, r3, r5
 469:Drivers/STM32F4xx_HAL_Driver/Src/stm32f4xx_hal_rtc_ex.c ****              (uint32_t)sTamper->TamperPullUp      | \
 634              		.loc 1 469 51 view .LVU257
 635 0034 4D68     		ldr	r5, [r1, #4]
 470:Drivers/STM32F4xx_HAL_Driver/Src/stm32f4xx_hal_rtc_ex.c ****              (uint32_t)sTamper->PinSelection      | \
 636              		.loc 1 470 51 view .LVU258
 637 0036 C969     		ldr	r1, [r1, #28]
 638              	.LVL46:
 469:Drivers/STM32F4xx_HAL_Driver/Src/stm32f4xx_hal_rtc_ex.c ****              (uint32_t)sTamper->TamperPullUp      | \
 639              		.loc 1 469 51 view .LVU259
 640 0038 2B43     		orrs	r3, r3, r5
ARM GAS  C:\Users\Konrad\AppData\Local\Temp\ccbXyGXO.s 			page 22


 458:Drivers/STM32F4xx_HAL_Driver/Src/stm32f4xx_hal_rtc_ex.c ****               RTC_TAMPERSAMPLINGFREQ_RTCCLK_MASK | \
 641              		.loc 1 458 10 view .LVU260
 642 003a 6FF3D010 		bfc	r0, #7, #10
 643              	.LVL47:
 466:Drivers/STM32F4xx_HAL_Driver/Src/stm32f4xx_hal_rtc_ex.c ****              (uint32_t)sTamper->SamplingFrequency | \
 644              		.loc 1 466 3 is_stmt 1 view .LVU261
 645              		.loc 1 470 51 is_stmt 0 view .LVU262
 646 003e 0B43     		orrs	r3, r3, r1
 466:Drivers/STM32F4xx_HAL_Driver/Src/stm32f4xx_hal_rtc_ex.c ****              (uint32_t)sTamper->SamplingFrequency | \
 647              		.loc 1 466 10 view .LVU263
 648 0040 0343     		orrs	r3, r3, r0
 649              	.LVL48:
 471:Drivers/STM32F4xx_HAL_Driver/Src/stm32f4xx_hal_rtc_ex.c ****              (uint32_t)sTamper->TimeStampOnTamperDetection);
 472:Drivers/STM32F4xx_HAL_Driver/Src/stm32f4xx_hal_rtc_ex.c **** 
 473:Drivers/STM32F4xx_HAL_Driver/Src/stm32f4xx_hal_rtc_ex.c ****   /* Disable tamper global interrupt in case it is enabled */
 474:Drivers/STM32F4xx_HAL_Driver/Src/stm32f4xx_hal_rtc_ex.c ****   tmpreg &= (uint32_t)~RTC_TAFCR_TAMPIE;
 650              		.loc 1 474 3 is_stmt 1 view .LVU264
 651              		.loc 1 474 10 is_stmt 0 view .LVU265
 652 0042 23F00403 		bic	r3, r3, #4
 653              	.LVL49:
 475:Drivers/STM32F4xx_HAL_Driver/Src/stm32f4xx_hal_rtc_ex.c **** 
 476:Drivers/STM32F4xx_HAL_Driver/Src/stm32f4xx_hal_rtc_ex.c ****   /* Copy desired configuration into configuration register */
 477:Drivers/STM32F4xx_HAL_Driver/Src/stm32f4xx_hal_rtc_ex.c ****   hrtc->Instance->TAFCR = tmpreg;
 654              		.loc 1 477 3 is_stmt 1 view .LVU266
 478:Drivers/STM32F4xx_HAL_Driver/Src/stm32f4xx_hal_rtc_ex.c **** 
 479:Drivers/STM32F4xx_HAL_Driver/Src/stm32f4xx_hal_rtc_ex.c ****   hrtc->State = HAL_RTC_STATE_READY;
 480:Drivers/STM32F4xx_HAL_Driver/Src/stm32f4xx_hal_rtc_ex.c **** 
 481:Drivers/STM32F4xx_HAL_Driver/Src/stm32f4xx_hal_rtc_ex.c ****   /* Process Unlocked */
 482:Drivers/STM32F4xx_HAL_Driver/Src/stm32f4xx_hal_rtc_ex.c ****   __HAL_UNLOCK(hrtc);
 655              		.loc 1 482 3 is_stmt 0 view .LVU267
 656 0046 0020     		movs	r0, #0
 479:Drivers/STM32F4xx_HAL_Driver/Src/stm32f4xx_hal_rtc_ex.c **** 
 657              		.loc 1 479 15 view .LVU268
 658 0048 0121     		movs	r1, #1
 477:Drivers/STM32F4xx_HAL_Driver/Src/stm32f4xx_hal_rtc_ex.c **** 
 659              		.loc 1 477 25 view .LVU269
 660 004a 2364     		str	r3, [r4, #64]
 479:Drivers/STM32F4xx_HAL_Driver/Src/stm32f4xx_hal_rtc_ex.c **** 
 661              		.loc 1 479 3 is_stmt 1 view .LVU270
 479:Drivers/STM32F4xx_HAL_Driver/Src/stm32f4xx_hal_rtc_ex.c **** 
 662              		.loc 1 479 15 is_stmt 0 view .LVU271
 663 004c 5177     		strb	r1, [r2, #29]
 664              		.loc 1 482 3 is_stmt 1 view .LVU272
 665              		.loc 1 482 3 view .LVU273
 666 004e 1077     		strb	r0, [r2, #28]
 667              		.loc 1 482 3 view .LVU274
 483:Drivers/STM32F4xx_HAL_Driver/Src/stm32f4xx_hal_rtc_ex.c **** 
 484:Drivers/STM32F4xx_HAL_Driver/Src/stm32f4xx_hal_rtc_ex.c ****   return HAL_OK;
 668              		.loc 1 484 3 view .LVU275
 485:Drivers/STM32F4xx_HAL_Driver/Src/stm32f4xx_hal_rtc_ex.c **** }
 669              		.loc 1 485 1 is_stmt 0 view .LVU276
 670 0050 30BC     		pop	{r4, r5}
 671              		.cfi_restore 5
 672              		.cfi_restore 4
 673              		.cfi_def_cfa_offset 0
 674 0052 7047     		bx	lr
 675              	.LVL50:
ARM GAS  C:\Users\Konrad\AppData\Local\Temp\ccbXyGXO.s 			page 23


 676              	.L29:
 434:Drivers/STM32F4xx_HAL_Driver/Src/stm32f4xx_hal_rtc_ex.c **** 
 677              		.loc 1 434 3 discriminator 1 view .LVU277
 678 0054 0220     		movs	r0, #2
 679              	.LVL51:
 680              		.loc 1 485 1 view .LVU278
 681 0056 7047     		bx	lr
 682              		.cfi_endproc
 683              	.LFE220:
 685              		.section	.text.HAL_RTCEx_SetTamper_IT,"ax",%progbits
 686              		.align	1
 687              		.p2align 2,,3
 688              		.global	HAL_RTCEx_SetTamper_IT
 689              		.syntax unified
 690              		.thumb
 691              		.thumb_func
 693              	HAL_RTCEx_SetTamper_IT:
 694              	.LVL52:
 695              	.LFB221:
 486:Drivers/STM32F4xx_HAL_Driver/Src/stm32f4xx_hal_rtc_ex.c **** 
 487:Drivers/STM32F4xx_HAL_Driver/Src/stm32f4xx_hal_rtc_ex.c **** /**
 488:Drivers/STM32F4xx_HAL_Driver/Src/stm32f4xx_hal_rtc_ex.c ****   * @brief  Sets Tamper with interrupt.
 489:Drivers/STM32F4xx_HAL_Driver/Src/stm32f4xx_hal_rtc_ex.c ****   * @note   By calling this API the tamper global interrupt will be enabled.
 490:Drivers/STM32F4xx_HAL_Driver/Src/stm32f4xx_hal_rtc_ex.c ****   * @param  hrtc pointer to a RTC_HandleTypeDef structure that contains
 491:Drivers/STM32F4xx_HAL_Driver/Src/stm32f4xx_hal_rtc_ex.c ****   *                the configuration information for RTC.
 492:Drivers/STM32F4xx_HAL_Driver/Src/stm32f4xx_hal_rtc_ex.c ****   * @param  sTamper Pointer to RTC Tamper.
 493:Drivers/STM32F4xx_HAL_Driver/Src/stm32f4xx_hal_rtc_ex.c ****   * @retval HAL status
 494:Drivers/STM32F4xx_HAL_Driver/Src/stm32f4xx_hal_rtc_ex.c ****   */
 495:Drivers/STM32F4xx_HAL_Driver/Src/stm32f4xx_hal_rtc_ex.c **** HAL_StatusTypeDef HAL_RTCEx_SetTamper_IT(RTC_HandleTypeDef *hrtc, RTC_TamperTypeDef *sTamper)
 496:Drivers/STM32F4xx_HAL_Driver/Src/stm32f4xx_hal_rtc_ex.c **** {
 696              		.loc 1 496 1 is_stmt 1 view -0
 697              		.cfi_startproc
 698              		@ args = 0, pretend = 0, frame = 0
 699              		@ frame_needed = 0, uses_anonymous_args = 0
 700              		@ link register save eliminated.
 497:Drivers/STM32F4xx_HAL_Driver/Src/stm32f4xx_hal_rtc_ex.c ****   uint32_t tmpreg = 0U;
 701              		.loc 1 497 3 view .LVU280
 498:Drivers/STM32F4xx_HAL_Driver/Src/stm32f4xx_hal_rtc_ex.c **** 
 499:Drivers/STM32F4xx_HAL_Driver/Src/stm32f4xx_hal_rtc_ex.c ****   /* Check the parameters */
 500:Drivers/STM32F4xx_HAL_Driver/Src/stm32f4xx_hal_rtc_ex.c ****   assert_param(IS_RTC_TAMPER(sTamper->Tamper));
 702              		.loc 1 500 3 view .LVU281
 501:Drivers/STM32F4xx_HAL_Driver/Src/stm32f4xx_hal_rtc_ex.c ****   assert_param(IS_RTC_TAMPER_PIN(sTamper->PinSelection));
 703              		.loc 1 501 3 view .LVU282
 502:Drivers/STM32F4xx_HAL_Driver/Src/stm32f4xx_hal_rtc_ex.c ****   assert_param(IS_RTC_TAMPER_TRIGGER(sTamper->Trigger));
 704              		.loc 1 502 3 view .LVU283
 503:Drivers/STM32F4xx_HAL_Driver/Src/stm32f4xx_hal_rtc_ex.c ****   assert_param(IS_RTC_TAMPER_FILTER(sTamper->Filter));
 705              		.loc 1 503 3 view .LVU284
 504:Drivers/STM32F4xx_HAL_Driver/Src/stm32f4xx_hal_rtc_ex.c ****   assert_param(IS_RTC_TAMPER_FILTER_CONFIG_CORRECT(sTamper->Filter, sTamper->Trigger));
 706              		.loc 1 504 3 view .LVU285
 505:Drivers/STM32F4xx_HAL_Driver/Src/stm32f4xx_hal_rtc_ex.c ****   assert_param(IS_RTC_TAMPER_SAMPLING_FREQ(sTamper->SamplingFrequency));
 707              		.loc 1 505 3 view .LVU286
 506:Drivers/STM32F4xx_HAL_Driver/Src/stm32f4xx_hal_rtc_ex.c ****   assert_param(IS_RTC_TAMPER_PRECHARGE_DURATION(sTamper->PrechargeDuration));
 708              		.loc 1 506 3 view .LVU287
 507:Drivers/STM32F4xx_HAL_Driver/Src/stm32f4xx_hal_rtc_ex.c ****   assert_param(IS_RTC_TAMPER_PULLUP_STATE(sTamper->TamperPullUp));
 709              		.loc 1 507 3 view .LVU288
 508:Drivers/STM32F4xx_HAL_Driver/Src/stm32f4xx_hal_rtc_ex.c ****   assert_param(IS_RTC_TAMPER_TIMESTAMPONTAMPER_DETECTION(sTamper->TimeStampOnTamperDetection));
 710              		.loc 1 508 3 view .LVU289
ARM GAS  C:\Users\Konrad\AppData\Local\Temp\ccbXyGXO.s 			page 24


 509:Drivers/STM32F4xx_HAL_Driver/Src/stm32f4xx_hal_rtc_ex.c **** 
 510:Drivers/STM32F4xx_HAL_Driver/Src/stm32f4xx_hal_rtc_ex.c ****   /* Process Locked */
 511:Drivers/STM32F4xx_HAL_Driver/Src/stm32f4xx_hal_rtc_ex.c ****   __HAL_LOCK(hrtc);
 711              		.loc 1 511 3 view .LVU290
 712              		.loc 1 511 3 view .LVU291
 713 0000 037F     		ldrb	r3, [r0, #28]	@ zero_extendqisi2
 714 0002 012B     		cmp	r3, #1
 715 0004 32D0     		beq	.L38
 496:Drivers/STM32F4xx_HAL_Driver/Src/stm32f4xx_hal_rtc_ex.c ****   uint32_t tmpreg = 0U;
 716              		.loc 1 496 1 is_stmt 0 view .LVU292
 717 0006 30B4     		push	{r4, r5}
 718              		.cfi_def_cfa_offset 8
 719              		.cfi_offset 4, -8
 720              		.cfi_offset 5, -4
 512:Drivers/STM32F4xx_HAL_Driver/Src/stm32f4xx_hal_rtc_ex.c **** 
 513:Drivers/STM32F4xx_HAL_Driver/Src/stm32f4xx_hal_rtc_ex.c ****   hrtc->State = HAL_RTC_STATE_BUSY;
 721              		.loc 1 513 15 view .LVU293
 722 0008 0223     		movs	r3, #2
 514:Drivers/STM32F4xx_HAL_Driver/Src/stm32f4xx_hal_rtc_ex.c **** 
 515:Drivers/STM32F4xx_HAL_Driver/Src/stm32f4xx_hal_rtc_ex.c ****   /* Copy control register into temporary variable */
 516:Drivers/STM32F4xx_HAL_Driver/Src/stm32f4xx_hal_rtc_ex.c ****   tmpreg = hrtc->Instance->TAFCR;
 723              		.loc 1 516 16 view .LVU294
 724 000a 0468     		ldr	r4, [r0]
 513:Drivers/STM32F4xx_HAL_Driver/Src/stm32f4xx_hal_rtc_ex.c **** 
 725              		.loc 1 513 15 view .LVU295
 726 000c 4377     		strb	r3, [r0, #29]
 517:Drivers/STM32F4xx_HAL_Driver/Src/stm32f4xx_hal_rtc_ex.c **** 
 518:Drivers/STM32F4xx_HAL_Driver/Src/stm32f4xx_hal_rtc_ex.c ****   /* Enable selected tamper */
 519:Drivers/STM32F4xx_HAL_Driver/Src/stm32f4xx_hal_rtc_ex.c ****   tmpreg |= (sTamper->Tamper);
 727              		.loc 1 519 21 view .LVU296
 728 000e 0B68     		ldr	r3, [r1]
 520:Drivers/STM32F4xx_HAL_Driver/Src/stm32f4xx_hal_rtc_ex.c **** 
 521:Drivers/STM32F4xx_HAL_Driver/Src/stm32f4xx_hal_rtc_ex.c ****   /* Configure the tamper trigger bit (this bit is just on the right of the
 522:Drivers/STM32F4xx_HAL_Driver/Src/stm32f4xx_hal_rtc_ex.c ****        tamper enable bit, hence the one-time right shift before updating it) */
 523:Drivers/STM32F4xx_HAL_Driver/Src/stm32f4xx_hal_rtc_ex.c ****   if (sTamper->Trigger == RTC_TAMPERTRIGGER_FALLINGEDGE)
 729              		.loc 1 523 6 view .LVU297
 730 0010 8D68     		ldr	r5, [r1, #8]
 731 0012 0246     		mov	r2, r0
 511:Drivers/STM32F4xx_HAL_Driver/Src/stm32f4xx_hal_rtc_ex.c **** 
 732              		.loc 1 511 3 is_stmt 1 discriminator 2 view .LVU298
 511:Drivers/STM32F4xx_HAL_Driver/Src/stm32f4xx_hal_rtc_ex.c **** 
 733              		.loc 1 511 3 discriminator 2 view .LVU299
 513:Drivers/STM32F4xx_HAL_Driver/Src/stm32f4xx_hal_rtc_ex.c **** 
 734              		.loc 1 513 3 view .LVU300
 516:Drivers/STM32F4xx_HAL_Driver/Src/stm32f4xx_hal_rtc_ex.c **** 
 735              		.loc 1 516 3 view .LVU301
 516:Drivers/STM32F4xx_HAL_Driver/Src/stm32f4xx_hal_rtc_ex.c **** 
 736              		.loc 1 516 10 is_stmt 0 view .LVU302
 737 0014 206C     		ldr	r0, [r4, #64]
 738              	.LVL53:
 519:Drivers/STM32F4xx_HAL_Driver/Src/stm32f4xx_hal_rtc_ex.c **** 
 739              		.loc 1 519 3 is_stmt 1 view .LVU303
 740              		.loc 1 523 6 is_stmt 0 view .LVU304
 741 0016 022D     		cmp	r5, #2
 519:Drivers/STM32F4xx_HAL_Driver/Src/stm32f4xx_hal_rtc_ex.c **** 
 742              		.loc 1 519 10 view .LVU305
 743 0018 40EA0300 		orr	r0, r0, r3
ARM GAS  C:\Users\Konrad\AppData\Local\Temp\ccbXyGXO.s 			page 25


 744              	.LVL54:
 745              		.loc 1 523 3 is_stmt 1 view .LVU306
 524:Drivers/STM32F4xx_HAL_Driver/Src/stm32f4xx_hal_rtc_ex.c ****   {
 525:Drivers/STM32F4xx_HAL_Driver/Src/stm32f4xx_hal_rtc_ex.c ****     /* Set the tamper trigger bit (case of falling edge or high level) */
 526:Drivers/STM32F4xx_HAL_Driver/Src/stm32f4xx_hal_rtc_ex.c ****     tmpreg |= (uint32_t)(sTamper->Tamper << 1U);
 746              		.loc 1 526 5 view .LVU307
 747              		.loc 1 526 15 is_stmt 0 view .LVU308
 748 001c 4FEA4303 		lsl	r3, r3, #1
 527:Drivers/STM32F4xx_HAL_Driver/Src/stm32f4xx_hal_rtc_ex.c ****   }
 528:Drivers/STM32F4xx_HAL_Driver/Src/stm32f4xx_hal_rtc_ex.c ****   else
 529:Drivers/STM32F4xx_HAL_Driver/Src/stm32f4xx_hal_rtc_ex.c ****   {
 530:Drivers/STM32F4xx_HAL_Driver/Src/stm32f4xx_hal_rtc_ex.c ****     /* Clear the tamper trigger bit (case of rising edge or low level) */
 531:Drivers/STM32F4xx_HAL_Driver/Src/stm32f4xx_hal_rtc_ex.c ****     tmpreg &= (uint32_t)~(sTamper->Tamper << 1U);
 532:Drivers/STM32F4xx_HAL_Driver/Src/stm32f4xx_hal_rtc_ex.c ****   }
 533:Drivers/STM32F4xx_HAL_Driver/Src/stm32f4xx_hal_rtc_ex.c **** 
 534:Drivers/STM32F4xx_HAL_Driver/Src/stm32f4xx_hal_rtc_ex.c ****   /* Clear remaining fields before setting them */
 535:Drivers/STM32F4xx_HAL_Driver/Src/stm32f4xx_hal_rtc_ex.c ****   tmpreg &= ~(RTC_TAMPERFILTER_MASK              | \
 536:Drivers/STM32F4xx_HAL_Driver/Src/stm32f4xx_hal_rtc_ex.c ****               RTC_TAMPERSAMPLINGFREQ_RTCCLK_MASK | \
 537:Drivers/STM32F4xx_HAL_Driver/Src/stm32f4xx_hal_rtc_ex.c ****               RTC_TAMPERPRECHARGEDURATION_MASK   | \
 538:Drivers/STM32F4xx_HAL_Driver/Src/stm32f4xx_hal_rtc_ex.c ****               RTC_TAMPER_PULLUP_MASK             | \
 539:Drivers/STM32F4xx_HAL_Driver/Src/stm32f4xx_hal_rtc_ex.c ****               RTC_TAFCR_TAMP1INSEL               | \
 540:Drivers/STM32F4xx_HAL_Driver/Src/stm32f4xx_hal_rtc_ex.c ****               RTC_TIMESTAMPONTAMPERDETECTION_MASK);
 541:Drivers/STM32F4xx_HAL_Driver/Src/stm32f4xx_hal_rtc_ex.c **** 
 542:Drivers/STM32F4xx_HAL_Driver/Src/stm32f4xx_hal_rtc_ex.c ****   /* Set remaining parameters of desired configuration into temporary variable */
 543:Drivers/STM32F4xx_HAL_Driver/Src/stm32f4xx_hal_rtc_ex.c ****   tmpreg |= ((uint32_t)sTamper->Filter            | \
 749              		.loc 1 543 51 view .LVU309
 750 0020 0D69     		ldr	r5, [r1, #16]
 526:Drivers/STM32F4xx_HAL_Driver/Src/stm32f4xx_hal_rtc_ex.c ****   }
 751              		.loc 1 526 12 view .LVU310
 752 0022 0CBF     		ite	eq
 753 0024 1843     		orreq	r0, r0, r3
 754              	.LVL55:
 531:Drivers/STM32F4xx_HAL_Driver/Src/stm32f4xx_hal_rtc_ex.c ****   }
 755              		.loc 1 531 5 is_stmt 1 view .LVU311
 531:Drivers/STM32F4xx_HAL_Driver/Src/stm32f4xx_hal_rtc_ex.c ****   }
 756              		.loc 1 531 12 is_stmt 0 view .LVU312
 757 0026 9843     		bicne	r0, r0, r3
 758              	.LVL56:
 535:Drivers/STM32F4xx_HAL_Driver/Src/stm32f4xx_hal_rtc_ex.c ****               RTC_TAMPERSAMPLINGFREQ_RTCCLK_MASK | \
 759              		.loc 1 535 3 is_stmt 1 view .LVU313
 760              		.loc 1 543 3 view .LVU314
 761              		.loc 1 543 51 is_stmt 0 view .LVU315
 762 0028 CB68     		ldr	r3, [r1, #12]
 535:Drivers/STM32F4xx_HAL_Driver/Src/stm32f4xx_hal_rtc_ex.c ****               RTC_TAMPERSAMPLINGFREQ_RTCCLK_MASK | \
 763              		.loc 1 535 10 view .LVU316
 764 002a 6FF3D010 		bfc	r0, #7, #10
 765              	.LVL57:
 766              		.loc 1 543 51 view .LVU317
 767 002e 2B43     		orrs	r3, r3, r5
 768 0030 0343     		orrs	r3, r3, r0
 769 0032 4869     		ldr	r0, [r1, #20]
 770              	.LVL58:
 771              		.loc 1 543 51 view .LVU318
 772 0034 0343     		orrs	r3, r3, r0
 773 0036 8869     		ldr	r0, [r1, #24]
 774 0038 0343     		orrs	r3, r3, r0
 775 003a 4868     		ldr	r0, [r1, #4]
ARM GAS  C:\Users\Konrad\AppData\Local\Temp\ccbXyGXO.s 			page 26


 776              		.loc 1 543 10 view .LVU319
 777 003c C969     		ldr	r1, [r1, #28]
 778              	.LVL59:
 779              		.loc 1 543 10 view .LVU320
 780 003e 0343     		orrs	r3, r3, r0
 781 0040 0B43     		orrs	r3, r3, r1
 782              	.LVL60:
 544:Drivers/STM32F4xx_HAL_Driver/Src/stm32f4xx_hal_rtc_ex.c ****              (uint32_t)sTamper->SamplingFrequency | \
 545:Drivers/STM32F4xx_HAL_Driver/Src/stm32f4xx_hal_rtc_ex.c ****              (uint32_t)sTamper->PrechargeDuration | \
 546:Drivers/STM32F4xx_HAL_Driver/Src/stm32f4xx_hal_rtc_ex.c ****              (uint32_t)sTamper->TamperPullUp      | \
 547:Drivers/STM32F4xx_HAL_Driver/Src/stm32f4xx_hal_rtc_ex.c ****              (uint32_t)sTamper->PinSelection      | \
 548:Drivers/STM32F4xx_HAL_Driver/Src/stm32f4xx_hal_rtc_ex.c ****              (uint32_t)sTamper->TimeStampOnTamperDetection);
 549:Drivers/STM32F4xx_HAL_Driver/Src/stm32f4xx_hal_rtc_ex.c **** 
 550:Drivers/STM32F4xx_HAL_Driver/Src/stm32f4xx_hal_rtc_ex.c ****   /* Enable global tamper interrupt */
 551:Drivers/STM32F4xx_HAL_Driver/Src/stm32f4xx_hal_rtc_ex.c ****   tmpreg |= (uint32_t)RTC_TAFCR_TAMPIE;
 783              		.loc 1 551 3 is_stmt 1 view .LVU321
 784              		.loc 1 551 10 is_stmt 0 view .LVU322
 785 0042 43F00403 		orr	r3, r3, #4
 786              	.LVL61:
 552:Drivers/STM32F4xx_HAL_Driver/Src/stm32f4xx_hal_rtc_ex.c **** 
 553:Drivers/STM32F4xx_HAL_Driver/Src/stm32f4xx_hal_rtc_ex.c ****   /* Copy desired configuration into configuration register */
 554:Drivers/STM32F4xx_HAL_Driver/Src/stm32f4xx_hal_rtc_ex.c ****   hrtc->Instance->TAFCR = tmpreg;
 787              		.loc 1 554 3 is_stmt 1 view .LVU323
 555:Drivers/STM32F4xx_HAL_Driver/Src/stm32f4xx_hal_rtc_ex.c **** 
 556:Drivers/STM32F4xx_HAL_Driver/Src/stm32f4xx_hal_rtc_ex.c ****   /* RTC Tamper Interrupt Configuration: EXTI configuration */
 557:Drivers/STM32F4xx_HAL_Driver/Src/stm32f4xx_hal_rtc_ex.c ****   __HAL_RTC_TAMPER_TIMESTAMP_EXTI_ENABLE_IT();
 788              		.loc 1 557 3 is_stmt 0 view .LVU324
 789 0046 0A49     		ldr	r1, .L43
 554:Drivers/STM32F4xx_HAL_Driver/Src/stm32f4xx_hal_rtc_ex.c **** 
 790              		.loc 1 554 25 view .LVU325
 791 0048 2364     		str	r3, [r4, #64]
 792              		.loc 1 557 3 is_stmt 1 view .LVU326
 793 004a 0B68     		ldr	r3, [r1]
 794              	.LVL62:
 795              		.loc 1 557 3 is_stmt 0 view .LVU327
 796 004c 43F40013 		orr	r3, r3, #2097152
 797 0050 0B60     		str	r3, [r1]
 798              	.LVL63:
 558:Drivers/STM32F4xx_HAL_Driver/Src/stm32f4xx_hal_rtc_ex.c ****   __HAL_RTC_TAMPER_TIMESTAMP_EXTI_ENABLE_RISING_EDGE();
 799              		.loc 1 558 3 is_stmt 1 view .LVU328
 800 0052 8B68     		ldr	r3, [r1, #8]
 559:Drivers/STM32F4xx_HAL_Driver/Src/stm32f4xx_hal_rtc_ex.c **** 
 560:Drivers/STM32F4xx_HAL_Driver/Src/stm32f4xx_hal_rtc_ex.c ****   hrtc->State = HAL_RTC_STATE_READY;
 561:Drivers/STM32F4xx_HAL_Driver/Src/stm32f4xx_hal_rtc_ex.c **** 
 562:Drivers/STM32F4xx_HAL_Driver/Src/stm32f4xx_hal_rtc_ex.c ****   /* Process Unlocked */
 563:Drivers/STM32F4xx_HAL_Driver/Src/stm32f4xx_hal_rtc_ex.c ****   __HAL_UNLOCK(hrtc);
 801              		.loc 1 563 3 is_stmt 0 view .LVU329
 802 0054 0024     		movs	r4, #0
 560:Drivers/STM32F4xx_HAL_Driver/Src/stm32f4xx_hal_rtc_ex.c **** 
 803              		.loc 1 560 15 view .LVU330
 804 0056 4FF0010C 		mov	ip, #1
 558:Drivers/STM32F4xx_HAL_Driver/Src/stm32f4xx_hal_rtc_ex.c ****   __HAL_RTC_TAMPER_TIMESTAMP_EXTI_ENABLE_RISING_EDGE();
 805              		.loc 1 558 3 view .LVU331
 806 005a 43F40013 		orr	r3, r3, #2097152
 807 005e 8B60     		str	r3, [r1, #8]
 560:Drivers/STM32F4xx_HAL_Driver/Src/stm32f4xx_hal_rtc_ex.c **** 
 808              		.loc 1 560 3 is_stmt 1 view .LVU332
ARM GAS  C:\Users\Konrad\AppData\Local\Temp\ccbXyGXO.s 			page 27


 560:Drivers/STM32F4xx_HAL_Driver/Src/stm32f4xx_hal_rtc_ex.c **** 
 809              		.loc 1 560 15 is_stmt 0 view .LVU333
 810 0060 82F81DC0 		strb	ip, [r2, #29]
 811              		.loc 1 563 3 is_stmt 1 view .LVU334
 812              		.loc 1 563 3 view .LVU335
 813 0064 1477     		strb	r4, [r2, #28]
 814              		.loc 1 563 3 view .LVU336
 564:Drivers/STM32F4xx_HAL_Driver/Src/stm32f4xx_hal_rtc_ex.c **** 
 565:Drivers/STM32F4xx_HAL_Driver/Src/stm32f4xx_hal_rtc_ex.c ****   return HAL_OK;
 815              		.loc 1 565 3 view .LVU337
 816              		.loc 1 565 10 is_stmt 0 view .LVU338
 817 0066 2046     		mov	r0, r4
 566:Drivers/STM32F4xx_HAL_Driver/Src/stm32f4xx_hal_rtc_ex.c **** }
 818              		.loc 1 566 1 view .LVU339
 819 0068 30BC     		pop	{r4, r5}
 820              		.cfi_restore 5
 821              		.cfi_restore 4
 822              		.cfi_def_cfa_offset 0
 823 006a 7047     		bx	lr
 824              	.LVL64:
 825              	.L38:
 511:Drivers/STM32F4xx_HAL_Driver/Src/stm32f4xx_hal_rtc_ex.c **** 
 826              		.loc 1 511 3 discriminator 1 view .LVU340
 827 006c 0220     		movs	r0, #2
 828              	.LVL65:
 829              		.loc 1 566 1 view .LVU341
 830 006e 7047     		bx	lr
 831              	.L44:
 832              		.align	2
 833              	.L43:
 834 0070 003C0140 		.word	1073822720
 835              		.cfi_endproc
 836              	.LFE221:
 838              		.section	.text.HAL_RTCEx_DeactivateTamper,"ax",%progbits
 839              		.align	1
 840              		.p2align 2,,3
 841              		.global	HAL_RTCEx_DeactivateTamper
 842              		.syntax unified
 843              		.thumb
 844              		.thumb_func
 846              	HAL_RTCEx_DeactivateTamper:
 847              	.LVL66:
 848              	.LFB222:
 567:Drivers/STM32F4xx_HAL_Driver/Src/stm32f4xx_hal_rtc_ex.c **** 
 568:Drivers/STM32F4xx_HAL_Driver/Src/stm32f4xx_hal_rtc_ex.c **** /**
 569:Drivers/STM32F4xx_HAL_Driver/Src/stm32f4xx_hal_rtc_ex.c ****   * @brief  Deactivates Tamper.
 570:Drivers/STM32F4xx_HAL_Driver/Src/stm32f4xx_hal_rtc_ex.c ****   * @note   The tamper global interrupt bit will remain unchanged.
 571:Drivers/STM32F4xx_HAL_Driver/Src/stm32f4xx_hal_rtc_ex.c ****   * @param  hrtc pointer to a RTC_HandleTypeDef structure that contains
 572:Drivers/STM32F4xx_HAL_Driver/Src/stm32f4xx_hal_rtc_ex.c ****   *                the configuration information for RTC.
 573:Drivers/STM32F4xx_HAL_Driver/Src/stm32f4xx_hal_rtc_ex.c ****   * @param  Tamper Selected tamper pin.
 574:Drivers/STM32F4xx_HAL_Driver/Src/stm32f4xx_hal_rtc_ex.c ****   *          This parameter can be any combination of the following values:
 575:Drivers/STM32F4xx_HAL_Driver/Src/stm32f4xx_hal_rtc_ex.c ****   *            @arg RTC_TAMPER_1:  Tamper 1
 576:Drivers/STM32F4xx_HAL_Driver/Src/stm32f4xx_hal_rtc_ex.c ****   *            @arg RTC_TAMPER_2:  Tamper 2
 577:Drivers/STM32F4xx_HAL_Driver/Src/stm32f4xx_hal_rtc_ex.c ****   * @note   RTC_TAMPER_2 is not applicable to all devices.
 578:Drivers/STM32F4xx_HAL_Driver/Src/stm32f4xx_hal_rtc_ex.c ****   * @retval HAL status
 579:Drivers/STM32F4xx_HAL_Driver/Src/stm32f4xx_hal_rtc_ex.c ****   */
 580:Drivers/STM32F4xx_HAL_Driver/Src/stm32f4xx_hal_rtc_ex.c **** HAL_StatusTypeDef HAL_RTCEx_DeactivateTamper(RTC_HandleTypeDef *hrtc, uint32_t Tamper)
ARM GAS  C:\Users\Konrad\AppData\Local\Temp\ccbXyGXO.s 			page 28


 581:Drivers/STM32F4xx_HAL_Driver/Src/stm32f4xx_hal_rtc_ex.c **** {
 849              		.loc 1 581 1 is_stmt 1 view -0
 850              		.cfi_startproc
 851              		@ args = 0, pretend = 0, frame = 0
 852              		@ frame_needed = 0, uses_anonymous_args = 0
 853              		@ link register save eliminated.
 582:Drivers/STM32F4xx_HAL_Driver/Src/stm32f4xx_hal_rtc_ex.c ****   assert_param(IS_RTC_TAMPER(Tamper));
 854              		.loc 1 582 3 view .LVU343
 583:Drivers/STM32F4xx_HAL_Driver/Src/stm32f4xx_hal_rtc_ex.c **** 
 584:Drivers/STM32F4xx_HAL_Driver/Src/stm32f4xx_hal_rtc_ex.c ****   /* Process Locked */
 585:Drivers/STM32F4xx_HAL_Driver/Src/stm32f4xx_hal_rtc_ex.c ****   __HAL_LOCK(hrtc);
 855              		.loc 1 585 3 view .LVU344
 856              		.loc 1 585 3 view .LVU345
 857 0000 027F     		ldrb	r2, [r0, #28]	@ zero_extendqisi2
 858 0002 012A     		cmp	r2, #1
 581:Drivers/STM32F4xx_HAL_Driver/Src/stm32f4xx_hal_rtc_ex.c ****   assert_param(IS_RTC_TAMPER(Tamper));
 859              		.loc 1 581 1 is_stmt 0 view .LVU346
 860 0004 0346     		mov	r3, r0
 861              		.loc 1 585 3 view .LVU347
 862 0006 0ED0     		beq	.L47
 863              		.loc 1 585 3 is_stmt 1 discriminator 2 view .LVU348
 864              		.loc 1 585 3 discriminator 2 view .LVU349
 586:Drivers/STM32F4xx_HAL_Driver/Src/stm32f4xx_hal_rtc_ex.c **** 
 587:Drivers/STM32F4xx_HAL_Driver/Src/stm32f4xx_hal_rtc_ex.c ****   hrtc->State = HAL_RTC_STATE_BUSY;
 865              		.loc 1 587 3 view .LVU350
 588:Drivers/STM32F4xx_HAL_Driver/Src/stm32f4xx_hal_rtc_ex.c **** 
 589:Drivers/STM32F4xx_HAL_Driver/Src/stm32f4xx_hal_rtc_ex.c ****   /* Disable the selected Tamper pin */
 590:Drivers/STM32F4xx_HAL_Driver/Src/stm32f4xx_hal_rtc_ex.c ****   hrtc->Instance->TAFCR &= (uint32_t)~Tamper;
 866              		.loc 1 590 7 is_stmt 0 view .LVU351
 867 0008 0068     		ldr	r0, [r0]
 868              	.LVL67:
 587:Drivers/STM32F4xx_HAL_Driver/Src/stm32f4xx_hal_rtc_ex.c **** 
 869              		.loc 1 587 15 view .LVU352
 870 000a 0222     		movs	r2, #2
 871 000c 5A77     		strb	r2, [r3, #29]
 872              		.loc 1 590 3 is_stmt 1 view .LVU353
 873              		.loc 1 590 17 is_stmt 0 view .LVU354
 874 000e 026C     		ldr	r2, [r0, #64]
 591:Drivers/STM32F4xx_HAL_Driver/Src/stm32f4xx_hal_rtc_ex.c **** 
 592:Drivers/STM32F4xx_HAL_Driver/Src/stm32f4xx_hal_rtc_ex.c ****   hrtc->State = HAL_RTC_STATE_READY;
 593:Drivers/STM32F4xx_HAL_Driver/Src/stm32f4xx_hal_rtc_ex.c **** 
 594:Drivers/STM32F4xx_HAL_Driver/Src/stm32f4xx_hal_rtc_ex.c ****   /* Process Unlocked */
 595:Drivers/STM32F4xx_HAL_Driver/Src/stm32f4xx_hal_rtc_ex.c ****   __HAL_UNLOCK(hrtc);
 875              		.loc 1 595 3 view .LVU355
 876 0010 4FF0000C 		mov	ip, #0
 590:Drivers/STM32F4xx_HAL_Driver/Src/stm32f4xx_hal_rtc_ex.c **** 
 877              		.loc 1 590 25 view .LVU356
 878 0014 22EA0102 		bic	r2, r2, r1
 592:Drivers/STM32F4xx_HAL_Driver/Src/stm32f4xx_hal_rtc_ex.c **** 
 879              		.loc 1 592 15 view .LVU357
 880 0018 0121     		movs	r1, #1
 881              	.LVL68:
 590:Drivers/STM32F4xx_HAL_Driver/Src/stm32f4xx_hal_rtc_ex.c **** 
 882              		.loc 1 590 25 view .LVU358
 883 001a 0264     		str	r2, [r0, #64]
 592:Drivers/STM32F4xx_HAL_Driver/Src/stm32f4xx_hal_rtc_ex.c **** 
 884              		.loc 1 592 3 is_stmt 1 view .LVU359
ARM GAS  C:\Users\Konrad\AppData\Local\Temp\ccbXyGXO.s 			page 29


 596:Drivers/STM32F4xx_HAL_Driver/Src/stm32f4xx_hal_rtc_ex.c **** 
 597:Drivers/STM32F4xx_HAL_Driver/Src/stm32f4xx_hal_rtc_ex.c ****   return HAL_OK;
 885              		.loc 1 597 10 is_stmt 0 view .LVU360
 886 001c 6046     		mov	r0, ip
 592:Drivers/STM32F4xx_HAL_Driver/Src/stm32f4xx_hal_rtc_ex.c **** 
 887              		.loc 1 592 15 view .LVU361
 888 001e 5977     		strb	r1, [r3, #29]
 595:Drivers/STM32F4xx_HAL_Driver/Src/stm32f4xx_hal_rtc_ex.c **** 
 889              		.loc 1 595 3 is_stmt 1 view .LVU362
 595:Drivers/STM32F4xx_HAL_Driver/Src/stm32f4xx_hal_rtc_ex.c **** 
 890              		.loc 1 595 3 view .LVU363
 891 0020 83F81CC0 		strb	ip, [r3, #28]
 595:Drivers/STM32F4xx_HAL_Driver/Src/stm32f4xx_hal_rtc_ex.c **** 
 892              		.loc 1 595 3 view .LVU364
 893              		.loc 1 597 3 view .LVU365
 894              		.loc 1 597 10 is_stmt 0 view .LVU366
 895 0024 7047     		bx	lr
 896              	.LVL69:
 897              	.L47:
 585:Drivers/STM32F4xx_HAL_Driver/Src/stm32f4xx_hal_rtc_ex.c **** 
 898              		.loc 1 585 3 discriminator 1 view .LVU367
 899 0026 0220     		movs	r0, #2
 900              	.LVL70:
 598:Drivers/STM32F4xx_HAL_Driver/Src/stm32f4xx_hal_rtc_ex.c **** }
 901              		.loc 1 598 1 view .LVU368
 902 0028 7047     		bx	lr
 903              		.cfi_endproc
 904              	.LFE222:
 906 002a 00BF     		.section	.text.HAL_RTCEx_TimeStampEventCallback,"ax",%progbits
 907              		.align	1
 908              		.p2align 2,,3
 909              		.weak	HAL_RTCEx_TimeStampEventCallback
 910              		.syntax unified
 911              		.thumb
 912              		.thumb_func
 914              	HAL_RTCEx_TimeStampEventCallback:
 915              	.LFB250:
 916              		.cfi_startproc
 599:Drivers/STM32F4xx_HAL_Driver/Src/stm32f4xx_hal_rtc_ex.c **** 
 600:Drivers/STM32F4xx_HAL_Driver/Src/stm32f4xx_hal_rtc_ex.c **** /**
 601:Drivers/STM32F4xx_HAL_Driver/Src/stm32f4xx_hal_rtc_ex.c ****   * @brief  Handles Timestamp and Tamper interrupt request.
 602:Drivers/STM32F4xx_HAL_Driver/Src/stm32f4xx_hal_rtc_ex.c ****   * @param  hrtc pointer to a RTC_HandleTypeDef structure that contains
 603:Drivers/STM32F4xx_HAL_Driver/Src/stm32f4xx_hal_rtc_ex.c ****   *                the configuration information for RTC.
 604:Drivers/STM32F4xx_HAL_Driver/Src/stm32f4xx_hal_rtc_ex.c ****   * @retval None
 605:Drivers/STM32F4xx_HAL_Driver/Src/stm32f4xx_hal_rtc_ex.c ****   */
 606:Drivers/STM32F4xx_HAL_Driver/Src/stm32f4xx_hal_rtc_ex.c **** void HAL_RTCEx_TamperTimeStampIRQHandler(RTC_HandleTypeDef *hrtc)
 607:Drivers/STM32F4xx_HAL_Driver/Src/stm32f4xx_hal_rtc_ex.c **** {
 608:Drivers/STM32F4xx_HAL_Driver/Src/stm32f4xx_hal_rtc_ex.c ****   /* Get the Timestamp interrupt source enable status */
 609:Drivers/STM32F4xx_HAL_Driver/Src/stm32f4xx_hal_rtc_ex.c ****   if (__HAL_RTC_TIMESTAMP_GET_IT_SOURCE(hrtc, RTC_IT_TS) != 0U)
 610:Drivers/STM32F4xx_HAL_Driver/Src/stm32f4xx_hal_rtc_ex.c ****   {
 611:Drivers/STM32F4xx_HAL_Driver/Src/stm32f4xx_hal_rtc_ex.c ****     /* Get the pending status of the Timestamp Interrupt */
 612:Drivers/STM32F4xx_HAL_Driver/Src/stm32f4xx_hal_rtc_ex.c ****     if (__HAL_RTC_TIMESTAMP_GET_FLAG(hrtc, RTC_FLAG_TSF) != 0U)
 613:Drivers/STM32F4xx_HAL_Driver/Src/stm32f4xx_hal_rtc_ex.c ****     {
 614:Drivers/STM32F4xx_HAL_Driver/Src/stm32f4xx_hal_rtc_ex.c ****       /* Timestamp callback */
 615:Drivers/STM32F4xx_HAL_Driver/Src/stm32f4xx_hal_rtc_ex.c **** #if (USE_HAL_RTC_REGISTER_CALLBACKS == 1)
 616:Drivers/STM32F4xx_HAL_Driver/Src/stm32f4xx_hal_rtc_ex.c ****       hrtc->TimeStampEventCallback(hrtc);
 617:Drivers/STM32F4xx_HAL_Driver/Src/stm32f4xx_hal_rtc_ex.c **** #else
ARM GAS  C:\Users\Konrad\AppData\Local\Temp\ccbXyGXO.s 			page 30


 618:Drivers/STM32F4xx_HAL_Driver/Src/stm32f4xx_hal_rtc_ex.c ****       HAL_RTCEx_TimeStampEventCallback(hrtc);
 619:Drivers/STM32F4xx_HAL_Driver/Src/stm32f4xx_hal_rtc_ex.c **** #endif /* USE_HAL_RTC_REGISTER_CALLBACKS */
 620:Drivers/STM32F4xx_HAL_Driver/Src/stm32f4xx_hal_rtc_ex.c **** 
 621:Drivers/STM32F4xx_HAL_Driver/Src/stm32f4xx_hal_rtc_ex.c ****       /* Clear the Timestamp interrupt pending bit */
 622:Drivers/STM32F4xx_HAL_Driver/Src/stm32f4xx_hal_rtc_ex.c ****       __HAL_RTC_TIMESTAMP_CLEAR_FLAG(hrtc, RTC_FLAG_TSF);
 623:Drivers/STM32F4xx_HAL_Driver/Src/stm32f4xx_hal_rtc_ex.c ****     }
 624:Drivers/STM32F4xx_HAL_Driver/Src/stm32f4xx_hal_rtc_ex.c ****   }
 625:Drivers/STM32F4xx_HAL_Driver/Src/stm32f4xx_hal_rtc_ex.c **** 
 626:Drivers/STM32F4xx_HAL_Driver/Src/stm32f4xx_hal_rtc_ex.c ****   /* Get the Tamper 1 interrupt source enable status */
 627:Drivers/STM32F4xx_HAL_Driver/Src/stm32f4xx_hal_rtc_ex.c ****   if (__HAL_RTC_TAMPER_GET_IT_SOURCE(hrtc, RTC_IT_TAMP) != 0U)
 628:Drivers/STM32F4xx_HAL_Driver/Src/stm32f4xx_hal_rtc_ex.c ****   {
 629:Drivers/STM32F4xx_HAL_Driver/Src/stm32f4xx_hal_rtc_ex.c ****     /* Get the pending status of the Tamper 1 Interrupt */
 630:Drivers/STM32F4xx_HAL_Driver/Src/stm32f4xx_hal_rtc_ex.c ****     if (__HAL_RTC_TAMPER_GET_FLAG(hrtc, RTC_FLAG_TAMP1F) != 0U)
 631:Drivers/STM32F4xx_HAL_Driver/Src/stm32f4xx_hal_rtc_ex.c ****     {
 632:Drivers/STM32F4xx_HAL_Driver/Src/stm32f4xx_hal_rtc_ex.c ****       /* Tamper callback */
 633:Drivers/STM32F4xx_HAL_Driver/Src/stm32f4xx_hal_rtc_ex.c **** #if (USE_HAL_RTC_REGISTER_CALLBACKS == 1)
 634:Drivers/STM32F4xx_HAL_Driver/Src/stm32f4xx_hal_rtc_ex.c ****       hrtc->Tamper1EventCallback(hrtc);
 635:Drivers/STM32F4xx_HAL_Driver/Src/stm32f4xx_hal_rtc_ex.c **** #else
 636:Drivers/STM32F4xx_HAL_Driver/Src/stm32f4xx_hal_rtc_ex.c ****       HAL_RTCEx_Tamper1EventCallback(hrtc);
 637:Drivers/STM32F4xx_HAL_Driver/Src/stm32f4xx_hal_rtc_ex.c **** #endif /* USE_HAL_RTC_REGISTER_CALLBACKS */
 638:Drivers/STM32F4xx_HAL_Driver/Src/stm32f4xx_hal_rtc_ex.c **** 
 639:Drivers/STM32F4xx_HAL_Driver/Src/stm32f4xx_hal_rtc_ex.c ****       /* Clear the Tamper interrupt pending bit */
 640:Drivers/STM32F4xx_HAL_Driver/Src/stm32f4xx_hal_rtc_ex.c ****       __HAL_RTC_TAMPER_CLEAR_FLAG(hrtc, RTC_FLAG_TAMP1F);
 641:Drivers/STM32F4xx_HAL_Driver/Src/stm32f4xx_hal_rtc_ex.c ****     }
 642:Drivers/STM32F4xx_HAL_Driver/Src/stm32f4xx_hal_rtc_ex.c ****   }
 643:Drivers/STM32F4xx_HAL_Driver/Src/stm32f4xx_hal_rtc_ex.c **** 
 644:Drivers/STM32F4xx_HAL_Driver/Src/stm32f4xx_hal_rtc_ex.c **** #if defined(RTC_TAMPER2_SUPPORT)
 645:Drivers/STM32F4xx_HAL_Driver/Src/stm32f4xx_hal_rtc_ex.c ****   /* Get the Tamper 2 interrupt source enable status */
 646:Drivers/STM32F4xx_HAL_Driver/Src/stm32f4xx_hal_rtc_ex.c ****   if (__HAL_RTC_TAMPER_GET_IT_SOURCE(hrtc, RTC_IT_TAMP) != 0U)
 647:Drivers/STM32F4xx_HAL_Driver/Src/stm32f4xx_hal_rtc_ex.c ****   {
 648:Drivers/STM32F4xx_HAL_Driver/Src/stm32f4xx_hal_rtc_ex.c ****     /* Get the pending status of the Tamper 2 Interrupt */
 649:Drivers/STM32F4xx_HAL_Driver/Src/stm32f4xx_hal_rtc_ex.c ****     if (__HAL_RTC_TAMPER_GET_FLAG(hrtc, RTC_FLAG_TAMP2F) != 0U)
 650:Drivers/STM32F4xx_HAL_Driver/Src/stm32f4xx_hal_rtc_ex.c ****     {
 651:Drivers/STM32F4xx_HAL_Driver/Src/stm32f4xx_hal_rtc_ex.c ****       /* Tamper callback */
 652:Drivers/STM32F4xx_HAL_Driver/Src/stm32f4xx_hal_rtc_ex.c **** #if (USE_HAL_RTC_REGISTER_CALLBACKS == 1)
 653:Drivers/STM32F4xx_HAL_Driver/Src/stm32f4xx_hal_rtc_ex.c ****       hrtc->Tamper2EventCallback(hrtc);
 654:Drivers/STM32F4xx_HAL_Driver/Src/stm32f4xx_hal_rtc_ex.c **** #else
 655:Drivers/STM32F4xx_HAL_Driver/Src/stm32f4xx_hal_rtc_ex.c ****       HAL_RTCEx_Tamper2EventCallback(hrtc);
 656:Drivers/STM32F4xx_HAL_Driver/Src/stm32f4xx_hal_rtc_ex.c **** #endif /* USE_HAL_RTC_REGISTER_CALLBACKS */
 657:Drivers/STM32F4xx_HAL_Driver/Src/stm32f4xx_hal_rtc_ex.c **** 
 658:Drivers/STM32F4xx_HAL_Driver/Src/stm32f4xx_hal_rtc_ex.c ****       /* Clear the Tamper interrupt pending bit */
 659:Drivers/STM32F4xx_HAL_Driver/Src/stm32f4xx_hal_rtc_ex.c ****       __HAL_RTC_TAMPER_CLEAR_FLAG(hrtc, RTC_FLAG_TAMP2F);
 660:Drivers/STM32F4xx_HAL_Driver/Src/stm32f4xx_hal_rtc_ex.c ****     }
 661:Drivers/STM32F4xx_HAL_Driver/Src/stm32f4xx_hal_rtc_ex.c ****   }
 662:Drivers/STM32F4xx_HAL_Driver/Src/stm32f4xx_hal_rtc_ex.c **** #endif /* RTC_TAMPER2_SUPPORT */
 663:Drivers/STM32F4xx_HAL_Driver/Src/stm32f4xx_hal_rtc_ex.c **** 
 664:Drivers/STM32F4xx_HAL_Driver/Src/stm32f4xx_hal_rtc_ex.c ****   /* Clear the EXTI's Flag for RTC Timestamp and Tamper */
 665:Drivers/STM32F4xx_HAL_Driver/Src/stm32f4xx_hal_rtc_ex.c ****   __HAL_RTC_TAMPER_TIMESTAMP_EXTI_CLEAR_FLAG();
 666:Drivers/STM32F4xx_HAL_Driver/Src/stm32f4xx_hal_rtc_ex.c **** 
 667:Drivers/STM32F4xx_HAL_Driver/Src/stm32f4xx_hal_rtc_ex.c ****   /* Change RTC state */
 668:Drivers/STM32F4xx_HAL_Driver/Src/stm32f4xx_hal_rtc_ex.c ****   hrtc->State = HAL_RTC_STATE_READY;
 669:Drivers/STM32F4xx_HAL_Driver/Src/stm32f4xx_hal_rtc_ex.c **** }
 670:Drivers/STM32F4xx_HAL_Driver/Src/stm32f4xx_hal_rtc_ex.c **** 
 671:Drivers/STM32F4xx_HAL_Driver/Src/stm32f4xx_hal_rtc_ex.c **** /**
 672:Drivers/STM32F4xx_HAL_Driver/Src/stm32f4xx_hal_rtc_ex.c ****   * @brief  Timestamp callback.
 673:Drivers/STM32F4xx_HAL_Driver/Src/stm32f4xx_hal_rtc_ex.c ****   * @param  hrtc pointer to a RTC_HandleTypeDef structure that contains
 674:Drivers/STM32F4xx_HAL_Driver/Src/stm32f4xx_hal_rtc_ex.c ****   *                the configuration information for RTC.
ARM GAS  C:\Users\Konrad\AppData\Local\Temp\ccbXyGXO.s 			page 31


 675:Drivers/STM32F4xx_HAL_Driver/Src/stm32f4xx_hal_rtc_ex.c ****   * @retval None
 676:Drivers/STM32F4xx_HAL_Driver/Src/stm32f4xx_hal_rtc_ex.c ****   */
 677:Drivers/STM32F4xx_HAL_Driver/Src/stm32f4xx_hal_rtc_ex.c **** __weak void HAL_RTCEx_TimeStampEventCallback(RTC_HandleTypeDef *hrtc)
 917              		.loc 1 677 13 is_stmt 1 view -0
 918              		@ args = 0, pretend = 0, frame = 0
 919              		@ frame_needed = 0, uses_anonymous_args = 0
 920              		@ link register save eliminated.
 921 0000 7047     		bx	lr
 922              		.cfi_endproc
 923              	.LFE250:
 925 0002 00BF     		.section	.text.HAL_RTCEx_Tamper1EventCallback,"ax",%progbits
 926              		.align	1
 927              		.p2align 2,,3
 928              		.weak	HAL_RTCEx_Tamper1EventCallback
 929              		.syntax unified
 930              		.thumb
 931              		.thumb_func
 933              	HAL_RTCEx_Tamper1EventCallback:
 934              	.LVL71:
 935              	.LFB225:
 678:Drivers/STM32F4xx_HAL_Driver/Src/stm32f4xx_hal_rtc_ex.c **** {
 679:Drivers/STM32F4xx_HAL_Driver/Src/stm32f4xx_hal_rtc_ex.c ****   /* Prevent unused argument(s) compilation warning */
 680:Drivers/STM32F4xx_HAL_Driver/Src/stm32f4xx_hal_rtc_ex.c ****   UNUSED(hrtc);
 681:Drivers/STM32F4xx_HAL_Driver/Src/stm32f4xx_hal_rtc_ex.c **** 
 682:Drivers/STM32F4xx_HAL_Driver/Src/stm32f4xx_hal_rtc_ex.c ****   /* NOTE: This function should not be modified, when the callback is needed,
 683:Drivers/STM32F4xx_HAL_Driver/Src/stm32f4xx_hal_rtc_ex.c ****            the HAL_RTCEx_TimeStampEventCallback could be implemented in the user file
 684:Drivers/STM32F4xx_HAL_Driver/Src/stm32f4xx_hal_rtc_ex.c ****   */
 685:Drivers/STM32F4xx_HAL_Driver/Src/stm32f4xx_hal_rtc_ex.c **** }
 686:Drivers/STM32F4xx_HAL_Driver/Src/stm32f4xx_hal_rtc_ex.c **** 
 687:Drivers/STM32F4xx_HAL_Driver/Src/stm32f4xx_hal_rtc_ex.c **** /**
 688:Drivers/STM32F4xx_HAL_Driver/Src/stm32f4xx_hal_rtc_ex.c ****   * @brief  Tamper 1 callback.
 689:Drivers/STM32F4xx_HAL_Driver/Src/stm32f4xx_hal_rtc_ex.c ****   * @param  hrtc pointer to a RTC_HandleTypeDef structure that contains
 690:Drivers/STM32F4xx_HAL_Driver/Src/stm32f4xx_hal_rtc_ex.c ****   *                the configuration information for RTC.
 691:Drivers/STM32F4xx_HAL_Driver/Src/stm32f4xx_hal_rtc_ex.c ****   * @retval None
 692:Drivers/STM32F4xx_HAL_Driver/Src/stm32f4xx_hal_rtc_ex.c ****   */
 693:Drivers/STM32F4xx_HAL_Driver/Src/stm32f4xx_hal_rtc_ex.c **** __weak void HAL_RTCEx_Tamper1EventCallback(RTC_HandleTypeDef *hrtc)
 694:Drivers/STM32F4xx_HAL_Driver/Src/stm32f4xx_hal_rtc_ex.c **** {
 936              		.loc 1 694 1 view -0
 937              		.cfi_startproc
 938              		@ args = 0, pretend = 0, frame = 0
 939              		@ frame_needed = 0, uses_anonymous_args = 0
 940              		@ link register save eliminated.
 695:Drivers/STM32F4xx_HAL_Driver/Src/stm32f4xx_hal_rtc_ex.c ****   /* Prevent unused argument(s) compilation warning */
 696:Drivers/STM32F4xx_HAL_Driver/Src/stm32f4xx_hal_rtc_ex.c ****   UNUSED(hrtc);
 941              		.loc 1 696 3 view .LVU371
 697:Drivers/STM32F4xx_HAL_Driver/Src/stm32f4xx_hal_rtc_ex.c **** 
 698:Drivers/STM32F4xx_HAL_Driver/Src/stm32f4xx_hal_rtc_ex.c ****   /* NOTE: This function should not be modified, when the callback is needed,
 699:Drivers/STM32F4xx_HAL_Driver/Src/stm32f4xx_hal_rtc_ex.c ****            the HAL_RTCEx_Tamper1EventCallback could be implemented in the user file
 700:Drivers/STM32F4xx_HAL_Driver/Src/stm32f4xx_hal_rtc_ex.c ****    */
 701:Drivers/STM32F4xx_HAL_Driver/Src/stm32f4xx_hal_rtc_ex.c **** }
 942              		.loc 1 701 1 is_stmt 0 view .LVU372
 943 0000 7047     		bx	lr
 944              		.cfi_endproc
 945              	.LFE225:
 947 0002 00BF     		.section	.text.HAL_RTCEx_TamperTimeStampIRQHandler,"ax",%progbits
 948              		.align	1
 949              		.p2align 2,,3
ARM GAS  C:\Users\Konrad\AppData\Local\Temp\ccbXyGXO.s 			page 32


 950              		.global	HAL_RTCEx_TamperTimeStampIRQHandler
 951              		.syntax unified
 952              		.thumb
 953              		.thumb_func
 955              	HAL_RTCEx_TamperTimeStampIRQHandler:
 956              	.LVL72:
 957              	.LFB223:
 607:Drivers/STM32F4xx_HAL_Driver/Src/stm32f4xx_hal_rtc_ex.c ****   /* Get the Timestamp interrupt source enable status */
 958              		.loc 1 607 1 is_stmt 1 view -0
 959              		.cfi_startproc
 960              		@ args = 0, pretend = 0, frame = 0
 961              		@ frame_needed = 0, uses_anonymous_args = 0
 609:Drivers/STM32F4xx_HAL_Driver/Src/stm32f4xx_hal_rtc_ex.c ****   {
 962              		.loc 1 609 3 view .LVU374
 609:Drivers/STM32F4xx_HAL_Driver/Src/stm32f4xx_hal_rtc_ex.c ****   {
 963              		.loc 1 609 7 is_stmt 0 view .LVU375
 964 0000 0368     		ldr	r3, [r0]
 965 0002 9A68     		ldr	r2, [r3, #8]
 609:Drivers/STM32F4xx_HAL_Driver/Src/stm32f4xx_hal_rtc_ex.c ****   {
 966              		.loc 1 609 6 view .LVU376
 967 0004 1204     		lsls	r2, r2, #16
 607:Drivers/STM32F4xx_HAL_Driver/Src/stm32f4xx_hal_rtc_ex.c ****   /* Get the Timestamp interrupt source enable status */
 968              		.loc 1 607 1 view .LVU377
 969 0006 10B5     		push	{r4, lr}
 970              		.cfi_def_cfa_offset 8
 971              		.cfi_offset 4, -8
 972              		.cfi_offset 14, -4
 607:Drivers/STM32F4xx_HAL_Driver/Src/stm32f4xx_hal_rtc_ex.c ****   /* Get the Timestamp interrupt source enable status */
 973              		.loc 1 607 1 view .LVU378
 974 0008 0446     		mov	r4, r0
 609:Drivers/STM32F4xx_HAL_Driver/Src/stm32f4xx_hal_rtc_ex.c ****   {
 975              		.loc 1 609 6 view .LVU379
 976 000a 02D5     		bpl	.L51
 612:Drivers/STM32F4xx_HAL_Driver/Src/stm32f4xx_hal_rtc_ex.c ****     {
 977              		.loc 1 612 5 is_stmt 1 view .LVU380
 612:Drivers/STM32F4xx_HAL_Driver/Src/stm32f4xx_hal_rtc_ex.c ****     {
 978              		.loc 1 612 9 is_stmt 0 view .LVU381
 979 000c DA68     		ldr	r2, [r3, #12]
 612:Drivers/STM32F4xx_HAL_Driver/Src/stm32f4xx_hal_rtc_ex.c ****     {
 980              		.loc 1 612 8 view .LVU382
 981 000e 1105     		lsls	r1, r2, #20
 982 0010 16D4     		bmi	.L66
 983              	.LVL73:
 984              	.L51:
 627:Drivers/STM32F4xx_HAL_Driver/Src/stm32f4xx_hal_rtc_ex.c ****   {
 985              		.loc 1 627 3 is_stmt 1 view .LVU383
 627:Drivers/STM32F4xx_HAL_Driver/Src/stm32f4xx_hal_rtc_ex.c ****   {
 986              		.loc 1 627 7 is_stmt 0 view .LVU384
 987 0012 1A6C     		ldr	r2, [r3, #64]
 627:Drivers/STM32F4xx_HAL_Driver/Src/stm32f4xx_hal_rtc_ex.c ****   {
 988              		.loc 1 627 6 view .LVU385
 989 0014 5207     		lsls	r2, r2, #29
 990 0016 02D5     		bpl	.L52
 630:Drivers/STM32F4xx_HAL_Driver/Src/stm32f4xx_hal_rtc_ex.c ****     {
 991              		.loc 1 630 5 is_stmt 1 view .LVU386
 630:Drivers/STM32F4xx_HAL_Driver/Src/stm32f4xx_hal_rtc_ex.c ****     {
 992              		.loc 1 630 9 is_stmt 0 view .LVU387
ARM GAS  C:\Users\Konrad\AppData\Local\Temp\ccbXyGXO.s 			page 33


 993 0018 DB68     		ldr	r3, [r3, #12]
 630:Drivers/STM32F4xx_HAL_Driver/Src/stm32f4xx_hal_rtc_ex.c ****     {
 994              		.loc 1 630 8 view .LVU388
 995 001a 9B04     		lsls	r3, r3, #18
 996 001c 06D4     		bmi	.L67
 997              	.L52:
 665:Drivers/STM32F4xx_HAL_Driver/Src/stm32f4xx_hal_rtc_ex.c **** 
 998              		.loc 1 665 3 is_stmt 1 view .LVU389
 999 001e 0D4A     		ldr	r2, .L68
 1000 0020 4FF40011 		mov	r1, #2097152
 668:Drivers/STM32F4xx_HAL_Driver/Src/stm32f4xx_hal_rtc_ex.c **** }
 1001              		.loc 1 668 15 is_stmt 0 view .LVU390
 1002 0024 0123     		movs	r3, #1
 665:Drivers/STM32F4xx_HAL_Driver/Src/stm32f4xx_hal_rtc_ex.c **** 
 1003              		.loc 1 665 3 view .LVU391
 1004 0026 5161     		str	r1, [r2, #20]
 668:Drivers/STM32F4xx_HAL_Driver/Src/stm32f4xx_hal_rtc_ex.c **** }
 1005              		.loc 1 668 3 is_stmt 1 view .LVU392
 668:Drivers/STM32F4xx_HAL_Driver/Src/stm32f4xx_hal_rtc_ex.c **** }
 1006              		.loc 1 668 15 is_stmt 0 view .LVU393
 1007 0028 6377     		strb	r3, [r4, #29]
 669:Drivers/STM32F4xx_HAL_Driver/Src/stm32f4xx_hal_rtc_ex.c **** 
 1008              		.loc 1 669 1 view .LVU394
 1009 002a 10BD     		pop	{r4, pc}
 1010              	.LVL74:
 1011              	.L67:
 636:Drivers/STM32F4xx_HAL_Driver/Src/stm32f4xx_hal_rtc_ex.c **** #endif /* USE_HAL_RTC_REGISTER_CALLBACKS */
 1012              		.loc 1 636 7 is_stmt 1 view .LVU395
 1013 002c 2046     		mov	r0, r4
 1014 002e FFF7FEFF 		bl	HAL_RTCEx_Tamper1EventCallback
 1015              	.LVL75:
 640:Drivers/STM32F4xx_HAL_Driver/Src/stm32f4xx_hal_rtc_ex.c ****     }
 1016              		.loc 1 640 7 view .LVU396
 1017 0032 2268     		ldr	r2, [r4]
 1018 0034 D368     		ldr	r3, [r2, #12]
 1019 0036 DBB2     		uxtb	r3, r3
 1020 0038 63F40253 		orn	r3, r3, #8320
 1021 003c D360     		str	r3, [r2, #12]
 1022 003e EEE7     		b	.L52
 1023              	.LVL76:
 1024              	.L66:
 618:Drivers/STM32F4xx_HAL_Driver/Src/stm32f4xx_hal_rtc_ex.c **** #endif /* USE_HAL_RTC_REGISTER_CALLBACKS */
 1025              		.loc 1 618 7 view .LVU397
 1026 0040 FFF7FEFF 		bl	HAL_RTCEx_TimeStampEventCallback
 1027              	.LVL77:
 622:Drivers/STM32F4xx_HAL_Driver/Src/stm32f4xx_hal_rtc_ex.c ****     }
 1028              		.loc 1 622 7 view .LVU398
 1029 0044 2368     		ldr	r3, [r4]
 1030 0046 DA68     		ldr	r2, [r3, #12]
 1031 0048 D2B2     		uxtb	r2, r2
 1032 004a 62F40862 		orn	r2, r2, #2176
 1033 004e DA60     		str	r2, [r3, #12]
 1034 0050 DFE7     		b	.L51
 1035              	.L69:
 1036 0052 00BF     		.align	2
 1037              	.L68:
 1038 0054 003C0140 		.word	1073822720
ARM GAS  C:\Users\Konrad\AppData\Local\Temp\ccbXyGXO.s 			page 34


 1039              		.cfi_endproc
 1040              	.LFE223:
 1042              		.section	.text.HAL_RTCEx_PollForTimeStampEvent,"ax",%progbits
 1043              		.align	1
 1044              		.p2align 2,,3
 1045              		.global	HAL_RTCEx_PollForTimeStampEvent
 1046              		.syntax unified
 1047              		.thumb
 1048              		.thumb_func
 1050              	HAL_RTCEx_PollForTimeStampEvent:
 1051              	.LVL78:
 1052              	.LFB226:
 702:Drivers/STM32F4xx_HAL_Driver/Src/stm32f4xx_hal_rtc_ex.c **** 
 703:Drivers/STM32F4xx_HAL_Driver/Src/stm32f4xx_hal_rtc_ex.c **** #if defined(RTC_TAMPER2_SUPPORT)
 704:Drivers/STM32F4xx_HAL_Driver/Src/stm32f4xx_hal_rtc_ex.c **** /**
 705:Drivers/STM32F4xx_HAL_Driver/Src/stm32f4xx_hal_rtc_ex.c ****   * @brief  Tamper 2 callback.
 706:Drivers/STM32F4xx_HAL_Driver/Src/stm32f4xx_hal_rtc_ex.c ****   * @param  hrtc pointer to a RTC_HandleTypeDef structure that contains
 707:Drivers/STM32F4xx_HAL_Driver/Src/stm32f4xx_hal_rtc_ex.c ****   *                the configuration information for RTC.
 708:Drivers/STM32F4xx_HAL_Driver/Src/stm32f4xx_hal_rtc_ex.c ****   * @retval None
 709:Drivers/STM32F4xx_HAL_Driver/Src/stm32f4xx_hal_rtc_ex.c ****   */
 710:Drivers/STM32F4xx_HAL_Driver/Src/stm32f4xx_hal_rtc_ex.c **** __weak void HAL_RTCEx_Tamper2EventCallback(RTC_HandleTypeDef *hrtc)
 711:Drivers/STM32F4xx_HAL_Driver/Src/stm32f4xx_hal_rtc_ex.c **** {
 712:Drivers/STM32F4xx_HAL_Driver/Src/stm32f4xx_hal_rtc_ex.c ****   /* Prevent unused argument(s) compilation warning */
 713:Drivers/STM32F4xx_HAL_Driver/Src/stm32f4xx_hal_rtc_ex.c ****   UNUSED(hrtc);
 714:Drivers/STM32F4xx_HAL_Driver/Src/stm32f4xx_hal_rtc_ex.c **** 
 715:Drivers/STM32F4xx_HAL_Driver/Src/stm32f4xx_hal_rtc_ex.c ****   /* NOTE: This function should not be modified, when the callback is needed,
 716:Drivers/STM32F4xx_HAL_Driver/Src/stm32f4xx_hal_rtc_ex.c ****            the HAL_RTCEx_Tamper2EventCallback could be implemented in the user file
 717:Drivers/STM32F4xx_HAL_Driver/Src/stm32f4xx_hal_rtc_ex.c ****    */
 718:Drivers/STM32F4xx_HAL_Driver/Src/stm32f4xx_hal_rtc_ex.c **** }
 719:Drivers/STM32F4xx_HAL_Driver/Src/stm32f4xx_hal_rtc_ex.c **** #endif /* RTC_TAMPER2_SUPPORT */
 720:Drivers/STM32F4xx_HAL_Driver/Src/stm32f4xx_hal_rtc_ex.c **** 
 721:Drivers/STM32F4xx_HAL_Driver/Src/stm32f4xx_hal_rtc_ex.c **** /**
 722:Drivers/STM32F4xx_HAL_Driver/Src/stm32f4xx_hal_rtc_ex.c ****   * @brief  Handles Timestamp polling request.
 723:Drivers/STM32F4xx_HAL_Driver/Src/stm32f4xx_hal_rtc_ex.c ****   * @param  hrtc pointer to a RTC_HandleTypeDef structure that contains
 724:Drivers/STM32F4xx_HAL_Driver/Src/stm32f4xx_hal_rtc_ex.c ****   *                the configuration information for RTC.
 725:Drivers/STM32F4xx_HAL_Driver/Src/stm32f4xx_hal_rtc_ex.c ****   * @param  Timeout Timeout duration
 726:Drivers/STM32F4xx_HAL_Driver/Src/stm32f4xx_hal_rtc_ex.c ****   * @retval HAL status
 727:Drivers/STM32F4xx_HAL_Driver/Src/stm32f4xx_hal_rtc_ex.c ****   */
 728:Drivers/STM32F4xx_HAL_Driver/Src/stm32f4xx_hal_rtc_ex.c **** HAL_StatusTypeDef HAL_RTCEx_PollForTimeStampEvent(RTC_HandleTypeDef *hrtc, uint32_t Timeout)
 729:Drivers/STM32F4xx_HAL_Driver/Src/stm32f4xx_hal_rtc_ex.c **** {
 1053              		.loc 1 729 1 view -0
 1054              		.cfi_startproc
 1055              		@ args = 0, pretend = 0, frame = 0
 1056              		@ frame_needed = 0, uses_anonymous_args = 0
 730:Drivers/STM32F4xx_HAL_Driver/Src/stm32f4xx_hal_rtc_ex.c ****   uint32_t tickstart = 0U;
 1057              		.loc 1 730 3 view .LVU400
 731:Drivers/STM32F4xx_HAL_Driver/Src/stm32f4xx_hal_rtc_ex.c **** 
 732:Drivers/STM32F4xx_HAL_Driver/Src/stm32f4xx_hal_rtc_ex.c ****   /* Get tick */
 733:Drivers/STM32F4xx_HAL_Driver/Src/stm32f4xx_hal_rtc_ex.c ****   tickstart = HAL_GetTick();
 1058              		.loc 1 733 3 view .LVU401
 729:Drivers/STM32F4xx_HAL_Driver/Src/stm32f4xx_hal_rtc_ex.c ****   uint32_t tickstart = 0U;
 1059              		.loc 1 729 1 is_stmt 0 view .LVU402
 1060 0000 70B5     		push	{r4, r5, r6, lr}
 1061              		.cfi_def_cfa_offset 16
 1062              		.cfi_offset 4, -16
 1063              		.cfi_offset 5, -12
 1064              		.cfi_offset 6, -8
ARM GAS  C:\Users\Konrad\AppData\Local\Temp\ccbXyGXO.s 			page 35


 1065              		.cfi_offset 14, -4
 729:Drivers/STM32F4xx_HAL_Driver/Src/stm32f4xx_hal_rtc_ex.c ****   uint32_t tickstart = 0U;
 1066              		.loc 1 729 1 view .LVU403
 1067 0002 0446     		mov	r4, r0
 1068 0004 0D46     		mov	r5, r1
 1069              		.loc 1 733 15 view .LVU404
 1070 0006 FFF7FEFF 		bl	HAL_GetTick
 1071              	.LVL79:
 734:Drivers/STM32F4xx_HAL_Driver/Src/stm32f4xx_hal_rtc_ex.c **** 
 735:Drivers/STM32F4xx_HAL_Driver/Src/stm32f4xx_hal_rtc_ex.c ****   while (__HAL_RTC_TIMESTAMP_GET_FLAG(hrtc, RTC_FLAG_TSF) == 0U)
 1072              		.loc 1 735 3 is_stmt 1 view .LVU405
 1073 000a 6A1C     		adds	r2, r5, #1
 1074              		.loc 1 735 10 is_stmt 0 view .LVU406
 1075 000c 2368     		ldr	r3, [r4]
 1076 000e 15D0     		beq	.L71
 1077 0010 0646     		mov	r6, r0
 1078 0012 4DB9     		cbnz	r5, .L76
 1079 0014 19E0     		b	.L72
 1080              	.LVL80:
 1081              	.L85:
 736:Drivers/STM32F4xx_HAL_Driver/Src/stm32f4xx_hal_rtc_ex.c ****   {
 737:Drivers/STM32F4xx_HAL_Driver/Src/stm32f4xx_hal_rtc_ex.c ****     if (Timeout != HAL_MAX_DELAY)
 738:Drivers/STM32F4xx_HAL_Driver/Src/stm32f4xx_hal_rtc_ex.c ****     {
 739:Drivers/STM32F4xx_HAL_Driver/Src/stm32f4xx_hal_rtc_ex.c ****       if ((Timeout == 0U) || ((HAL_GetTick() - tickstart) > Timeout))
 1082              		.loc 1 739 32 discriminator 1 view .LVU407
 1083 0016 FFF7FEFF 		bl	HAL_GetTick
 1084              	.LVL81:
 1085              		.loc 1 739 46 discriminator 1 view .LVU408
 1086 001a 831B     		subs	r3, r0, r6
 1087              		.loc 1 739 27 discriminator 1 view .LVU409
 1088 001c 9D42     		cmp	r5, r3
 1089 001e 17D3     		bcc	.L74
 740:Drivers/STM32F4xx_HAL_Driver/Src/stm32f4xx_hal_rtc_ex.c ****       {
 741:Drivers/STM32F4xx_HAL_Driver/Src/stm32f4xx_hal_rtc_ex.c ****         hrtc->State = HAL_RTC_STATE_TIMEOUT;
 742:Drivers/STM32F4xx_HAL_Driver/Src/stm32f4xx_hal_rtc_ex.c ****         return HAL_TIMEOUT;
 743:Drivers/STM32F4xx_HAL_Driver/Src/stm32f4xx_hal_rtc_ex.c ****       }
 744:Drivers/STM32F4xx_HAL_Driver/Src/stm32f4xx_hal_rtc_ex.c ****     }
 745:Drivers/STM32F4xx_HAL_Driver/Src/stm32f4xx_hal_rtc_ex.c **** 
 746:Drivers/STM32F4xx_HAL_Driver/Src/stm32f4xx_hal_rtc_ex.c ****     if (__HAL_RTC_TIMESTAMP_GET_FLAG(hrtc, RTC_FLAG_TSOVF) != 0U)
 1090              		.loc 1 746 9 view .LVU410
 1091 0020 2368     		ldr	r3, [r4]
 1092              		.loc 1 746 5 is_stmt 1 view .LVU411
 1093              		.loc 1 746 9 is_stmt 0 view .LVU412
 1094 0022 DA68     		ldr	r2, [r3, #12]
 1095              		.loc 1 746 8 view .LVU413
 1096 0024 D004     		lsls	r0, r2, #19
 1097 0026 16D4     		bmi	.L75
 1098              	.L76:
 735:Drivers/STM32F4xx_HAL_Driver/Src/stm32f4xx_hal_rtc_ex.c ****   {
 1099              		.loc 1 735 59 is_stmt 1 view .LVU414
 737:Drivers/STM32F4xx_HAL_Driver/Src/stm32f4xx_hal_rtc_ex.c ****     {
 1100              		.loc 1 737 5 view .LVU415
 739:Drivers/STM32F4xx_HAL_Driver/Src/stm32f4xx_hal_rtc_ex.c ****       {
 1101              		.loc 1 739 7 view .LVU416
 735:Drivers/STM32F4xx_HAL_Driver/Src/stm32f4xx_hal_rtc_ex.c ****   {
 1102              		.loc 1 735 10 is_stmt 0 view .LVU417
 1103 0028 DB68     		ldr	r3, [r3, #12]
ARM GAS  C:\Users\Konrad\AppData\Local\Temp\ccbXyGXO.s 			page 36


 735:Drivers/STM32F4xx_HAL_Driver/Src/stm32f4xx_hal_rtc_ex.c ****   {
 1104              		.loc 1 735 59 view .LVU418
 1105 002a 1B05     		lsls	r3, r3, #20
 1106 002c F3D5     		bpl	.L85
 1107              	.L73:
 747:Drivers/STM32F4xx_HAL_Driver/Src/stm32f4xx_hal_rtc_ex.c ****     {
 748:Drivers/STM32F4xx_HAL_Driver/Src/stm32f4xx_hal_rtc_ex.c ****       /* Clear the Timestamp Overrun Flag */
 749:Drivers/STM32F4xx_HAL_Driver/Src/stm32f4xx_hal_rtc_ex.c ****       __HAL_RTC_TIMESTAMP_CLEAR_FLAG(hrtc, RTC_FLAG_TSOVF);
 750:Drivers/STM32F4xx_HAL_Driver/Src/stm32f4xx_hal_rtc_ex.c **** 
 751:Drivers/STM32F4xx_HAL_Driver/Src/stm32f4xx_hal_rtc_ex.c ****       /* Change Timestamp state */
 752:Drivers/STM32F4xx_HAL_Driver/Src/stm32f4xx_hal_rtc_ex.c ****       hrtc->State = HAL_RTC_STATE_ERROR;
 753:Drivers/STM32F4xx_HAL_Driver/Src/stm32f4xx_hal_rtc_ex.c **** 
 754:Drivers/STM32F4xx_HAL_Driver/Src/stm32f4xx_hal_rtc_ex.c ****       return HAL_ERROR;
 755:Drivers/STM32F4xx_HAL_Driver/Src/stm32f4xx_hal_rtc_ex.c ****     }
 756:Drivers/STM32F4xx_HAL_Driver/Src/stm32f4xx_hal_rtc_ex.c ****   }
 757:Drivers/STM32F4xx_HAL_Driver/Src/stm32f4xx_hal_rtc_ex.c **** 
 758:Drivers/STM32F4xx_HAL_Driver/Src/stm32f4xx_hal_rtc_ex.c ****   /* Change RTC state */
 759:Drivers/STM32F4xx_HAL_Driver/Src/stm32f4xx_hal_rtc_ex.c ****   hrtc->State = HAL_RTC_STATE_READY;
 1108              		.loc 1 759 3 is_stmt 1 view .LVU419
 1109              		.loc 1 759 15 is_stmt 0 view .LVU420
 1110 002e 0123     		movs	r3, #1
 1111 0030 6377     		strb	r3, [r4, #29]
 760:Drivers/STM32F4xx_HAL_Driver/Src/stm32f4xx_hal_rtc_ex.c **** 
 761:Drivers/STM32F4xx_HAL_Driver/Src/stm32f4xx_hal_rtc_ex.c ****   return HAL_OK;
 1112              		.loc 1 761 3 is_stmt 1 view .LVU421
 1113              		.loc 1 761 10 is_stmt 0 view .LVU422
 1114 0032 0020     		movs	r0, #0
 1115              	.LVL82:
 1116              	.L77:
 762:Drivers/STM32F4xx_HAL_Driver/Src/stm32f4xx_hal_rtc_ex.c **** }
 1117              		.loc 1 762 1 view .LVU423
 1118 0034 70BD     		pop	{r4, r5, r6, pc}
 1119              	.LVL83:
 1120              	.L86:
 746:Drivers/STM32F4xx_HAL_Driver/Src/stm32f4xx_hal_rtc_ex.c ****     {
 1121              		.loc 1 746 9 view .LVU424
 1122 0036 DA68     		ldr	r2, [r3, #12]
 746:Drivers/STM32F4xx_HAL_Driver/Src/stm32f4xx_hal_rtc_ex.c ****     {
 1123              		.loc 1 746 8 view .LVU425
 1124 0038 D204     		lsls	r2, r2, #19
 1125 003a 0CD4     		bmi	.L75
 1126              	.L71:
 735:Drivers/STM32F4xx_HAL_Driver/Src/stm32f4xx_hal_rtc_ex.c ****   {
 1127              		.loc 1 735 59 is_stmt 1 view .LVU426
 737:Drivers/STM32F4xx_HAL_Driver/Src/stm32f4xx_hal_rtc_ex.c ****     {
 1128              		.loc 1 737 5 view .LVU427
 746:Drivers/STM32F4xx_HAL_Driver/Src/stm32f4xx_hal_rtc_ex.c ****     {
 1129              		.loc 1 746 5 view .LVU428
 735:Drivers/STM32F4xx_HAL_Driver/Src/stm32f4xx_hal_rtc_ex.c ****   {
 1130              		.loc 1 735 10 is_stmt 0 view .LVU429
 1131 003c DA68     		ldr	r2, [r3, #12]
 735:Drivers/STM32F4xx_HAL_Driver/Src/stm32f4xx_hal_rtc_ex.c ****   {
 1132              		.loc 1 735 59 view .LVU430
 1133 003e 1105     		lsls	r1, r2, #20
 1134 0040 F9D5     		bpl	.L86
 759:Drivers/STM32F4xx_HAL_Driver/Src/stm32f4xx_hal_rtc_ex.c **** 
 1135              		.loc 1 759 3 is_stmt 1 view .LVU431
ARM GAS  C:\Users\Konrad\AppData\Local\Temp\ccbXyGXO.s 			page 37


 759:Drivers/STM32F4xx_HAL_Driver/Src/stm32f4xx_hal_rtc_ex.c **** 
 1136              		.loc 1 759 15 is_stmt 0 view .LVU432
 1137 0042 0123     		movs	r3, #1
 1138 0044 6377     		strb	r3, [r4, #29]
 761:Drivers/STM32F4xx_HAL_Driver/Src/stm32f4xx_hal_rtc_ex.c **** }
 1139              		.loc 1 761 3 is_stmt 1 view .LVU433
 761:Drivers/STM32F4xx_HAL_Driver/Src/stm32f4xx_hal_rtc_ex.c **** }
 1140              		.loc 1 761 10 is_stmt 0 view .LVU434
 1141 0046 0020     		movs	r0, #0
 1142              	.LVL84:
 761:Drivers/STM32F4xx_HAL_Driver/Src/stm32f4xx_hal_rtc_ex.c **** }
 1143              		.loc 1 761 10 view .LVU435
 1144 0048 F4E7     		b	.L77
 1145              	.LVL85:
 1146              	.L72:
 735:Drivers/STM32F4xx_HAL_Driver/Src/stm32f4xx_hal_rtc_ex.c ****   {
 1147              		.loc 1 735 59 is_stmt 1 view .LVU436
 735:Drivers/STM32F4xx_HAL_Driver/Src/stm32f4xx_hal_rtc_ex.c ****   {
 1148              		.loc 1 735 10 is_stmt 0 view .LVU437
 1149 004a DB68     		ldr	r3, [r3, #12]
 735:Drivers/STM32F4xx_HAL_Driver/Src/stm32f4xx_hal_rtc_ex.c ****   {
 1150              		.loc 1 735 59 view .LVU438
 1151 004c 1B05     		lsls	r3, r3, #20
 1152 004e EED4     		bmi	.L73
 1153              	.LVL86:
 1154              	.L74:
 741:Drivers/STM32F4xx_HAL_Driver/Src/stm32f4xx_hal_rtc_ex.c ****         return HAL_TIMEOUT;
 1155              		.loc 1 741 9 is_stmt 1 view .LVU439
 741:Drivers/STM32F4xx_HAL_Driver/Src/stm32f4xx_hal_rtc_ex.c ****         return HAL_TIMEOUT;
 1156              		.loc 1 741 21 is_stmt 0 view .LVU440
 1157 0050 0320     		movs	r0, #3
 1158 0052 6077     		strb	r0, [r4, #29]
 742:Drivers/STM32F4xx_HAL_Driver/Src/stm32f4xx_hal_rtc_ex.c ****       }
 1159              		.loc 1 742 9 is_stmt 1 view .LVU441
 1160              		.loc 1 762 1 is_stmt 0 view .LVU442
 1161 0054 70BD     		pop	{r4, r5, r6, pc}
 1162              	.LVL87:
 1163              	.L75:
 749:Drivers/STM32F4xx_HAL_Driver/Src/stm32f4xx_hal_rtc_ex.c **** 
 1164              		.loc 1 749 7 is_stmt 1 view .LVU443
 1165 0056 DA68     		ldr	r2, [r3, #12]
 1166 0058 D2B2     		uxtb	r2, r2
 752:Drivers/STM32F4xx_HAL_Driver/Src/stm32f4xx_hal_rtc_ex.c **** 
 1167              		.loc 1 752 19 is_stmt 0 view .LVU444
 1168 005a 0421     		movs	r1, #4
 749:Drivers/STM32F4xx_HAL_Driver/Src/stm32f4xx_hal_rtc_ex.c **** 
 1169              		.loc 1 749 7 view .LVU445
 1170 005c 62F48452 		orn	r2, r2, #4224
 1171 0060 DA60     		str	r2, [r3, #12]
 752:Drivers/STM32F4xx_HAL_Driver/Src/stm32f4xx_hal_rtc_ex.c **** 
 1172              		.loc 1 752 7 is_stmt 1 view .LVU446
 752:Drivers/STM32F4xx_HAL_Driver/Src/stm32f4xx_hal_rtc_ex.c **** 
 1173              		.loc 1 752 19 is_stmt 0 view .LVU447
 1174 0062 6177     		strb	r1, [r4, #29]
 754:Drivers/STM32F4xx_HAL_Driver/Src/stm32f4xx_hal_rtc_ex.c ****     }
 1175              		.loc 1 754 7 is_stmt 1 view .LVU448
 754:Drivers/STM32F4xx_HAL_Driver/Src/stm32f4xx_hal_rtc_ex.c ****     }
ARM GAS  C:\Users\Konrad\AppData\Local\Temp\ccbXyGXO.s 			page 38


 1176              		.loc 1 754 14 is_stmt 0 view .LVU449
 1177 0064 0120     		movs	r0, #1
 1178              		.loc 1 762 1 view .LVU450
 1179 0066 70BD     		pop	{r4, r5, r6, pc}
 1180              		.loc 1 762 1 view .LVU451
 1181              		.cfi_endproc
 1182              	.LFE226:
 1184              		.section	.text.HAL_RTCEx_PollForTamper1Event,"ax",%progbits
 1185              		.align	1
 1186              		.p2align 2,,3
 1187              		.global	HAL_RTCEx_PollForTamper1Event
 1188              		.syntax unified
 1189              		.thumb
 1190              		.thumb_func
 1192              	HAL_RTCEx_PollForTamper1Event:
 1193              	.LVL88:
 1194              	.LFB227:
 763:Drivers/STM32F4xx_HAL_Driver/Src/stm32f4xx_hal_rtc_ex.c **** 
 764:Drivers/STM32F4xx_HAL_Driver/Src/stm32f4xx_hal_rtc_ex.c **** /**
 765:Drivers/STM32F4xx_HAL_Driver/Src/stm32f4xx_hal_rtc_ex.c ****   * @brief  Handles Tamper 1 Polling.
 766:Drivers/STM32F4xx_HAL_Driver/Src/stm32f4xx_hal_rtc_ex.c ****   * @param  hrtc pointer to a RTC_HandleTypeDef structure that contains
 767:Drivers/STM32F4xx_HAL_Driver/Src/stm32f4xx_hal_rtc_ex.c ****   *                the configuration information for RTC.
 768:Drivers/STM32F4xx_HAL_Driver/Src/stm32f4xx_hal_rtc_ex.c ****   * @param  Timeout Timeout duration
 769:Drivers/STM32F4xx_HAL_Driver/Src/stm32f4xx_hal_rtc_ex.c ****   * @retval HAL status
 770:Drivers/STM32F4xx_HAL_Driver/Src/stm32f4xx_hal_rtc_ex.c ****   */
 771:Drivers/STM32F4xx_HAL_Driver/Src/stm32f4xx_hal_rtc_ex.c **** HAL_StatusTypeDef HAL_RTCEx_PollForTamper1Event(RTC_HandleTypeDef *hrtc, uint32_t Timeout)
 772:Drivers/STM32F4xx_HAL_Driver/Src/stm32f4xx_hal_rtc_ex.c **** {
 1195              		.loc 1 772 1 is_stmt 1 view -0
 1196              		.cfi_startproc
 1197              		@ args = 0, pretend = 0, frame = 0
 1198              		@ frame_needed = 0, uses_anonymous_args = 0
 773:Drivers/STM32F4xx_HAL_Driver/Src/stm32f4xx_hal_rtc_ex.c ****   uint32_t tickstart = 0U;
 1199              		.loc 1 773 3 view .LVU453
 774:Drivers/STM32F4xx_HAL_Driver/Src/stm32f4xx_hal_rtc_ex.c **** 
 775:Drivers/STM32F4xx_HAL_Driver/Src/stm32f4xx_hal_rtc_ex.c ****   /* Get tick */
 776:Drivers/STM32F4xx_HAL_Driver/Src/stm32f4xx_hal_rtc_ex.c ****   tickstart = HAL_GetTick();
 1200              		.loc 1 776 3 view .LVU454
 772:Drivers/STM32F4xx_HAL_Driver/Src/stm32f4xx_hal_rtc_ex.c ****   uint32_t tickstart = 0U;
 1201              		.loc 1 772 1 is_stmt 0 view .LVU455
 1202 0000 70B5     		push	{r4, r5, r6, lr}
 1203              		.cfi_def_cfa_offset 16
 1204              		.cfi_offset 4, -16
 1205              		.cfi_offset 5, -12
 1206              		.cfi_offset 6, -8
 1207              		.cfi_offset 14, -4
 772:Drivers/STM32F4xx_HAL_Driver/Src/stm32f4xx_hal_rtc_ex.c ****   uint32_t tickstart = 0U;
 1208              		.loc 1 772 1 view .LVU456
 1209 0002 0446     		mov	r4, r0
 1210 0004 0D46     		mov	r5, r1
 1211              		.loc 1 776 15 view .LVU457
 1212 0006 FFF7FEFF 		bl	HAL_GetTick
 1213              	.LVL89:
 777:Drivers/STM32F4xx_HAL_Driver/Src/stm32f4xx_hal_rtc_ex.c **** 
 778:Drivers/STM32F4xx_HAL_Driver/Src/stm32f4xx_hal_rtc_ex.c ****   /* Get the status of the Interrupt */
 779:Drivers/STM32F4xx_HAL_Driver/Src/stm32f4xx_hal_rtc_ex.c ****   while (__HAL_RTC_TAMPER_GET_FLAG(hrtc, RTC_FLAG_TAMP1F) == 0U)
 1214              		.loc 1 779 3 is_stmt 1 view .LVU458
 1215 000a 6E1C     		adds	r6, r5, #1
ARM GAS  C:\Users\Konrad\AppData\Local\Temp\ccbXyGXO.s 			page 39


 1216              		.loc 1 779 10 is_stmt 0 view .LVU459
 1217 000c 2268     		ldr	r2, [r4]
 1218 000e 0BD1     		bne	.L88
 1219              	.LVL90:
 1220              	.L89:
 1221              		.loc 1 779 59 is_stmt 1 view .LVU460
 1222              		.loc 1 779 10 is_stmt 0 view .LVU461
 1223 0010 D368     		ldr	r3, [r2, #12]
 1224              		.loc 1 779 59 view .LVU462
 1225 0012 9804     		lsls	r0, r3, #18
 1226 0014 FCD5     		bpl	.L89
 1227              	.L90:
 780:Drivers/STM32F4xx_HAL_Driver/Src/stm32f4xx_hal_rtc_ex.c ****   {
 781:Drivers/STM32F4xx_HAL_Driver/Src/stm32f4xx_hal_rtc_ex.c ****     if (Timeout != HAL_MAX_DELAY)
 782:Drivers/STM32F4xx_HAL_Driver/Src/stm32f4xx_hal_rtc_ex.c ****     {
 783:Drivers/STM32F4xx_HAL_Driver/Src/stm32f4xx_hal_rtc_ex.c ****       if ((Timeout == 0U) || ((HAL_GetTick() - tickstart) > Timeout))
 784:Drivers/STM32F4xx_HAL_Driver/Src/stm32f4xx_hal_rtc_ex.c ****       {
 785:Drivers/STM32F4xx_HAL_Driver/Src/stm32f4xx_hal_rtc_ex.c ****         hrtc->State = HAL_RTC_STATE_TIMEOUT;
 786:Drivers/STM32F4xx_HAL_Driver/Src/stm32f4xx_hal_rtc_ex.c ****         return HAL_TIMEOUT;
 787:Drivers/STM32F4xx_HAL_Driver/Src/stm32f4xx_hal_rtc_ex.c ****       }
 788:Drivers/STM32F4xx_HAL_Driver/Src/stm32f4xx_hal_rtc_ex.c ****     }
 789:Drivers/STM32F4xx_HAL_Driver/Src/stm32f4xx_hal_rtc_ex.c ****   }
 790:Drivers/STM32F4xx_HAL_Driver/Src/stm32f4xx_hal_rtc_ex.c **** 
 791:Drivers/STM32F4xx_HAL_Driver/Src/stm32f4xx_hal_rtc_ex.c ****   /* Clear the Tamper Flag */
 792:Drivers/STM32F4xx_HAL_Driver/Src/stm32f4xx_hal_rtc_ex.c ****   __HAL_RTC_TAMPER_CLEAR_FLAG(hrtc, RTC_FLAG_TAMP1F);
 1228              		.loc 1 792 3 is_stmt 1 view .LVU463
 1229 0016 D368     		ldr	r3, [r2, #12]
 1230 0018 DBB2     		uxtb	r3, r3
 793:Drivers/STM32F4xx_HAL_Driver/Src/stm32f4xx_hal_rtc_ex.c **** 
 794:Drivers/STM32F4xx_HAL_Driver/Src/stm32f4xx_hal_rtc_ex.c ****   /* Change RTC state */
 795:Drivers/STM32F4xx_HAL_Driver/Src/stm32f4xx_hal_rtc_ex.c ****   hrtc->State = HAL_RTC_STATE_READY;
 1231              		.loc 1 795 15 is_stmt 0 view .LVU464
 1232 001a 0121     		movs	r1, #1
 792:Drivers/STM32F4xx_HAL_Driver/Src/stm32f4xx_hal_rtc_ex.c **** 
 1233              		.loc 1 792 3 view .LVU465
 1234 001c 63F40253 		orn	r3, r3, #8320
 1235 0020 D360     		str	r3, [r2, #12]
 1236              		.loc 1 795 3 is_stmt 1 view .LVU466
 1237              		.loc 1 795 15 is_stmt 0 view .LVU467
 1238 0022 6177     		strb	r1, [r4, #29]
 796:Drivers/STM32F4xx_HAL_Driver/Src/stm32f4xx_hal_rtc_ex.c **** 
 797:Drivers/STM32F4xx_HAL_Driver/Src/stm32f4xx_hal_rtc_ex.c ****   return HAL_OK;
 1239              		.loc 1 797 3 is_stmt 1 view .LVU468
 1240              		.loc 1 797 10 is_stmt 0 view .LVU469
 1241 0024 0020     		movs	r0, #0
 798:Drivers/STM32F4xx_HAL_Driver/Src/stm32f4xx_hal_rtc_ex.c **** }
 1242              		.loc 1 798 1 view .LVU470
 1243 0026 70BD     		pop	{r4, r5, r6, pc}
 1244              	.LVL91:
 1245              	.L88:
 779:Drivers/STM32F4xx_HAL_Driver/Src/stm32f4xx_hal_rtc_ex.c ****   {
 1246              		.loc 1 779 59 is_stmt 1 view .LVU471
 779:Drivers/STM32F4xx_HAL_Driver/Src/stm32f4xx_hal_rtc_ex.c ****   {
 1247              		.loc 1 779 10 is_stmt 0 view .LVU472
 1248 0028 D368     		ldr	r3, [r2, #12]
 779:Drivers/STM32F4xx_HAL_Driver/Src/stm32f4xx_hal_rtc_ex.c ****   {
 1249              		.loc 1 779 59 view .LVU473
ARM GAS  C:\Users\Konrad\AppData\Local\Temp\ccbXyGXO.s 			page 40


 1250 002a 9B04     		lsls	r3, r3, #18
 1251 002c F3D4     		bmi	.L90
 781:Drivers/STM32F4xx_HAL_Driver/Src/stm32f4xx_hal_rtc_ex.c ****     {
 1252              		.loc 1 781 5 is_stmt 1 view .LVU474
 783:Drivers/STM32F4xx_HAL_Driver/Src/stm32f4xx_hal_rtc_ex.c ****       {
 1253              		.loc 1 783 7 view .LVU475
 1254 002e 0646     		mov	r6, r0
 783:Drivers/STM32F4xx_HAL_Driver/Src/stm32f4xx_hal_rtc_ex.c ****       {
 1255              		.loc 1 783 10 is_stmt 0 view .LVU476
 1256 0030 4DB1     		cbz	r5, .L93
 1257              	.LVL92:
 1258              	.L91:
 783:Drivers/STM32F4xx_HAL_Driver/Src/stm32f4xx_hal_rtc_ex.c ****       {
 1259              		.loc 1 783 32 discriminator 1 view .LVU477
 1260 0032 FFF7FEFF 		bl	HAL_GetTick
 1261              	.LVL93:
 783:Drivers/STM32F4xx_HAL_Driver/Src/stm32f4xx_hal_rtc_ex.c ****       {
 1262              		.loc 1 783 46 discriminator 1 view .LVU478
 1263 0036 831B     		subs	r3, r0, r6
 783:Drivers/STM32F4xx_HAL_Driver/Src/stm32f4xx_hal_rtc_ex.c ****       {
 1264              		.loc 1 783 27 discriminator 1 view .LVU479
 1265 0038 AB42     		cmp	r3, r5
 1266 003a 04D8     		bhi	.L93
 779:Drivers/STM32F4xx_HAL_Driver/Src/stm32f4xx_hal_rtc_ex.c ****   {
 1267              		.loc 1 779 10 view .LVU480
 1268 003c 2268     		ldr	r2, [r4]
 779:Drivers/STM32F4xx_HAL_Driver/Src/stm32f4xx_hal_rtc_ex.c ****   {
 1269              		.loc 1 779 59 is_stmt 1 view .LVU481
 779:Drivers/STM32F4xx_HAL_Driver/Src/stm32f4xx_hal_rtc_ex.c ****   {
 1270              		.loc 1 779 10 is_stmt 0 view .LVU482
 1271 003e D368     		ldr	r3, [r2, #12]
 779:Drivers/STM32F4xx_HAL_Driver/Src/stm32f4xx_hal_rtc_ex.c ****   {
 1272              		.loc 1 779 59 view .LVU483
 1273 0040 9904     		lsls	r1, r3, #18
 1274 0042 F6D5     		bpl	.L91
 1275 0044 E7E7     		b	.L90
 1276              	.L93:
 785:Drivers/STM32F4xx_HAL_Driver/Src/stm32f4xx_hal_rtc_ex.c ****         return HAL_TIMEOUT;
 1277              		.loc 1 785 9 is_stmt 1 view .LVU484
 785:Drivers/STM32F4xx_HAL_Driver/Src/stm32f4xx_hal_rtc_ex.c ****         return HAL_TIMEOUT;
 1278              		.loc 1 785 21 is_stmt 0 view .LVU485
 1279 0046 0320     		movs	r0, #3
 1280 0048 6077     		strb	r0, [r4, #29]
 786:Drivers/STM32F4xx_HAL_Driver/Src/stm32f4xx_hal_rtc_ex.c ****       }
 1281              		.loc 1 786 9 is_stmt 1 view .LVU486
 1282              		.loc 1 798 1 is_stmt 0 view .LVU487
 1283 004a 70BD     		pop	{r4, r5, r6, pc}
 1284              		.loc 1 798 1 view .LVU488
 1285              		.cfi_endproc
 1286              	.LFE227:
 1288              		.section	.text.HAL_RTCEx_SetWakeUpTimer,"ax",%progbits
 1289              		.align	1
 1290              		.p2align 2,,3
 1291              		.global	HAL_RTCEx_SetWakeUpTimer
 1292              		.syntax unified
 1293              		.thumb
 1294              		.thumb_func
ARM GAS  C:\Users\Konrad\AppData\Local\Temp\ccbXyGXO.s 			page 41


 1296              	HAL_RTCEx_SetWakeUpTimer:
 1297              	.LVL94:
 1298              	.LFB228:
 799:Drivers/STM32F4xx_HAL_Driver/Src/stm32f4xx_hal_rtc_ex.c **** 
 800:Drivers/STM32F4xx_HAL_Driver/Src/stm32f4xx_hal_rtc_ex.c **** #if defined(RTC_TAMPER2_SUPPORT)
 801:Drivers/STM32F4xx_HAL_Driver/Src/stm32f4xx_hal_rtc_ex.c **** /**
 802:Drivers/STM32F4xx_HAL_Driver/Src/stm32f4xx_hal_rtc_ex.c ****   * @brief  Handles Tamper 2 Polling.
 803:Drivers/STM32F4xx_HAL_Driver/Src/stm32f4xx_hal_rtc_ex.c ****   * @param  hrtc pointer to a RTC_HandleTypeDef structure that contains
 804:Drivers/STM32F4xx_HAL_Driver/Src/stm32f4xx_hal_rtc_ex.c ****   *                the configuration information for RTC.
 805:Drivers/STM32F4xx_HAL_Driver/Src/stm32f4xx_hal_rtc_ex.c ****   * @param  Timeout Timeout duration
 806:Drivers/STM32F4xx_HAL_Driver/Src/stm32f4xx_hal_rtc_ex.c ****   * @retval HAL status
 807:Drivers/STM32F4xx_HAL_Driver/Src/stm32f4xx_hal_rtc_ex.c ****   */
 808:Drivers/STM32F4xx_HAL_Driver/Src/stm32f4xx_hal_rtc_ex.c **** HAL_StatusTypeDef HAL_RTCEx_PollForTamper2Event(RTC_HandleTypeDef *hrtc, uint32_t Timeout)
 809:Drivers/STM32F4xx_HAL_Driver/Src/stm32f4xx_hal_rtc_ex.c **** {
 810:Drivers/STM32F4xx_HAL_Driver/Src/stm32f4xx_hal_rtc_ex.c ****   uint32_t tickstart = 0U;
 811:Drivers/STM32F4xx_HAL_Driver/Src/stm32f4xx_hal_rtc_ex.c **** 
 812:Drivers/STM32F4xx_HAL_Driver/Src/stm32f4xx_hal_rtc_ex.c ****   /* Get tick */
 813:Drivers/STM32F4xx_HAL_Driver/Src/stm32f4xx_hal_rtc_ex.c ****   tickstart = HAL_GetTick();
 814:Drivers/STM32F4xx_HAL_Driver/Src/stm32f4xx_hal_rtc_ex.c **** 
 815:Drivers/STM32F4xx_HAL_Driver/Src/stm32f4xx_hal_rtc_ex.c ****   /* Get the status of the Interrupt */
 816:Drivers/STM32F4xx_HAL_Driver/Src/stm32f4xx_hal_rtc_ex.c ****   while (__HAL_RTC_TAMPER_GET_FLAG(hrtc, RTC_FLAG_TAMP2F) == 0U)
 817:Drivers/STM32F4xx_HAL_Driver/Src/stm32f4xx_hal_rtc_ex.c ****   {
 818:Drivers/STM32F4xx_HAL_Driver/Src/stm32f4xx_hal_rtc_ex.c ****     if (Timeout != HAL_MAX_DELAY)
 819:Drivers/STM32F4xx_HAL_Driver/Src/stm32f4xx_hal_rtc_ex.c ****     {
 820:Drivers/STM32F4xx_HAL_Driver/Src/stm32f4xx_hal_rtc_ex.c ****       if ((Timeout == 0U) || ((HAL_GetTick() - tickstart) > Timeout))
 821:Drivers/STM32F4xx_HAL_Driver/Src/stm32f4xx_hal_rtc_ex.c ****       {
 822:Drivers/STM32F4xx_HAL_Driver/Src/stm32f4xx_hal_rtc_ex.c ****         hrtc->State = HAL_RTC_STATE_TIMEOUT;
 823:Drivers/STM32F4xx_HAL_Driver/Src/stm32f4xx_hal_rtc_ex.c ****         return HAL_TIMEOUT;
 824:Drivers/STM32F4xx_HAL_Driver/Src/stm32f4xx_hal_rtc_ex.c ****       }
 825:Drivers/STM32F4xx_HAL_Driver/Src/stm32f4xx_hal_rtc_ex.c ****     }
 826:Drivers/STM32F4xx_HAL_Driver/Src/stm32f4xx_hal_rtc_ex.c ****   }
 827:Drivers/STM32F4xx_HAL_Driver/Src/stm32f4xx_hal_rtc_ex.c **** 
 828:Drivers/STM32F4xx_HAL_Driver/Src/stm32f4xx_hal_rtc_ex.c ****   /* Clear the Tamper Flag */
 829:Drivers/STM32F4xx_HAL_Driver/Src/stm32f4xx_hal_rtc_ex.c ****   __HAL_RTC_TAMPER_CLEAR_FLAG(hrtc, RTC_FLAG_TAMP2F);
 830:Drivers/STM32F4xx_HAL_Driver/Src/stm32f4xx_hal_rtc_ex.c **** 
 831:Drivers/STM32F4xx_HAL_Driver/Src/stm32f4xx_hal_rtc_ex.c ****   /* Change RTC state */
 832:Drivers/STM32F4xx_HAL_Driver/Src/stm32f4xx_hal_rtc_ex.c ****   hrtc->State = HAL_RTC_STATE_READY;
 833:Drivers/STM32F4xx_HAL_Driver/Src/stm32f4xx_hal_rtc_ex.c **** 
 834:Drivers/STM32F4xx_HAL_Driver/Src/stm32f4xx_hal_rtc_ex.c ****   return HAL_OK;
 835:Drivers/STM32F4xx_HAL_Driver/Src/stm32f4xx_hal_rtc_ex.c **** }
 836:Drivers/STM32F4xx_HAL_Driver/Src/stm32f4xx_hal_rtc_ex.c **** #endif /* RTC_TAMPER2_SUPPORT */
 837:Drivers/STM32F4xx_HAL_Driver/Src/stm32f4xx_hal_rtc_ex.c **** 
 838:Drivers/STM32F4xx_HAL_Driver/Src/stm32f4xx_hal_rtc_ex.c **** /**
 839:Drivers/STM32F4xx_HAL_Driver/Src/stm32f4xx_hal_rtc_ex.c ****   * @}
 840:Drivers/STM32F4xx_HAL_Driver/Src/stm32f4xx_hal_rtc_ex.c ****   */
 841:Drivers/STM32F4xx_HAL_Driver/Src/stm32f4xx_hal_rtc_ex.c **** 
 842:Drivers/STM32F4xx_HAL_Driver/Src/stm32f4xx_hal_rtc_ex.c **** /** @defgroup RTCEx_Exported_Functions_Group2 RTC Wakeup functions
 843:Drivers/STM32F4xx_HAL_Driver/Src/stm32f4xx_hal_rtc_ex.c ****   * @brief    RTC Wakeup functions
 844:Drivers/STM32F4xx_HAL_Driver/Src/stm32f4xx_hal_rtc_ex.c ****   *
 845:Drivers/STM32F4xx_HAL_Driver/Src/stm32f4xx_hal_rtc_ex.c **** @verbatim
 846:Drivers/STM32F4xx_HAL_Driver/Src/stm32f4xx_hal_rtc_ex.c ****  ===============================================================================
 847:Drivers/STM32F4xx_HAL_Driver/Src/stm32f4xx_hal_rtc_ex.c ****                         ##### RTC Wakeup functions #####
 848:Drivers/STM32F4xx_HAL_Driver/Src/stm32f4xx_hal_rtc_ex.c ****  ===============================================================================
 849:Drivers/STM32F4xx_HAL_Driver/Src/stm32f4xx_hal_rtc_ex.c **** 
 850:Drivers/STM32F4xx_HAL_Driver/Src/stm32f4xx_hal_rtc_ex.c ****  [..] This section provides functions allowing to configure Wakeup feature
 851:Drivers/STM32F4xx_HAL_Driver/Src/stm32f4xx_hal_rtc_ex.c **** 
 852:Drivers/STM32F4xx_HAL_Driver/Src/stm32f4xx_hal_rtc_ex.c **** @endverbatim
ARM GAS  C:\Users\Konrad\AppData\Local\Temp\ccbXyGXO.s 			page 42


 853:Drivers/STM32F4xx_HAL_Driver/Src/stm32f4xx_hal_rtc_ex.c ****   * @{
 854:Drivers/STM32F4xx_HAL_Driver/Src/stm32f4xx_hal_rtc_ex.c ****   */
 855:Drivers/STM32F4xx_HAL_Driver/Src/stm32f4xx_hal_rtc_ex.c **** 
 856:Drivers/STM32F4xx_HAL_Driver/Src/stm32f4xx_hal_rtc_ex.c **** /**
 857:Drivers/STM32F4xx_HAL_Driver/Src/stm32f4xx_hal_rtc_ex.c ****   * @brief  Sets wakeup timer.
 858:Drivers/STM32F4xx_HAL_Driver/Src/stm32f4xx_hal_rtc_ex.c ****   * @param  hrtc pointer to a RTC_HandleTypeDef structure that contains
 859:Drivers/STM32F4xx_HAL_Driver/Src/stm32f4xx_hal_rtc_ex.c ****   *                the configuration information for RTC.
 860:Drivers/STM32F4xx_HAL_Driver/Src/stm32f4xx_hal_rtc_ex.c ****   * @param  WakeUpCounter Wakeup counter
 861:Drivers/STM32F4xx_HAL_Driver/Src/stm32f4xx_hal_rtc_ex.c ****   * @param  WakeUpClock Wakeup clock
 862:Drivers/STM32F4xx_HAL_Driver/Src/stm32f4xx_hal_rtc_ex.c ****   * @retval HAL status
 863:Drivers/STM32F4xx_HAL_Driver/Src/stm32f4xx_hal_rtc_ex.c ****   */
 864:Drivers/STM32F4xx_HAL_Driver/Src/stm32f4xx_hal_rtc_ex.c **** HAL_StatusTypeDef HAL_RTCEx_SetWakeUpTimer(RTC_HandleTypeDef *hrtc, uint32_t WakeUpCounter, uint32_
 865:Drivers/STM32F4xx_HAL_Driver/Src/stm32f4xx_hal_rtc_ex.c **** {
 1299              		.loc 1 865 1 is_stmt 1 view -0
 1300              		.cfi_startproc
 1301              		@ args = 0, pretend = 0, frame = 0
 1302              		@ frame_needed = 0, uses_anonymous_args = 0
 866:Drivers/STM32F4xx_HAL_Driver/Src/stm32f4xx_hal_rtc_ex.c ****   uint32_t tickstart = 0U;
 1303              		.loc 1 866 3 view .LVU490
 867:Drivers/STM32F4xx_HAL_Driver/Src/stm32f4xx_hal_rtc_ex.c **** 
 868:Drivers/STM32F4xx_HAL_Driver/Src/stm32f4xx_hal_rtc_ex.c ****   /* Check the parameters */
 869:Drivers/STM32F4xx_HAL_Driver/Src/stm32f4xx_hal_rtc_ex.c ****   assert_param(IS_RTC_WAKEUP_CLOCK(WakeUpClock));
 1304              		.loc 1 869 3 view .LVU491
 870:Drivers/STM32F4xx_HAL_Driver/Src/stm32f4xx_hal_rtc_ex.c ****   assert_param(IS_RTC_WAKEUP_COUNTER(WakeUpCounter));
 1305              		.loc 1 870 3 view .LVU492
 871:Drivers/STM32F4xx_HAL_Driver/Src/stm32f4xx_hal_rtc_ex.c **** 
 872:Drivers/STM32F4xx_HAL_Driver/Src/stm32f4xx_hal_rtc_ex.c ****   /* Process Locked */
 873:Drivers/STM32F4xx_HAL_Driver/Src/stm32f4xx_hal_rtc_ex.c ****   __HAL_LOCK(hrtc);
 1306              		.loc 1 873 3 view .LVU493
 1307              		.loc 1 873 3 view .LVU494
 865:Drivers/STM32F4xx_HAL_Driver/Src/stm32f4xx_hal_rtc_ex.c ****   uint32_t tickstart = 0U;
 1308              		.loc 1 865 1 is_stmt 0 view .LVU495
 1309 0000 F8B5     		push	{r3, r4, r5, r6, r7, lr}
 1310              		.cfi_def_cfa_offset 24
 1311              		.cfi_offset 3, -24
 1312              		.cfi_offset 4, -20
 1313              		.cfi_offset 5, -16
 1314              		.cfi_offset 6, -12
 1315              		.cfi_offset 7, -8
 1316              		.cfi_offset 14, -4
 1317              		.loc 1 873 3 view .LVU496
 1318 0002 037F     		ldrb	r3, [r0, #28]	@ zero_extendqisi2
 1319 0004 012B     		cmp	r3, #1
 1320 0006 50D0     		beq	.L109
 1321              		.loc 1 873 3 is_stmt 1 discriminator 2 view .LVU497
 1322 0008 1646     		mov	r6, r2
 1323 000a 0122     		movs	r2, #1
 1324              	.LVL95:
 1325              		.loc 1 873 3 is_stmt 0 discriminator 2 view .LVU498
 1326 000c 0277     		strb	r2, [r0, #28]
 1327              		.loc 1 873 3 is_stmt 1 discriminator 2 view .LVU499
 874:Drivers/STM32F4xx_HAL_Driver/Src/stm32f4xx_hal_rtc_ex.c **** 
 875:Drivers/STM32F4xx_HAL_Driver/Src/stm32f4xx_hal_rtc_ex.c ****   hrtc->State = HAL_RTC_STATE_BUSY;
 1328              		.loc 1 875 3 view .LVU500
 876:Drivers/STM32F4xx_HAL_Driver/Src/stm32f4xx_hal_rtc_ex.c **** 
 877:Drivers/STM32F4xx_HAL_Driver/Src/stm32f4xx_hal_rtc_ex.c ****   /* Disable the write protection for RTC registers */
 878:Drivers/STM32F4xx_HAL_Driver/Src/stm32f4xx_hal_rtc_ex.c ****   __HAL_RTC_WRITEPROTECTION_DISABLE(hrtc);
ARM GAS  C:\Users\Konrad\AppData\Local\Temp\ccbXyGXO.s 			page 43


 1329              		.loc 1 878 3 is_stmt 0 view .LVU501
 1330 000e 0368     		ldr	r3, [r0]
 875:Drivers/STM32F4xx_HAL_Driver/Src/stm32f4xx_hal_rtc_ex.c **** 
 1331              		.loc 1 875 15 view .LVU502
 1332 0010 0222     		movs	r2, #2
 1333 0012 4277     		strb	r2, [r0, #29]
 1334              		.loc 1 878 3 is_stmt 1 view .LVU503
 1335              		.loc 1 878 3 view .LVU504
 1336 0014 CA22     		movs	r2, #202
 1337 0016 5A62     		str	r2, [r3, #36]
 1338              		.loc 1 878 3 view .LVU505
 1339 0018 5322     		movs	r2, #83
 1340 001a 5A62     		str	r2, [r3, #36]
 1341              		.loc 1 878 3 view .LVU506
 879:Drivers/STM32F4xx_HAL_Driver/Src/stm32f4xx_hal_rtc_ex.c **** 
 880:Drivers/STM32F4xx_HAL_Driver/Src/stm32f4xx_hal_rtc_ex.c ****   /* Check RTC WUTWF flag is reset only when wakeup timer enabled*/
 881:Drivers/STM32F4xx_HAL_Driver/Src/stm32f4xx_hal_rtc_ex.c ****   if ((hrtc->Instance->CR & RTC_CR_WUTE) != 0U)
 1342              		.loc 1 881 3 view .LVU507
 1343              		.loc 1 881 22 is_stmt 0 view .LVU508
 1344 001c 9A68     		ldr	r2, [r3, #8]
 1345 001e 0446     		mov	r4, r0
 1346              		.loc 1 881 6 view .LVU509
 1347 0020 5005     		lsls	r0, r2, #21
 1348              	.LVL96:
 1349              		.loc 1 881 6 view .LVU510
 1350 0022 0D46     		mov	r5, r1
 1351 0024 0DD5     		bpl	.L103
 882:Drivers/STM32F4xx_HAL_Driver/Src/stm32f4xx_hal_rtc_ex.c ****   {
 883:Drivers/STM32F4xx_HAL_Driver/Src/stm32f4xx_hal_rtc_ex.c ****     tickstart = HAL_GetTick();
 1352              		.loc 1 883 5 is_stmt 1 view .LVU511
 1353              		.loc 1 883 17 is_stmt 0 view .LVU512
 1354 0026 FFF7FEFF 		bl	HAL_GetTick
 1355              	.LVL97:
 1356              		.loc 1 883 17 view .LVU513
 1357 002a 0746     		mov	r7, r0
 1358              	.LVL98:
 884:Drivers/STM32F4xx_HAL_Driver/Src/stm32f4xx_hal_rtc_ex.c **** 
 885:Drivers/STM32F4xx_HAL_Driver/Src/stm32f4xx_hal_rtc_ex.c ****     /* Wait till RTC WUTWF flag is reset and if timeout is reached exit */
 886:Drivers/STM32F4xx_HAL_Driver/Src/stm32f4xx_hal_rtc_ex.c ****     while (__HAL_RTC_WAKEUPTIMER_GET_FLAG(hrtc, RTC_FLAG_WUTWF) != 0U)
 1359              		.loc 1 886 5 is_stmt 1 view .LVU514
 1360              		.loc 1 886 11 is_stmt 0 view .LVU515
 1361 002c 05E0     		b	.L104
 1362              	.LVL99:
 1363              	.L106:
 887:Drivers/STM32F4xx_HAL_Driver/Src/stm32f4xx_hal_rtc_ex.c ****     {
 888:Drivers/STM32F4xx_HAL_Driver/Src/stm32f4xx_hal_rtc_ex.c ****       if ((HAL_GetTick() - tickstart) > RTC_TIMEOUT_VALUE)
 1364              		.loc 1 888 12 view .LVU516
 1365 002e FFF7FEFF 		bl	HAL_GetTick
 1366              	.LVL100:
 1367              		.loc 1 888 26 discriminator 1 view .LVU517
 1368 0032 C01B     		subs	r0, r0, r7
 1369              		.loc 1 888 10 discriminator 1 view .LVU518
 1370 0034 B0F57A7F 		cmp	r0, #1000
 1371 0038 2ED8     		bhi	.L116
 1372              	.L104:
 1373              		.loc 1 888 7 is_stmt 1 view .LVU519
 886:Drivers/STM32F4xx_HAL_Driver/Src/stm32f4xx_hal_rtc_ex.c ****     {
ARM GAS  C:\Users\Konrad\AppData\Local\Temp\ccbXyGXO.s 			page 44


 1374              		.loc 1 886 65 view .LVU520
 886:Drivers/STM32F4xx_HAL_Driver/Src/stm32f4xx_hal_rtc_ex.c ****     {
 1375              		.loc 1 886 12 is_stmt 0 view .LVU521
 1376 003a 2368     		ldr	r3, [r4]
 1377 003c DA68     		ldr	r2, [r3, #12]
 886:Drivers/STM32F4xx_HAL_Driver/Src/stm32f4xx_hal_rtc_ex.c ****     {
 1378              		.loc 1 886 65 view .LVU522
 1379 003e 5107     		lsls	r1, r2, #29
 1380 0040 F5D4     		bmi	.L106
 1381              	.LVL101:
 1382              	.L103:
 889:Drivers/STM32F4xx_HAL_Driver/Src/stm32f4xx_hal_rtc_ex.c ****       {
 890:Drivers/STM32F4xx_HAL_Driver/Src/stm32f4xx_hal_rtc_ex.c ****         /* Enable the write protection for RTC registers */
 891:Drivers/STM32F4xx_HAL_Driver/Src/stm32f4xx_hal_rtc_ex.c ****         __HAL_RTC_WRITEPROTECTION_ENABLE(hrtc);
 892:Drivers/STM32F4xx_HAL_Driver/Src/stm32f4xx_hal_rtc_ex.c **** 
 893:Drivers/STM32F4xx_HAL_Driver/Src/stm32f4xx_hal_rtc_ex.c ****         hrtc->State = HAL_RTC_STATE_TIMEOUT;
 894:Drivers/STM32F4xx_HAL_Driver/Src/stm32f4xx_hal_rtc_ex.c **** 
 895:Drivers/STM32F4xx_HAL_Driver/Src/stm32f4xx_hal_rtc_ex.c ****         /* Process Unlocked */
 896:Drivers/STM32F4xx_HAL_Driver/Src/stm32f4xx_hal_rtc_ex.c ****         __HAL_UNLOCK(hrtc);
 897:Drivers/STM32F4xx_HAL_Driver/Src/stm32f4xx_hal_rtc_ex.c **** 
 898:Drivers/STM32F4xx_HAL_Driver/Src/stm32f4xx_hal_rtc_ex.c ****         return HAL_TIMEOUT;
 899:Drivers/STM32F4xx_HAL_Driver/Src/stm32f4xx_hal_rtc_ex.c ****       }
 900:Drivers/STM32F4xx_HAL_Driver/Src/stm32f4xx_hal_rtc_ex.c ****     }
 901:Drivers/STM32F4xx_HAL_Driver/Src/stm32f4xx_hal_rtc_ex.c ****   }
 902:Drivers/STM32F4xx_HAL_Driver/Src/stm32f4xx_hal_rtc_ex.c **** 
 903:Drivers/STM32F4xx_HAL_Driver/Src/stm32f4xx_hal_rtc_ex.c ****   /* Disable the Wakeup timer */
 904:Drivers/STM32F4xx_HAL_Driver/Src/stm32f4xx_hal_rtc_ex.c ****   __HAL_RTC_WAKEUPTIMER_DISABLE(hrtc);
 1383              		.loc 1 904 3 is_stmt 1 view .LVU523
 1384 0042 9A68     		ldr	r2, [r3, #8]
 1385 0044 22F48062 		bic	r2, r2, #1024
 1386 0048 9A60     		str	r2, [r3, #8]
 905:Drivers/STM32F4xx_HAL_Driver/Src/stm32f4xx_hal_rtc_ex.c **** 
 906:Drivers/STM32F4xx_HAL_Driver/Src/stm32f4xx_hal_rtc_ex.c ****   /* Clear the Wakeup flag */
 907:Drivers/STM32F4xx_HAL_Driver/Src/stm32f4xx_hal_rtc_ex.c ****   __HAL_RTC_WAKEUPTIMER_CLEAR_FLAG(hrtc, RTC_FLAG_WUTF);
 1387              		.loc 1 907 3 view .LVU524
 1388 004a DA68     		ldr	r2, [r3, #12]
 1389 004c D2B2     		uxtb	r2, r2
 1390 004e 62F49062 		orn	r2, r2, #1152
 1391 0052 DA60     		str	r2, [r3, #12]
 908:Drivers/STM32F4xx_HAL_Driver/Src/stm32f4xx_hal_rtc_ex.c **** 
 909:Drivers/STM32F4xx_HAL_Driver/Src/stm32f4xx_hal_rtc_ex.c ****   /* Get tick */
 910:Drivers/STM32F4xx_HAL_Driver/Src/stm32f4xx_hal_rtc_ex.c ****   tickstart = HAL_GetTick();
 1392              		.loc 1 910 3 view .LVU525
 1393              		.loc 1 910 15 is_stmt 0 view .LVU526
 1394 0054 FFF7FEFF 		bl	HAL_GetTick
 1395              	.LVL102:
 1396 0058 0746     		mov	r7, r0
 1397              	.LVL103:
 911:Drivers/STM32F4xx_HAL_Driver/Src/stm32f4xx_hal_rtc_ex.c **** 
 912:Drivers/STM32F4xx_HAL_Driver/Src/stm32f4xx_hal_rtc_ex.c ****   /* Wait till RTC WUTWF flag is set and if timeout is reached exit */
 913:Drivers/STM32F4xx_HAL_Driver/Src/stm32f4xx_hal_rtc_ex.c ****   while (__HAL_RTC_WAKEUPTIMER_GET_FLAG(hrtc, RTC_FLAG_WUTWF) == 0U)
 1398              		.loc 1 913 3 is_stmt 1 view .LVU527
 1399              		.loc 1 913 9 is_stmt 0 view .LVU528
 1400 005a 05E0     		b	.L107
 1401              	.LVL104:
 1402              	.L108:
 914:Drivers/STM32F4xx_HAL_Driver/Src/stm32f4xx_hal_rtc_ex.c ****   {
ARM GAS  C:\Users\Konrad\AppData\Local\Temp\ccbXyGXO.s 			page 45


 915:Drivers/STM32F4xx_HAL_Driver/Src/stm32f4xx_hal_rtc_ex.c ****     if ((HAL_GetTick() - tickstart) > RTC_TIMEOUT_VALUE)
 1403              		.loc 1 915 10 view .LVU529
 1404 005c FFF7FEFF 		bl	HAL_GetTick
 1405              	.LVL105:
 1406              		.loc 1 915 24 discriminator 1 view .LVU530
 1407 0060 C31B     		subs	r3, r0, r7
 1408              		.loc 1 915 8 discriminator 1 view .LVU531
 1409 0062 B3F57A7F 		cmp	r3, #1000
 1410 0066 17D8     		bhi	.L116
 1411              	.L107:
 1412              		.loc 1 915 5 is_stmt 1 view .LVU532
 913:Drivers/STM32F4xx_HAL_Driver/Src/stm32f4xx_hal_rtc_ex.c ****   {
 1413              		.loc 1 913 63 view .LVU533
 913:Drivers/STM32F4xx_HAL_Driver/Src/stm32f4xx_hal_rtc_ex.c ****   {
 1414              		.loc 1 913 10 is_stmt 0 view .LVU534
 1415 0068 2368     		ldr	r3, [r4]
 1416 006a DA68     		ldr	r2, [r3, #12]
 913:Drivers/STM32F4xx_HAL_Driver/Src/stm32f4xx_hal_rtc_ex.c ****   {
 1417              		.loc 1 913 63 view .LVU535
 1418 006c 5207     		lsls	r2, r2, #29
 1419 006e F5D5     		bpl	.L108
 916:Drivers/STM32F4xx_HAL_Driver/Src/stm32f4xx_hal_rtc_ex.c ****     {
 917:Drivers/STM32F4xx_HAL_Driver/Src/stm32f4xx_hal_rtc_ex.c ****       /* Enable the write protection for RTC registers */
 918:Drivers/STM32F4xx_HAL_Driver/Src/stm32f4xx_hal_rtc_ex.c ****       __HAL_RTC_WRITEPROTECTION_ENABLE(hrtc);
 919:Drivers/STM32F4xx_HAL_Driver/Src/stm32f4xx_hal_rtc_ex.c **** 
 920:Drivers/STM32F4xx_HAL_Driver/Src/stm32f4xx_hal_rtc_ex.c ****       hrtc->State = HAL_RTC_STATE_TIMEOUT;
 921:Drivers/STM32F4xx_HAL_Driver/Src/stm32f4xx_hal_rtc_ex.c **** 
 922:Drivers/STM32F4xx_HAL_Driver/Src/stm32f4xx_hal_rtc_ex.c ****       /* Process Unlocked */
 923:Drivers/STM32F4xx_HAL_Driver/Src/stm32f4xx_hal_rtc_ex.c ****       __HAL_UNLOCK(hrtc);
 924:Drivers/STM32F4xx_HAL_Driver/Src/stm32f4xx_hal_rtc_ex.c **** 
 925:Drivers/STM32F4xx_HAL_Driver/Src/stm32f4xx_hal_rtc_ex.c ****       return HAL_TIMEOUT;
 926:Drivers/STM32F4xx_HAL_Driver/Src/stm32f4xx_hal_rtc_ex.c ****     }
 927:Drivers/STM32F4xx_HAL_Driver/Src/stm32f4xx_hal_rtc_ex.c ****   }
 928:Drivers/STM32F4xx_HAL_Driver/Src/stm32f4xx_hal_rtc_ex.c **** 
 929:Drivers/STM32F4xx_HAL_Driver/Src/stm32f4xx_hal_rtc_ex.c ****   /* Clear the Wakeup Timer clock source bits in CR register */
 930:Drivers/STM32F4xx_HAL_Driver/Src/stm32f4xx_hal_rtc_ex.c ****   hrtc->Instance->CR &= (uint32_t)~RTC_CR_WUCKSEL;
 1420              		.loc 1 930 3 is_stmt 1 view .LVU536
 1421              		.loc 1 930 17 is_stmt 0 view .LVU537
 1422 0070 9A68     		ldr	r2, [r3, #8]
 1423              		.loc 1 930 22 view .LVU538
 1424 0072 22F00702 		bic	r2, r2, #7
 1425 0076 9A60     		str	r2, [r3, #8]
 931:Drivers/STM32F4xx_HAL_Driver/Src/stm32f4xx_hal_rtc_ex.c **** 
 932:Drivers/STM32F4xx_HAL_Driver/Src/stm32f4xx_hal_rtc_ex.c ****   /* Configure the clock source */
 933:Drivers/STM32F4xx_HAL_Driver/Src/stm32f4xx_hal_rtc_ex.c ****   hrtc->Instance->CR |= (uint32_t)WakeUpClock;
 1426              		.loc 1 933 3 is_stmt 1 view .LVU539
 1427              		.loc 1 933 17 is_stmt 0 view .LVU540
 1428 0078 9A68     		ldr	r2, [r3, #8]
 1429              		.loc 1 933 22 view .LVU541
 1430 007a 3243     		orrs	r2, r2, r6
 1431 007c 9A60     		str	r2, [r3, #8]
 934:Drivers/STM32F4xx_HAL_Driver/Src/stm32f4xx_hal_rtc_ex.c **** 
 935:Drivers/STM32F4xx_HAL_Driver/Src/stm32f4xx_hal_rtc_ex.c ****   /* Configure the Wakeup Timer counter */
 936:Drivers/STM32F4xx_HAL_Driver/Src/stm32f4xx_hal_rtc_ex.c ****   hrtc->Instance->WUTR = (uint32_t)WakeUpCounter;
 1432              		.loc 1 936 3 is_stmt 1 view .LVU542
 1433              		.loc 1 936 24 is_stmt 0 view .LVU543
 1434 007e 5D61     		str	r5, [r3, #20]
ARM GAS  C:\Users\Konrad\AppData\Local\Temp\ccbXyGXO.s 			page 46


 937:Drivers/STM32F4xx_HAL_Driver/Src/stm32f4xx_hal_rtc_ex.c **** 
 938:Drivers/STM32F4xx_HAL_Driver/Src/stm32f4xx_hal_rtc_ex.c ****   /* Enable the Wakeup Timer */
 939:Drivers/STM32F4xx_HAL_Driver/Src/stm32f4xx_hal_rtc_ex.c ****   __HAL_RTC_WAKEUPTIMER_ENABLE(hrtc);
 1435              		.loc 1 939 3 is_stmt 1 view .LVU544
 1436 0080 9A68     		ldr	r2, [r3, #8]
 1437 0082 42F48062 		orr	r2, r2, #1024
 1438 0086 9A60     		str	r2, [r3, #8]
 940:Drivers/STM32F4xx_HAL_Driver/Src/stm32f4xx_hal_rtc_ex.c **** 
 941:Drivers/STM32F4xx_HAL_Driver/Src/stm32f4xx_hal_rtc_ex.c ****   /* Enable the write protection for RTC registers */
 942:Drivers/STM32F4xx_HAL_Driver/Src/stm32f4xx_hal_rtc_ex.c ****   __HAL_RTC_WRITEPROTECTION_ENABLE(hrtc);
 1439              		.loc 1 942 3 view .LVU545
 1440              		.loc 1 942 3 view .LVU546
 943:Drivers/STM32F4xx_HAL_Driver/Src/stm32f4xx_hal_rtc_ex.c **** 
 944:Drivers/STM32F4xx_HAL_Driver/Src/stm32f4xx_hal_rtc_ex.c ****   hrtc->State = HAL_RTC_STATE_READY;
 945:Drivers/STM32F4xx_HAL_Driver/Src/stm32f4xx_hal_rtc_ex.c **** 
 946:Drivers/STM32F4xx_HAL_Driver/Src/stm32f4xx_hal_rtc_ex.c ****   /* Process Unlocked */
 947:Drivers/STM32F4xx_HAL_Driver/Src/stm32f4xx_hal_rtc_ex.c ****   __HAL_UNLOCK(hrtc);
 1441              		.loc 1 947 3 is_stmt 0 view .LVU547
 1442 0088 0021     		movs	r1, #0
 942:Drivers/STM32F4xx_HAL_Driver/Src/stm32f4xx_hal_rtc_ex.c **** 
 1443              		.loc 1 942 3 view .LVU548
 1444 008a FF20     		movs	r0, #255
 944:Drivers/STM32F4xx_HAL_Driver/Src/stm32f4xx_hal_rtc_ex.c **** 
 1445              		.loc 1 944 15 view .LVU549
 1446 008c 0122     		movs	r2, #1
 942:Drivers/STM32F4xx_HAL_Driver/Src/stm32f4xx_hal_rtc_ex.c **** 
 1447              		.loc 1 942 3 view .LVU550
 1448 008e 5862     		str	r0, [r3, #36]
 942:Drivers/STM32F4xx_HAL_Driver/Src/stm32f4xx_hal_rtc_ex.c **** 
 1449              		.loc 1 942 3 is_stmt 1 view .LVU551
 944:Drivers/STM32F4xx_HAL_Driver/Src/stm32f4xx_hal_rtc_ex.c **** 
 1450              		.loc 1 944 3 view .LVU552
 944:Drivers/STM32F4xx_HAL_Driver/Src/stm32f4xx_hal_rtc_ex.c **** 
 1451              		.loc 1 944 15 is_stmt 0 view .LVU553
 1452 0090 6277     		strb	r2, [r4, #29]
 1453              		.loc 1 947 3 is_stmt 1 view .LVU554
 1454              		.loc 1 947 3 view .LVU555
 1455 0092 2177     		strb	r1, [r4, #28]
 1456              		.loc 1 947 3 view .LVU556
 948:Drivers/STM32F4xx_HAL_Driver/Src/stm32f4xx_hal_rtc_ex.c **** 
 949:Drivers/STM32F4xx_HAL_Driver/Src/stm32f4xx_hal_rtc_ex.c ****   return HAL_OK;
 1457              		.loc 1 949 3 view .LVU557
 1458              		.loc 1 949 10 is_stmt 0 view .LVU558
 1459 0094 0846     		mov	r0, r1
 950:Drivers/STM32F4xx_HAL_Driver/Src/stm32f4xx_hal_rtc_ex.c **** }
 1460              		.loc 1 950 1 view .LVU559
 1461 0096 F8BD     		pop	{r3, r4, r5, r6, r7, pc}
 1462              	.LVL106:
 1463              	.L116:
 918:Drivers/STM32F4xx_HAL_Driver/Src/stm32f4xx_hal_rtc_ex.c **** 
 1464              		.loc 1 918 7 is_stmt 1 view .LVU560
 918:Drivers/STM32F4xx_HAL_Driver/Src/stm32f4xx_hal_rtc_ex.c **** 
 1465              		.loc 1 918 7 view .LVU561
 1466 0098 2268     		ldr	r2, [r4]
 1467 009a FF21     		movs	r1, #255
 920:Drivers/STM32F4xx_HAL_Driver/Src/stm32f4xx_hal_rtc_ex.c **** 
 1468              		.loc 1 920 19 is_stmt 0 view .LVU562
ARM GAS  C:\Users\Konrad\AppData\Local\Temp\ccbXyGXO.s 			page 47


 1469 009c 0323     		movs	r3, #3
 918:Drivers/STM32F4xx_HAL_Driver/Src/stm32f4xx_hal_rtc_ex.c **** 
 1470              		.loc 1 918 7 view .LVU563
 1471 009e 5162     		str	r1, [r2, #36]
 918:Drivers/STM32F4xx_HAL_Driver/Src/stm32f4xx_hal_rtc_ex.c **** 
 1472              		.loc 1 918 7 is_stmt 1 view .LVU564
 920:Drivers/STM32F4xx_HAL_Driver/Src/stm32f4xx_hal_rtc_ex.c **** 
 1473              		.loc 1 920 7 view .LVU565
 920:Drivers/STM32F4xx_HAL_Driver/Src/stm32f4xx_hal_rtc_ex.c **** 
 1474              		.loc 1 920 19 is_stmt 0 view .LVU566
 1475 00a0 6377     		strb	r3, [r4, #29]
 923:Drivers/STM32F4xx_HAL_Driver/Src/stm32f4xx_hal_rtc_ex.c **** 
 1476              		.loc 1 923 7 is_stmt 1 view .LVU567
 923:Drivers/STM32F4xx_HAL_Driver/Src/stm32f4xx_hal_rtc_ex.c **** 
 1477              		.loc 1 923 7 view .LVU568
 923:Drivers/STM32F4xx_HAL_Driver/Src/stm32f4xx_hal_rtc_ex.c **** 
 1478              		.loc 1 923 7 view .LVU569
 925:Drivers/STM32F4xx_HAL_Driver/Src/stm32f4xx_hal_rtc_ex.c ****     }
 1479              		.loc 1 925 7 view .LVU570
 923:Drivers/STM32F4xx_HAL_Driver/Src/stm32f4xx_hal_rtc_ex.c **** 
 1480              		.loc 1 923 7 is_stmt 0 view .LVU571
 1481 00a2 0023     		movs	r3, #0
 1482 00a4 2377     		strb	r3, [r4, #28]
 898:Drivers/STM32F4xx_HAL_Driver/Src/stm32f4xx_hal_rtc_ex.c ****       }
 1483              		.loc 1 898 16 view .LVU572
 1484 00a6 0320     		movs	r0, #3
 1485              		.loc 1 950 1 view .LVU573
 1486 00a8 F8BD     		pop	{r3, r4, r5, r6, r7, pc}
 1487              	.LVL107:
 1488              	.L109:
 873:Drivers/STM32F4xx_HAL_Driver/Src/stm32f4xx_hal_rtc_ex.c **** 
 1489              		.loc 1 873 3 discriminator 1 view .LVU574
 1490 00aa 0220     		movs	r0, #2
 1491              	.LVL108:
 1492              		.loc 1 950 1 view .LVU575
 1493 00ac F8BD     		pop	{r3, r4, r5, r6, r7, pc}
 1494              		.cfi_endproc
 1495              	.LFE228:
 1497 00ae 00BF     		.section	.text.HAL_RTCEx_SetWakeUpTimer_IT,"ax",%progbits
 1498              		.align	1
 1499              		.p2align 2,,3
 1500              		.global	HAL_RTCEx_SetWakeUpTimer_IT
 1501              		.syntax unified
 1502              		.thumb
 1503              		.thumb_func
 1505              	HAL_RTCEx_SetWakeUpTimer_IT:
 1506              	.LVL109:
 1507              	.LFB229:
 951:Drivers/STM32F4xx_HAL_Driver/Src/stm32f4xx_hal_rtc_ex.c **** 
 952:Drivers/STM32F4xx_HAL_Driver/Src/stm32f4xx_hal_rtc_ex.c **** /**
 953:Drivers/STM32F4xx_HAL_Driver/Src/stm32f4xx_hal_rtc_ex.c ****   * @brief  Sets wakeup timer with interrupt.
 954:Drivers/STM32F4xx_HAL_Driver/Src/stm32f4xx_hal_rtc_ex.c ****   * @param  hrtc pointer to a RTC_HandleTypeDef structure that contains
 955:Drivers/STM32F4xx_HAL_Driver/Src/stm32f4xx_hal_rtc_ex.c ****   *                the configuration information for RTC.
 956:Drivers/STM32F4xx_HAL_Driver/Src/stm32f4xx_hal_rtc_ex.c ****   * @param  WakeUpCounter Wakeup counter
 957:Drivers/STM32F4xx_HAL_Driver/Src/stm32f4xx_hal_rtc_ex.c ****   * @param  WakeUpClock Wakeup clock
 958:Drivers/STM32F4xx_HAL_Driver/Src/stm32f4xx_hal_rtc_ex.c ****   * @retval HAL status
 959:Drivers/STM32F4xx_HAL_Driver/Src/stm32f4xx_hal_rtc_ex.c ****   */
ARM GAS  C:\Users\Konrad\AppData\Local\Temp\ccbXyGXO.s 			page 48


 960:Drivers/STM32F4xx_HAL_Driver/Src/stm32f4xx_hal_rtc_ex.c **** HAL_StatusTypeDef HAL_RTCEx_SetWakeUpTimer_IT(RTC_HandleTypeDef *hrtc, uint32_t WakeUpCounter, uint
 961:Drivers/STM32F4xx_HAL_Driver/Src/stm32f4xx_hal_rtc_ex.c **** {
 1508              		.loc 1 961 1 is_stmt 1 view -0
 1509              		.cfi_startproc
 1510              		@ args = 0, pretend = 0, frame = 8
 1511              		@ frame_needed = 0, uses_anonymous_args = 0
 1512              		@ link register save eliminated.
 962:Drivers/STM32F4xx_HAL_Driver/Src/stm32f4xx_hal_rtc_ex.c ****   __IO uint32_t count  = RTC_TIMEOUT_VALUE * (SystemCoreClock / 32U / 1000U);
 1513              		.loc 1 962 3 view .LVU577
 961:Drivers/STM32F4xx_HAL_Driver/Src/stm32f4xx_hal_rtc_ex.c ****   __IO uint32_t count  = RTC_TIMEOUT_VALUE * (SystemCoreClock / 32U / 1000U);
 1514              		.loc 1 961 1 is_stmt 0 view .LVU578
 1515 0000 70B4     		push	{r4, r5, r6}
 1516              		.cfi_def_cfa_offset 12
 1517              		.cfi_offset 4, -12
 1518              		.cfi_offset 5, -8
 1519              		.cfi_offset 6, -4
 1520              		.loc 1 962 69 view .LVU579
 1521 0002 364C     		ldr	r4, .L135
 1522 0004 364B     		ldr	r3, .L135+4
 1523 0006 2568     		ldr	r5, [r4]
 1524 0008 A3FB0535 		umull	r3, r5, r3, r5
 1525 000c ED0A     		lsrs	r5, r5, #11
 1526              		.loc 1 962 44 view .LVU580
 1527 000e 4FF47A73 		mov	r3, #1000
 1528 0012 03FB05F5 		mul	r5, r3, r5
 963:Drivers/STM32F4xx_HAL_Driver/Src/stm32f4xx_hal_rtc_ex.c **** 
 964:Drivers/STM32F4xx_HAL_Driver/Src/stm32f4xx_hal_rtc_ex.c ****   /* Check the parameters */
 965:Drivers/STM32F4xx_HAL_Driver/Src/stm32f4xx_hal_rtc_ex.c ****   assert_param(IS_RTC_WAKEUP_CLOCK(WakeUpClock));
 966:Drivers/STM32F4xx_HAL_Driver/Src/stm32f4xx_hal_rtc_ex.c ****   assert_param(IS_RTC_WAKEUP_COUNTER(WakeUpCounter));
 967:Drivers/STM32F4xx_HAL_Driver/Src/stm32f4xx_hal_rtc_ex.c **** 
 968:Drivers/STM32F4xx_HAL_Driver/Src/stm32f4xx_hal_rtc_ex.c ****   /* Process Locked */
 969:Drivers/STM32F4xx_HAL_Driver/Src/stm32f4xx_hal_rtc_ex.c ****   __HAL_LOCK(hrtc);
 1529              		.loc 1 969 3 view .LVU581
 1530 0016 037F     		ldrb	r3, [r0, #28]	@ zero_extendqisi2
 961:Drivers/STM32F4xx_HAL_Driver/Src/stm32f4xx_hal_rtc_ex.c ****   __IO uint32_t count  = RTC_TIMEOUT_VALUE * (SystemCoreClock / 32U / 1000U);
 1531              		.loc 1 961 1 view .LVU582
 1532 0018 83B0     		sub	sp, sp, #12
 1533              		.cfi_def_cfa_offset 24
 1534              		.loc 1 969 3 view .LVU583
 1535 001a 012B     		cmp	r3, #1
 962:Drivers/STM32F4xx_HAL_Driver/Src/stm32f4xx_hal_rtc_ex.c **** 
 1536              		.loc 1 962 17 view .LVU584
 1537 001c 0195     		str	r5, [sp, #4]
 965:Drivers/STM32F4xx_HAL_Driver/Src/stm32f4xx_hal_rtc_ex.c ****   assert_param(IS_RTC_WAKEUP_COUNTER(WakeUpCounter));
 1538              		.loc 1 965 3 is_stmt 1 view .LVU585
 966:Drivers/STM32F4xx_HAL_Driver/Src/stm32f4xx_hal_rtc_ex.c **** 
 1539              		.loc 1 966 3 view .LVU586
 1540              		.loc 1 969 3 view .LVU587
 1541              		.loc 1 969 3 view .LVU588
 1542 001e 59D0     		beq	.L125
 1543              		.loc 1 969 3 discriminator 2 view .LVU589
 1544 0020 0123     		movs	r3, #1
 1545 0022 0377     		strb	r3, [r0, #28]
 1546              		.loc 1 969 3 discriminator 2 view .LVU590
 970:Drivers/STM32F4xx_HAL_Driver/Src/stm32f4xx_hal_rtc_ex.c **** 
 971:Drivers/STM32F4xx_HAL_Driver/Src/stm32f4xx_hal_rtc_ex.c ****   hrtc->State = HAL_RTC_STATE_BUSY;
 1547              		.loc 1 971 3 view .LVU591
ARM GAS  C:\Users\Konrad\AppData\Local\Temp\ccbXyGXO.s 			page 49


 1548              		.loc 1 971 15 is_stmt 0 view .LVU592
 1549 0024 0223     		movs	r3, #2
 1550 0026 4377     		strb	r3, [r0, #29]
 972:Drivers/STM32F4xx_HAL_Driver/Src/stm32f4xx_hal_rtc_ex.c **** 
 973:Drivers/STM32F4xx_HAL_Driver/Src/stm32f4xx_hal_rtc_ex.c ****   /* Disable the write protection for RTC registers */
 974:Drivers/STM32F4xx_HAL_Driver/Src/stm32f4xx_hal_rtc_ex.c ****   __HAL_RTC_WRITEPROTECTION_DISABLE(hrtc);
 1551              		.loc 1 974 3 is_stmt 1 view .LVU593
 1552              		.loc 1 974 3 view .LVU594
 1553 0028 0368     		ldr	r3, [r0]
 1554 002a 8446     		mov	ip, r0
 1555 002c CA20     		movs	r0, #202
 1556              	.LVL110:
 1557              		.loc 1 974 3 is_stmt 0 view .LVU595
 1558 002e 5862     		str	r0, [r3, #36]
 1559              		.loc 1 974 3 is_stmt 1 view .LVU596
 1560 0030 5320     		movs	r0, #83
 1561 0032 5862     		str	r0, [r3, #36]
 1562              		.loc 1 974 3 view .LVU597
 975:Drivers/STM32F4xx_HAL_Driver/Src/stm32f4xx_hal_rtc_ex.c **** 
 976:Drivers/STM32F4xx_HAL_Driver/Src/stm32f4xx_hal_rtc_ex.c ****   /* Check RTC WUTWF flag is reset only when wakeup timer enabled */
 977:Drivers/STM32F4xx_HAL_Driver/Src/stm32f4xx_hal_rtc_ex.c ****   if ((hrtc->Instance->CR & RTC_CR_WUTE) != 0U)
 1563              		.loc 1 977 3 view .LVU598
 1564              		.loc 1 977 22 is_stmt 0 view .LVU599
 1565 0034 9868     		ldr	r0, [r3, #8]
 1566              		.loc 1 977 6 view .LVU600
 1567 0036 4605     		lsls	r6, r0, #21
 1568 0038 21D4     		bmi	.L122
 1569              	.L119:
 978:Drivers/STM32F4xx_HAL_Driver/Src/stm32f4xx_hal_rtc_ex.c ****   {
 979:Drivers/STM32F4xx_HAL_Driver/Src/stm32f4xx_hal_rtc_ex.c ****     /* Wait till RTC WUTWF flag is reset and if timeout is reached exit */
 980:Drivers/STM32F4xx_HAL_Driver/Src/stm32f4xx_hal_rtc_ex.c ****     do
 981:Drivers/STM32F4xx_HAL_Driver/Src/stm32f4xx_hal_rtc_ex.c ****     {
 982:Drivers/STM32F4xx_HAL_Driver/Src/stm32f4xx_hal_rtc_ex.c ****       if (count-- == 0U)
 983:Drivers/STM32F4xx_HAL_Driver/Src/stm32f4xx_hal_rtc_ex.c ****       {
 984:Drivers/STM32F4xx_HAL_Driver/Src/stm32f4xx_hal_rtc_ex.c ****         /* Enable the write protection for RTC registers */
 985:Drivers/STM32F4xx_HAL_Driver/Src/stm32f4xx_hal_rtc_ex.c ****         __HAL_RTC_WRITEPROTECTION_ENABLE(hrtc);
 986:Drivers/STM32F4xx_HAL_Driver/Src/stm32f4xx_hal_rtc_ex.c **** 
 987:Drivers/STM32F4xx_HAL_Driver/Src/stm32f4xx_hal_rtc_ex.c ****         hrtc->State = HAL_RTC_STATE_TIMEOUT;
 988:Drivers/STM32F4xx_HAL_Driver/Src/stm32f4xx_hal_rtc_ex.c **** 
 989:Drivers/STM32F4xx_HAL_Driver/Src/stm32f4xx_hal_rtc_ex.c ****         /* Process Unlocked */
 990:Drivers/STM32F4xx_HAL_Driver/Src/stm32f4xx_hal_rtc_ex.c ****         __HAL_UNLOCK(hrtc);
 991:Drivers/STM32F4xx_HAL_Driver/Src/stm32f4xx_hal_rtc_ex.c **** 
 992:Drivers/STM32F4xx_HAL_Driver/Src/stm32f4xx_hal_rtc_ex.c ****         return HAL_TIMEOUT;
 993:Drivers/STM32F4xx_HAL_Driver/Src/stm32f4xx_hal_rtc_ex.c ****       }
 994:Drivers/STM32F4xx_HAL_Driver/Src/stm32f4xx_hal_rtc_ex.c ****     } while (__HAL_RTC_WAKEUPTIMER_GET_FLAG(hrtc, RTC_FLAG_WUTWF) != 0U);
 995:Drivers/STM32F4xx_HAL_Driver/Src/stm32f4xx_hal_rtc_ex.c ****   }
 996:Drivers/STM32F4xx_HAL_Driver/Src/stm32f4xx_hal_rtc_ex.c **** 
 997:Drivers/STM32F4xx_HAL_Driver/Src/stm32f4xx_hal_rtc_ex.c ****   /* Disable the Wakeup timer */
 998:Drivers/STM32F4xx_HAL_Driver/Src/stm32f4xx_hal_rtc_ex.c ****   __HAL_RTC_WAKEUPTIMER_DISABLE(hrtc);
 1570              		.loc 1 998 3 is_stmt 1 view .LVU601
 1571 003a 9868     		ldr	r0, [r3, #8]
 1572 003c 20F48060 		bic	r0, r0, #1024
 1573 0040 9860     		str	r0, [r3, #8]
 999:Drivers/STM32F4xx_HAL_Driver/Src/stm32f4xx_hal_rtc_ex.c **** 
1000:Drivers/STM32F4xx_HAL_Driver/Src/stm32f4xx_hal_rtc_ex.c ****   /* Clear the Wakeup flag */
1001:Drivers/STM32F4xx_HAL_Driver/Src/stm32f4xx_hal_rtc_ex.c ****   __HAL_RTC_WAKEUPTIMER_CLEAR_FLAG(hrtc, RTC_FLAG_WUTF);
 1574              		.loc 1 1001 3 view .LVU602
ARM GAS  C:\Users\Konrad\AppData\Local\Temp\ccbXyGXO.s 			page 50


 1575 0042 D868     		ldr	r0, [r3, #12]
 1576 0044 C0B2     		uxtb	r0, r0
 1577 0046 60F49060 		orn	r0, r0, #1152
 1578 004a D860     		str	r0, [r3, #12]
1002:Drivers/STM32F4xx_HAL_Driver/Src/stm32f4xx_hal_rtc_ex.c **** 
1003:Drivers/STM32F4xx_HAL_Driver/Src/stm32f4xx_hal_rtc_ex.c ****   /* Reload the counter */
1004:Drivers/STM32F4xx_HAL_Driver/Src/stm32f4xx_hal_rtc_ex.c ****   count = RTC_TIMEOUT_VALUE * (SystemCoreClock / 32U / 1000U);
 1579              		.loc 1 1004 3 view .LVU603
 1580              		.loc 1 1004 9 is_stmt 0 view .LVU604
 1581 004c 0195     		str	r5, [sp, #4]
 1582 004e 02E0     		b	.L124
 1583              	.L123:
1005:Drivers/STM32F4xx_HAL_Driver/Src/stm32f4xx_hal_rtc_ex.c **** 
1006:Drivers/STM32F4xx_HAL_Driver/Src/stm32f4xx_hal_rtc_ex.c ****   /* Wait till RTC WUTWF flag is set and if timeout is reached exit */
1007:Drivers/STM32F4xx_HAL_Driver/Src/stm32f4xx_hal_rtc_ex.c ****   do
1008:Drivers/STM32F4xx_HAL_Driver/Src/stm32f4xx_hal_rtc_ex.c ****   {
1009:Drivers/STM32F4xx_HAL_Driver/Src/stm32f4xx_hal_rtc_ex.c ****     if (count-- == 0U)
1010:Drivers/STM32F4xx_HAL_Driver/Src/stm32f4xx_hal_rtc_ex.c ****     {
1011:Drivers/STM32F4xx_HAL_Driver/Src/stm32f4xx_hal_rtc_ex.c ****       /* Enable the write protection for RTC registers */
1012:Drivers/STM32F4xx_HAL_Driver/Src/stm32f4xx_hal_rtc_ex.c ****       __HAL_RTC_WRITEPROTECTION_ENABLE(hrtc);
1013:Drivers/STM32F4xx_HAL_Driver/Src/stm32f4xx_hal_rtc_ex.c **** 
1014:Drivers/STM32F4xx_HAL_Driver/Src/stm32f4xx_hal_rtc_ex.c ****       hrtc->State = HAL_RTC_STATE_TIMEOUT;
1015:Drivers/STM32F4xx_HAL_Driver/Src/stm32f4xx_hal_rtc_ex.c **** 
1016:Drivers/STM32F4xx_HAL_Driver/Src/stm32f4xx_hal_rtc_ex.c ****       /* Process Unlocked */
1017:Drivers/STM32F4xx_HAL_Driver/Src/stm32f4xx_hal_rtc_ex.c ****       __HAL_UNLOCK(hrtc);
1018:Drivers/STM32F4xx_HAL_Driver/Src/stm32f4xx_hal_rtc_ex.c **** 
1019:Drivers/STM32F4xx_HAL_Driver/Src/stm32f4xx_hal_rtc_ex.c ****       return HAL_TIMEOUT;
1020:Drivers/STM32F4xx_HAL_Driver/Src/stm32f4xx_hal_rtc_ex.c ****     }
1021:Drivers/STM32F4xx_HAL_Driver/Src/stm32f4xx_hal_rtc_ex.c ****   } while (__HAL_RTC_WAKEUPTIMER_GET_FLAG(hrtc, RTC_FLAG_WUTWF) == 0U);
 1584              		.loc 1 1021 12 view .LVU605
 1585 0050 DC68     		ldr	r4, [r3, #12]
 1586              		.loc 1 1021 65 view .LVU606
 1587 0052 6007     		lsls	r0, r4, #29
 1588 0054 19D4     		bmi	.L134
 1589              	.L124:
1007:Drivers/STM32F4xx_HAL_Driver/Src/stm32f4xx_hal_rtc_ex.c ****   {
 1590              		.loc 1 1007 3 is_stmt 1 view .LVU607
1009:Drivers/STM32F4xx_HAL_Driver/Src/stm32f4xx_hal_rtc_ex.c ****     {
 1591              		.loc 1 1009 5 view .LVU608
 1592              		.loc 1 1021 65 view .LVU609
1009:Drivers/STM32F4xx_HAL_Driver/Src/stm32f4xx_hal_rtc_ex.c ****     {
 1593              		.loc 1 1009 14 is_stmt 0 view .LVU610
 1594 0056 019C     		ldr	r4, [sp, #4]
 1595 0058 651E     		subs	r5, r4, #1
 1596 005a 0195     		str	r5, [sp, #4]
1009:Drivers/STM32F4xx_HAL_Driver/Src/stm32f4xx_hal_rtc_ex.c ****     {
 1597              		.loc 1 1009 8 view .LVU611
 1598 005c 002C     		cmp	r4, #0
 1599 005e F7D1     		bne	.L123
 1600              	.L133:
1012:Drivers/STM32F4xx_HAL_Driver/Src/stm32f4xx_hal_rtc_ex.c **** 
 1601              		.loc 1 1012 7 is_stmt 1 view .LVU612
1012:Drivers/STM32F4xx_HAL_Driver/Src/stm32f4xx_hal_rtc_ex.c **** 
 1602              		.loc 1 1012 7 view .LVU613
 1603 0060 FF21     		movs	r1, #255
 1604              	.LVL111:
1012:Drivers/STM32F4xx_HAL_Driver/Src/stm32f4xx_hal_rtc_ex.c **** 
ARM GAS  C:\Users\Konrad\AppData\Local\Temp\ccbXyGXO.s 			page 51


 1605              		.loc 1 1012 7 is_stmt 0 view .LVU614
 1606 0062 5962     		str	r1, [r3, #36]
1012:Drivers/STM32F4xx_HAL_Driver/Src/stm32f4xx_hal_rtc_ex.c **** 
 1607              		.loc 1 1012 7 is_stmt 1 view .LVU615
1014:Drivers/STM32F4xx_HAL_Driver/Src/stm32f4xx_hal_rtc_ex.c **** 
 1608              		.loc 1 1014 7 view .LVU616
1014:Drivers/STM32F4xx_HAL_Driver/Src/stm32f4xx_hal_rtc_ex.c **** 
 1609              		.loc 1 1014 19 is_stmt 0 view .LVU617
 1610 0064 0322     		movs	r2, #3
 1611              	.LVL112:
1017:Drivers/STM32F4xx_HAL_Driver/Src/stm32f4xx_hal_rtc_ex.c **** 
 1612              		.loc 1 1017 7 view .LVU618
 1613 0066 0023     		movs	r3, #0
 992:Drivers/STM32F4xx_HAL_Driver/Src/stm32f4xx_hal_rtc_ex.c ****       }
 1614              		.loc 1 992 16 view .LVU619
 1615 0068 0320     		movs	r0, #3
1014:Drivers/STM32F4xx_HAL_Driver/Src/stm32f4xx_hal_rtc_ex.c **** 
 1616              		.loc 1 1014 19 view .LVU620
 1617 006a 8CF81D20 		strb	r2, [ip, #29]
1017:Drivers/STM32F4xx_HAL_Driver/Src/stm32f4xx_hal_rtc_ex.c **** 
 1618              		.loc 1 1017 7 is_stmt 1 view .LVU621
1017:Drivers/STM32F4xx_HAL_Driver/Src/stm32f4xx_hal_rtc_ex.c **** 
 1619              		.loc 1 1017 7 view .LVU622
1017:Drivers/STM32F4xx_HAL_Driver/Src/stm32f4xx_hal_rtc_ex.c **** 
 1620              		.loc 1 1017 7 view .LVU623
1019:Drivers/STM32F4xx_HAL_Driver/Src/stm32f4xx_hal_rtc_ex.c ****     }
 1621              		.loc 1 1019 7 view .LVU624
1017:Drivers/STM32F4xx_HAL_Driver/Src/stm32f4xx_hal_rtc_ex.c **** 
 1622              		.loc 1 1017 7 is_stmt 0 view .LVU625
 1623 006e 8CF81C30 		strb	r3, [ip, #28]
1022:Drivers/STM32F4xx_HAL_Driver/Src/stm32f4xx_hal_rtc_ex.c **** 
1023:Drivers/STM32F4xx_HAL_Driver/Src/stm32f4xx_hal_rtc_ex.c ****   /* Clear the Wakeup Timer clock source bits in CR register */
1024:Drivers/STM32F4xx_HAL_Driver/Src/stm32f4xx_hal_rtc_ex.c ****   hrtc->Instance->CR &= (uint32_t)~RTC_CR_WUCKSEL;
1025:Drivers/STM32F4xx_HAL_Driver/Src/stm32f4xx_hal_rtc_ex.c **** 
1026:Drivers/STM32F4xx_HAL_Driver/Src/stm32f4xx_hal_rtc_ex.c ****   /* Configure the clock source */
1027:Drivers/STM32F4xx_HAL_Driver/Src/stm32f4xx_hal_rtc_ex.c ****   hrtc->Instance->CR |= (uint32_t)WakeUpClock;
1028:Drivers/STM32F4xx_HAL_Driver/Src/stm32f4xx_hal_rtc_ex.c **** 
1029:Drivers/STM32F4xx_HAL_Driver/Src/stm32f4xx_hal_rtc_ex.c ****   /* Configure the Wakeup Timer counter */
1030:Drivers/STM32F4xx_HAL_Driver/Src/stm32f4xx_hal_rtc_ex.c ****   hrtc->Instance->WUTR = (uint32_t)WakeUpCounter;
1031:Drivers/STM32F4xx_HAL_Driver/Src/stm32f4xx_hal_rtc_ex.c **** 
1032:Drivers/STM32F4xx_HAL_Driver/Src/stm32f4xx_hal_rtc_ex.c ****   /* RTC wakeup timer Interrupt Configuration: EXTI configuration */
1033:Drivers/STM32F4xx_HAL_Driver/Src/stm32f4xx_hal_rtc_ex.c ****   __HAL_RTC_WAKEUPTIMER_EXTI_ENABLE_IT();
1034:Drivers/STM32F4xx_HAL_Driver/Src/stm32f4xx_hal_rtc_ex.c ****   __HAL_RTC_WAKEUPTIMER_EXTI_ENABLE_RISING_EDGE();
1035:Drivers/STM32F4xx_HAL_Driver/Src/stm32f4xx_hal_rtc_ex.c **** 
1036:Drivers/STM32F4xx_HAL_Driver/Src/stm32f4xx_hal_rtc_ex.c ****   /* Configure the interrupt in the RTC_CR register */
1037:Drivers/STM32F4xx_HAL_Driver/Src/stm32f4xx_hal_rtc_ex.c ****   __HAL_RTC_WAKEUPTIMER_ENABLE_IT(hrtc, RTC_IT_WUT);
1038:Drivers/STM32F4xx_HAL_Driver/Src/stm32f4xx_hal_rtc_ex.c **** 
1039:Drivers/STM32F4xx_HAL_Driver/Src/stm32f4xx_hal_rtc_ex.c ****   /* Enable the Wakeup Timer */
1040:Drivers/STM32F4xx_HAL_Driver/Src/stm32f4xx_hal_rtc_ex.c ****   __HAL_RTC_WAKEUPTIMER_ENABLE(hrtc);
1041:Drivers/STM32F4xx_HAL_Driver/Src/stm32f4xx_hal_rtc_ex.c **** 
1042:Drivers/STM32F4xx_HAL_Driver/Src/stm32f4xx_hal_rtc_ex.c ****   /* Enable the write protection for RTC registers */
1043:Drivers/STM32F4xx_HAL_Driver/Src/stm32f4xx_hal_rtc_ex.c ****   __HAL_RTC_WRITEPROTECTION_ENABLE(hrtc);
1044:Drivers/STM32F4xx_HAL_Driver/Src/stm32f4xx_hal_rtc_ex.c **** 
1045:Drivers/STM32F4xx_HAL_Driver/Src/stm32f4xx_hal_rtc_ex.c ****   hrtc->State = HAL_RTC_STATE_READY;
1046:Drivers/STM32F4xx_HAL_Driver/Src/stm32f4xx_hal_rtc_ex.c **** 
1047:Drivers/STM32F4xx_HAL_Driver/Src/stm32f4xx_hal_rtc_ex.c ****   /* Process Unlocked */
1048:Drivers/STM32F4xx_HAL_Driver/Src/stm32f4xx_hal_rtc_ex.c ****   __HAL_UNLOCK(hrtc);
ARM GAS  C:\Users\Konrad\AppData\Local\Temp\ccbXyGXO.s 			page 52


1049:Drivers/STM32F4xx_HAL_Driver/Src/stm32f4xx_hal_rtc_ex.c **** 
1050:Drivers/STM32F4xx_HAL_Driver/Src/stm32f4xx_hal_rtc_ex.c ****   return HAL_OK;
1051:Drivers/STM32F4xx_HAL_Driver/Src/stm32f4xx_hal_rtc_ex.c **** }
 1624              		.loc 1 1051 1 view .LVU626
 1625 0072 03B0     		add	sp, sp, #12
 1626              		.cfi_remember_state
 1627              		.cfi_def_cfa_offset 12
 1628              		@ sp needed
 1629 0074 70BC     		pop	{r4, r5, r6}
 1630              		.cfi_restore 6
 1631              		.cfi_restore 5
 1632              		.cfi_restore 4
 1633              		.cfi_def_cfa_offset 0
 1634 0076 7047     		bx	lr
 1635              	.LVL113:
 1636              	.L120:
 1637              		.cfi_restore_state
 994:Drivers/STM32F4xx_HAL_Driver/Src/stm32f4xx_hal_rtc_ex.c ****   }
 1638              		.loc 1 994 14 view .LVU627
 1639 0078 DC68     		ldr	r4, [r3, #12]
 994:Drivers/STM32F4xx_HAL_Driver/Src/stm32f4xx_hal_rtc_ex.c ****   }
 1640              		.loc 1 994 67 view .LVU628
 1641 007a 6407     		lsls	r4, r4, #29
 1642 007c DDD5     		bpl	.L119
 1643              	.L122:
 980:Drivers/STM32F4xx_HAL_Driver/Src/stm32f4xx_hal_rtc_ex.c ****     {
 1644              		.loc 1 980 5 is_stmt 1 view .LVU629
 982:Drivers/STM32F4xx_HAL_Driver/Src/stm32f4xx_hal_rtc_ex.c ****       {
 1645              		.loc 1 982 7 view .LVU630
 994:Drivers/STM32F4xx_HAL_Driver/Src/stm32f4xx_hal_rtc_ex.c ****   }
 1646              		.loc 1 994 67 view .LVU631
 982:Drivers/STM32F4xx_HAL_Driver/Src/stm32f4xx_hal_rtc_ex.c ****       {
 1647              		.loc 1 982 16 is_stmt 0 view .LVU632
 1648 007e 019C     		ldr	r4, [sp, #4]
 1649 0080 661E     		subs	r6, r4, #1
 1650 0082 0196     		str	r6, [sp, #4]
 982:Drivers/STM32F4xx_HAL_Driver/Src/stm32f4xx_hal_rtc_ex.c ****       {
 1651              		.loc 1 982 10 view .LVU633
 1652 0084 002C     		cmp	r4, #0
 1653 0086 F7D1     		bne	.L120
 1654 0088 EAE7     		b	.L133
 1655              	.L134:
1024:Drivers/STM32F4xx_HAL_Driver/Src/stm32f4xx_hal_rtc_ex.c **** 
 1656              		.loc 1 1024 3 is_stmt 1 view .LVU634
1024:Drivers/STM32F4xx_HAL_Driver/Src/stm32f4xx_hal_rtc_ex.c **** 
 1657              		.loc 1 1024 17 is_stmt 0 view .LVU635
 1658 008a 9868     		ldr	r0, [r3, #8]
1024:Drivers/STM32F4xx_HAL_Driver/Src/stm32f4xx_hal_rtc_ex.c **** 
 1659              		.loc 1 1024 22 view .LVU636
 1660 008c 20F00700 		bic	r0, r0, #7
 1661 0090 9860     		str	r0, [r3, #8]
1027:Drivers/STM32F4xx_HAL_Driver/Src/stm32f4xx_hal_rtc_ex.c **** 
 1662              		.loc 1 1027 3 is_stmt 1 view .LVU637
1027:Drivers/STM32F4xx_HAL_Driver/Src/stm32f4xx_hal_rtc_ex.c **** 
 1663              		.loc 1 1027 17 is_stmt 0 view .LVU638
 1664 0092 9868     		ldr	r0, [r3, #8]
1027:Drivers/STM32F4xx_HAL_Driver/Src/stm32f4xx_hal_rtc_ex.c **** 
ARM GAS  C:\Users\Konrad\AppData\Local\Temp\ccbXyGXO.s 			page 53


 1665              		.loc 1 1027 22 view .LVU639
 1666 0094 1043     		orrs	r0, r0, r2
1033:Drivers/STM32F4xx_HAL_Driver/Src/stm32f4xx_hal_rtc_ex.c ****   __HAL_RTC_WAKEUPTIMER_EXTI_ENABLE_RISING_EDGE();
 1667              		.loc 1 1033 3 view .LVU640
 1668 0096 134A     		ldr	r2, .L135+8
 1669              	.LVL114:
1027:Drivers/STM32F4xx_HAL_Driver/Src/stm32f4xx_hal_rtc_ex.c **** 
 1670              		.loc 1 1027 22 view .LVU641
 1671 0098 9860     		str	r0, [r3, #8]
1030:Drivers/STM32F4xx_HAL_Driver/Src/stm32f4xx_hal_rtc_ex.c **** 
 1672              		.loc 1 1030 3 is_stmt 1 view .LVU642
1030:Drivers/STM32F4xx_HAL_Driver/Src/stm32f4xx_hal_rtc_ex.c **** 
 1673              		.loc 1 1030 24 is_stmt 0 view .LVU643
 1674 009a 5961     		str	r1, [r3, #20]
1033:Drivers/STM32F4xx_HAL_Driver/Src/stm32f4xx_hal_rtc_ex.c ****   __HAL_RTC_WAKEUPTIMER_EXTI_ENABLE_RISING_EDGE();
 1675              		.loc 1 1033 3 is_stmt 1 view .LVU644
 1676 009c 1168     		ldr	r1, [r2]
 1677              	.LVL115:
1033:Drivers/STM32F4xx_HAL_Driver/Src/stm32f4xx_hal_rtc_ex.c ****   __HAL_RTC_WAKEUPTIMER_EXTI_ENABLE_RISING_EDGE();
 1678              		.loc 1 1033 3 is_stmt 0 view .LVU645
 1679 009e 41F48001 		orr	r1, r1, #4194304
 1680 00a2 1160     		str	r1, [r2]
 1681              	.LVL116:
1034:Drivers/STM32F4xx_HAL_Driver/Src/stm32f4xx_hal_rtc_ex.c **** 
 1682              		.loc 1 1034 3 is_stmt 1 view .LVU646
 1683 00a4 9168     		ldr	r1, [r2, #8]
 1684 00a6 41F48001 		orr	r1, r1, #4194304
 1685 00aa 9160     		str	r1, [r2, #8]
1037:Drivers/STM32F4xx_HAL_Driver/Src/stm32f4xx_hal_rtc_ex.c **** 
 1686              		.loc 1 1037 3 view .LVU647
 1687 00ac 9A68     		ldr	r2, [r3, #8]
 1688 00ae 42F48042 		orr	r2, r2, #16384
 1689 00b2 9A60     		str	r2, [r3, #8]
1040:Drivers/STM32F4xx_HAL_Driver/Src/stm32f4xx_hal_rtc_ex.c **** 
 1690              		.loc 1 1040 3 view .LVU648
 1691 00b4 9A68     		ldr	r2, [r3, #8]
1048:Drivers/STM32F4xx_HAL_Driver/Src/stm32f4xx_hal_rtc_ex.c **** 
 1692              		.loc 1 1048 3 is_stmt 0 view .LVU649
 1693 00b6 0024     		movs	r4, #0
1040:Drivers/STM32F4xx_HAL_Driver/Src/stm32f4xx_hal_rtc_ex.c **** 
 1694              		.loc 1 1040 3 view .LVU650
 1695 00b8 42F48062 		orr	r2, r2, #1024
 1696 00bc 9A60     		str	r2, [r3, #8]
1043:Drivers/STM32F4xx_HAL_Driver/Src/stm32f4xx_hal_rtc_ex.c **** 
 1697              		.loc 1 1043 3 is_stmt 1 view .LVU651
1043:Drivers/STM32F4xx_HAL_Driver/Src/stm32f4xx_hal_rtc_ex.c **** 
 1698              		.loc 1 1043 3 view .LVU652
 1699 00be FF21     		movs	r1, #255
1045:Drivers/STM32F4xx_HAL_Driver/Src/stm32f4xx_hal_rtc_ex.c **** 
 1700              		.loc 1 1045 15 is_stmt 0 view .LVU653
 1701 00c0 0122     		movs	r2, #1
1050:Drivers/STM32F4xx_HAL_Driver/Src/stm32f4xx_hal_rtc_ex.c **** }
 1702              		.loc 1 1050 10 view .LVU654
 1703 00c2 2046     		mov	r0, r4
1043:Drivers/STM32F4xx_HAL_Driver/Src/stm32f4xx_hal_rtc_ex.c **** 
 1704              		.loc 1 1043 3 view .LVU655
 1705 00c4 5962     		str	r1, [r3, #36]
ARM GAS  C:\Users\Konrad\AppData\Local\Temp\ccbXyGXO.s 			page 54


1043:Drivers/STM32F4xx_HAL_Driver/Src/stm32f4xx_hal_rtc_ex.c **** 
 1706              		.loc 1 1043 3 is_stmt 1 view .LVU656
1045:Drivers/STM32F4xx_HAL_Driver/Src/stm32f4xx_hal_rtc_ex.c **** 
 1707              		.loc 1 1045 3 view .LVU657
1045:Drivers/STM32F4xx_HAL_Driver/Src/stm32f4xx_hal_rtc_ex.c **** 
 1708              		.loc 1 1045 15 is_stmt 0 view .LVU658
 1709 00c6 8CF81D20 		strb	r2, [ip, #29]
1048:Drivers/STM32F4xx_HAL_Driver/Src/stm32f4xx_hal_rtc_ex.c **** 
 1710              		.loc 1 1048 3 is_stmt 1 view .LVU659
1048:Drivers/STM32F4xx_HAL_Driver/Src/stm32f4xx_hal_rtc_ex.c **** 
 1711              		.loc 1 1048 3 view .LVU660
 1712 00ca 8CF81C40 		strb	r4, [ip, #28]
1048:Drivers/STM32F4xx_HAL_Driver/Src/stm32f4xx_hal_rtc_ex.c **** 
 1713              		.loc 1 1048 3 view .LVU661
1050:Drivers/STM32F4xx_HAL_Driver/Src/stm32f4xx_hal_rtc_ex.c **** }
 1714              		.loc 1 1050 3 view .LVU662
 1715              		.loc 1 1051 1 is_stmt 0 view .LVU663
 1716 00ce 03B0     		add	sp, sp, #12
 1717              		.cfi_remember_state
 1718              		.cfi_def_cfa_offset 12
 1719              		@ sp needed
 1720 00d0 70BC     		pop	{r4, r5, r6}
 1721              		.cfi_restore 6
 1722              		.cfi_restore 5
 1723              		.cfi_restore 4
 1724              		.cfi_def_cfa_offset 0
 1725 00d2 7047     		bx	lr
 1726              	.LVL117:
 1727              	.L125:
 1728              		.cfi_restore_state
 969:Drivers/STM32F4xx_HAL_Driver/Src/stm32f4xx_hal_rtc_ex.c **** 
 1729              		.loc 1 969 3 discriminator 1 view .LVU664
 1730 00d4 0220     		movs	r0, #2
 1731              	.LVL118:
 1732              		.loc 1 1051 1 view .LVU665
 1733 00d6 03B0     		add	sp, sp, #12
 1734              		.cfi_def_cfa_offset 12
 1735              		@ sp needed
 1736 00d8 70BC     		pop	{r4, r5, r6}
 1737              		.cfi_restore 6
 1738              		.cfi_restore 5
 1739              		.cfi_restore 4
 1740              		.cfi_def_cfa_offset 0
 1741 00da 7047     		bx	lr
 1742              	.L136:
 1743              		.align	2
 1744              	.L135:
 1745 00dc 00000000 		.word	SystemCoreClock
 1746 00e0 D34D6210 		.word	274877907
 1747 00e4 003C0140 		.word	1073822720
 1748              		.cfi_endproc
 1749              	.LFE229:
 1751              		.section	.text.HAL_RTCEx_DeactivateWakeUpTimer,"ax",%progbits
 1752              		.align	1
 1753              		.p2align 2,,3
 1754              		.global	HAL_RTCEx_DeactivateWakeUpTimer
 1755              		.syntax unified
ARM GAS  C:\Users\Konrad\AppData\Local\Temp\ccbXyGXO.s 			page 55


 1756              		.thumb
 1757              		.thumb_func
 1759              	HAL_RTCEx_DeactivateWakeUpTimer:
 1760              	.LVL119:
 1761              	.LFB230:
1052:Drivers/STM32F4xx_HAL_Driver/Src/stm32f4xx_hal_rtc_ex.c **** 
1053:Drivers/STM32F4xx_HAL_Driver/Src/stm32f4xx_hal_rtc_ex.c **** /**
1054:Drivers/STM32F4xx_HAL_Driver/Src/stm32f4xx_hal_rtc_ex.c ****   * @brief  Deactivates wakeup timer counter.
1055:Drivers/STM32F4xx_HAL_Driver/Src/stm32f4xx_hal_rtc_ex.c ****   * @param  hrtc pointer to a RTC_HandleTypeDef structure that contains
1056:Drivers/STM32F4xx_HAL_Driver/Src/stm32f4xx_hal_rtc_ex.c ****   *                the configuration information for RTC.
1057:Drivers/STM32F4xx_HAL_Driver/Src/stm32f4xx_hal_rtc_ex.c ****   * @retval HAL status
1058:Drivers/STM32F4xx_HAL_Driver/Src/stm32f4xx_hal_rtc_ex.c ****   */
1059:Drivers/STM32F4xx_HAL_Driver/Src/stm32f4xx_hal_rtc_ex.c **** HAL_StatusTypeDef HAL_RTCEx_DeactivateWakeUpTimer(RTC_HandleTypeDef *hrtc)
1060:Drivers/STM32F4xx_HAL_Driver/Src/stm32f4xx_hal_rtc_ex.c **** {
 1762              		.loc 1 1060 1 is_stmt 1 view -0
 1763              		.cfi_startproc
 1764              		@ args = 0, pretend = 0, frame = 0
 1765              		@ frame_needed = 0, uses_anonymous_args = 0
1061:Drivers/STM32F4xx_HAL_Driver/Src/stm32f4xx_hal_rtc_ex.c ****   uint32_t tickstart = 0U;
 1766              		.loc 1 1061 3 view .LVU667
1062:Drivers/STM32F4xx_HAL_Driver/Src/stm32f4xx_hal_rtc_ex.c **** 
1063:Drivers/STM32F4xx_HAL_Driver/Src/stm32f4xx_hal_rtc_ex.c ****   /* Process Locked */
1064:Drivers/STM32F4xx_HAL_Driver/Src/stm32f4xx_hal_rtc_ex.c ****   __HAL_LOCK(hrtc);
 1767              		.loc 1 1064 3 view .LVU668
 1768              		.loc 1 1064 3 view .LVU669
 1769 0000 037F     		ldrb	r3, [r0, #28]	@ zero_extendqisi2
 1770 0002 012B     		cmp	r3, #1
 1771 0004 31D0     		beq	.L141
1060:Drivers/STM32F4xx_HAL_Driver/Src/stm32f4xx_hal_rtc_ex.c ****   uint32_t tickstart = 0U;
 1772              		.loc 1 1060 1 is_stmt 0 view .LVU670
 1773 0006 70B5     		push	{r4, r5, r6, lr}
 1774              		.cfi_def_cfa_offset 16
 1775              		.cfi_offset 4, -16
 1776              		.cfi_offset 5, -12
 1777              		.cfi_offset 6, -8
 1778              		.cfi_offset 14, -4
 1779 0008 0546     		mov	r5, r0
 1780              		.loc 1 1064 3 is_stmt 1 discriminator 2 view .LVU671
1065:Drivers/STM32F4xx_HAL_Driver/Src/stm32f4xx_hal_rtc_ex.c **** 
1066:Drivers/STM32F4xx_HAL_Driver/Src/stm32f4xx_hal_rtc_ex.c ****   hrtc->State = HAL_RTC_STATE_BUSY;
1067:Drivers/STM32F4xx_HAL_Driver/Src/stm32f4xx_hal_rtc_ex.c **** 
1068:Drivers/STM32F4xx_HAL_Driver/Src/stm32f4xx_hal_rtc_ex.c ****   /* Disable the write protection for RTC registers */
1069:Drivers/STM32F4xx_HAL_Driver/Src/stm32f4xx_hal_rtc_ex.c ****   __HAL_RTC_WRITEPROTECTION_DISABLE(hrtc);
 1781              		.loc 1 1069 3 is_stmt 0 view .LVU672
 1782 000a 0368     		ldr	r3, [r0]
1066:Drivers/STM32F4xx_HAL_Driver/Src/stm32f4xx_hal_rtc_ex.c **** 
 1783              		.loc 1 1066 15 view .LVU673
 1784 000c 0222     		movs	r2, #2
 1785 000e 6A77     		strb	r2, [r5, #29]
1064:Drivers/STM32F4xx_HAL_Driver/Src/stm32f4xx_hal_rtc_ex.c **** 
 1786              		.loc 1 1064 3 discriminator 2 view .LVU674
 1787 0010 0120     		movs	r0, #1
 1788              	.LVL120:
 1789              		.loc 1 1069 3 view .LVU675
 1790 0012 CA21     		movs	r1, #202
 1791 0014 5322     		movs	r2, #83
1064:Drivers/STM32F4xx_HAL_Driver/Src/stm32f4xx_hal_rtc_ex.c **** 
ARM GAS  C:\Users\Konrad\AppData\Local\Temp\ccbXyGXO.s 			page 56


 1792              		.loc 1 1064 3 discriminator 2 view .LVU676
 1793 0016 2877     		strb	r0, [r5, #28]
1064:Drivers/STM32F4xx_HAL_Driver/Src/stm32f4xx_hal_rtc_ex.c **** 
 1794              		.loc 1 1064 3 is_stmt 1 discriminator 2 view .LVU677
1066:Drivers/STM32F4xx_HAL_Driver/Src/stm32f4xx_hal_rtc_ex.c **** 
 1795              		.loc 1 1066 3 view .LVU678
 1796              		.loc 1 1069 3 view .LVU679
 1797              		.loc 1 1069 3 view .LVU680
 1798 0018 5962     		str	r1, [r3, #36]
 1799              		.loc 1 1069 3 view .LVU681
 1800 001a 5A62     		str	r2, [r3, #36]
 1801              		.loc 1 1069 3 view .LVU682
1070:Drivers/STM32F4xx_HAL_Driver/Src/stm32f4xx_hal_rtc_ex.c **** 
1071:Drivers/STM32F4xx_HAL_Driver/Src/stm32f4xx_hal_rtc_ex.c ****   /* Disable the Wakeup Timer */
1072:Drivers/STM32F4xx_HAL_Driver/Src/stm32f4xx_hal_rtc_ex.c ****   __HAL_RTC_WAKEUPTIMER_DISABLE(hrtc);
 1802              		.loc 1 1072 3 view .LVU683
 1803 001c 9A68     		ldr	r2, [r3, #8]
 1804 001e 22F48062 		bic	r2, r2, #1024
 1805 0022 9A60     		str	r2, [r3, #8]
1073:Drivers/STM32F4xx_HAL_Driver/Src/stm32f4xx_hal_rtc_ex.c **** 
1074:Drivers/STM32F4xx_HAL_Driver/Src/stm32f4xx_hal_rtc_ex.c ****   /* In case of interrupt mode is used, the interrupt source must disabled */
1075:Drivers/STM32F4xx_HAL_Driver/Src/stm32f4xx_hal_rtc_ex.c ****   __HAL_RTC_WAKEUPTIMER_DISABLE_IT(hrtc, RTC_IT_WUT);
 1806              		.loc 1 1075 3 view .LVU684
 1807 0024 9A68     		ldr	r2, [r3, #8]
 1808 0026 22F48042 		bic	r2, r2, #16384
 1809 002a 9A60     		str	r2, [r3, #8]
1076:Drivers/STM32F4xx_HAL_Driver/Src/stm32f4xx_hal_rtc_ex.c **** 
1077:Drivers/STM32F4xx_HAL_Driver/Src/stm32f4xx_hal_rtc_ex.c ****   /* Get tick */
1078:Drivers/STM32F4xx_HAL_Driver/Src/stm32f4xx_hal_rtc_ex.c ****   tickstart = HAL_GetTick();
 1810              		.loc 1 1078 3 view .LVU685
 1811              		.loc 1 1078 15 is_stmt 0 view .LVU686
 1812 002c FFF7FEFF 		bl	HAL_GetTick
 1813              	.LVL121:
 1814 0030 0646     		mov	r6, r0
 1815              	.LVL122:
1079:Drivers/STM32F4xx_HAL_Driver/Src/stm32f4xx_hal_rtc_ex.c **** 
1080:Drivers/STM32F4xx_HAL_Driver/Src/stm32f4xx_hal_rtc_ex.c ****   /* Wait till RTC WUTWF flag is set and if timeout is reached exit */
1081:Drivers/STM32F4xx_HAL_Driver/Src/stm32f4xx_hal_rtc_ex.c ****   while (__HAL_RTC_WAKEUPTIMER_GET_FLAG(hrtc, RTC_FLAG_WUTWF) == 0U)
 1816              		.loc 1 1081 3 is_stmt 1 view .LVU687
 1817              		.loc 1 1081 9 is_stmt 0 view .LVU688
 1818 0032 05E0     		b	.L139
 1819              	.LVL123:
 1820              	.L140:
1082:Drivers/STM32F4xx_HAL_Driver/Src/stm32f4xx_hal_rtc_ex.c ****   {
1083:Drivers/STM32F4xx_HAL_Driver/Src/stm32f4xx_hal_rtc_ex.c ****     if ((HAL_GetTick() - tickstart) > RTC_TIMEOUT_VALUE)
 1821              		.loc 1 1083 10 view .LVU689
 1822 0034 FFF7FEFF 		bl	HAL_GetTick
 1823              	.LVL124:
 1824              		.loc 1 1083 24 discriminator 1 view .LVU690
 1825 0038 831B     		subs	r3, r0, r6
 1826              		.loc 1 1083 8 discriminator 1 view .LVU691
 1827 003a B3F57A7F 		cmp	r3, #1000
 1828 003e 0CD8     		bhi	.L147
 1829              	.L139:
 1830              		.loc 1 1083 5 is_stmt 1 view .LVU692
1081:Drivers/STM32F4xx_HAL_Driver/Src/stm32f4xx_hal_rtc_ex.c ****   {
 1831              		.loc 1 1081 63 view .LVU693
ARM GAS  C:\Users\Konrad\AppData\Local\Temp\ccbXyGXO.s 			page 57


1081:Drivers/STM32F4xx_HAL_Driver/Src/stm32f4xx_hal_rtc_ex.c ****   {
 1832              		.loc 1 1081 10 is_stmt 0 view .LVU694
 1833 0040 2A68     		ldr	r2, [r5]
 1834 0042 D468     		ldr	r4, [r2, #12]
1081:Drivers/STM32F4xx_HAL_Driver/Src/stm32f4xx_hal_rtc_ex.c ****   {
 1835              		.loc 1 1081 63 view .LVU695
 1836 0044 14F00404 		ands	r4, r4, #4
 1837 0048 F4D0     		beq	.L140
1084:Drivers/STM32F4xx_HAL_Driver/Src/stm32f4xx_hal_rtc_ex.c ****     {
1085:Drivers/STM32F4xx_HAL_Driver/Src/stm32f4xx_hal_rtc_ex.c ****       /* Enable the write protection for RTC registers */
1086:Drivers/STM32F4xx_HAL_Driver/Src/stm32f4xx_hal_rtc_ex.c ****       __HAL_RTC_WRITEPROTECTION_ENABLE(hrtc);
1087:Drivers/STM32F4xx_HAL_Driver/Src/stm32f4xx_hal_rtc_ex.c **** 
1088:Drivers/STM32F4xx_HAL_Driver/Src/stm32f4xx_hal_rtc_ex.c ****       hrtc->State = HAL_RTC_STATE_TIMEOUT;
1089:Drivers/STM32F4xx_HAL_Driver/Src/stm32f4xx_hal_rtc_ex.c **** 
1090:Drivers/STM32F4xx_HAL_Driver/Src/stm32f4xx_hal_rtc_ex.c ****       /* Process Unlocked */
1091:Drivers/STM32F4xx_HAL_Driver/Src/stm32f4xx_hal_rtc_ex.c ****       __HAL_UNLOCK(hrtc);
1092:Drivers/STM32F4xx_HAL_Driver/Src/stm32f4xx_hal_rtc_ex.c **** 
1093:Drivers/STM32F4xx_HAL_Driver/Src/stm32f4xx_hal_rtc_ex.c ****       return HAL_TIMEOUT;
1094:Drivers/STM32F4xx_HAL_Driver/Src/stm32f4xx_hal_rtc_ex.c ****     }
1095:Drivers/STM32F4xx_HAL_Driver/Src/stm32f4xx_hal_rtc_ex.c ****   }
1096:Drivers/STM32F4xx_HAL_Driver/Src/stm32f4xx_hal_rtc_ex.c **** 
1097:Drivers/STM32F4xx_HAL_Driver/Src/stm32f4xx_hal_rtc_ex.c ****   /* Enable the write protection for RTC registers */
1098:Drivers/STM32F4xx_HAL_Driver/Src/stm32f4xx_hal_rtc_ex.c ****   __HAL_RTC_WRITEPROTECTION_ENABLE(hrtc);
 1838              		.loc 1 1098 3 is_stmt 1 view .LVU696
 1839              		.loc 1 1098 3 view .LVU697
1099:Drivers/STM32F4xx_HAL_Driver/Src/stm32f4xx_hal_rtc_ex.c **** 
1100:Drivers/STM32F4xx_HAL_Driver/Src/stm32f4xx_hal_rtc_ex.c ****   hrtc->State = HAL_RTC_STATE_READY;
1101:Drivers/STM32F4xx_HAL_Driver/Src/stm32f4xx_hal_rtc_ex.c **** 
1102:Drivers/STM32F4xx_HAL_Driver/Src/stm32f4xx_hal_rtc_ex.c ****   /* Process Unlocked */
1103:Drivers/STM32F4xx_HAL_Driver/Src/stm32f4xx_hal_rtc_ex.c ****   __HAL_UNLOCK(hrtc);
 1840              		.loc 1 1103 3 is_stmt 0 view .LVU698
 1841 004a 0023     		movs	r3, #0
1098:Drivers/STM32F4xx_HAL_Driver/Src/stm32f4xx_hal_rtc_ex.c **** 
 1842              		.loc 1 1098 3 view .LVU699
 1843 004c FF20     		movs	r0, #255
1100:Drivers/STM32F4xx_HAL_Driver/Src/stm32f4xx_hal_rtc_ex.c **** 
 1844              		.loc 1 1100 15 view .LVU700
 1845 004e 0121     		movs	r1, #1
1098:Drivers/STM32F4xx_HAL_Driver/Src/stm32f4xx_hal_rtc_ex.c **** 
 1846              		.loc 1 1098 3 view .LVU701
 1847 0050 5062     		str	r0, [r2, #36]
1098:Drivers/STM32F4xx_HAL_Driver/Src/stm32f4xx_hal_rtc_ex.c **** 
 1848              		.loc 1 1098 3 is_stmt 1 view .LVU702
1100:Drivers/STM32F4xx_HAL_Driver/Src/stm32f4xx_hal_rtc_ex.c **** 
 1849              		.loc 1 1100 3 view .LVU703
1100:Drivers/STM32F4xx_HAL_Driver/Src/stm32f4xx_hal_rtc_ex.c **** 
 1850              		.loc 1 1100 15 is_stmt 0 view .LVU704
 1851 0052 6977     		strb	r1, [r5, #29]
 1852              		.loc 1 1103 3 is_stmt 1 view .LVU705
 1853              		.loc 1 1103 3 view .LVU706
 1854 0054 2B77     		strb	r3, [r5, #28]
 1855              		.loc 1 1103 3 view .LVU707
1104:Drivers/STM32F4xx_HAL_Driver/Src/stm32f4xx_hal_rtc_ex.c **** 
1105:Drivers/STM32F4xx_HAL_Driver/Src/stm32f4xx_hal_rtc_ex.c ****   return HAL_OK;
 1856              		.loc 1 1105 3 view .LVU708
 1857              		.loc 1 1105 10 is_stmt 0 view .LVU709
 1858 0056 1846     		mov	r0, r3
ARM GAS  C:\Users\Konrad\AppData\Local\Temp\ccbXyGXO.s 			page 58


1106:Drivers/STM32F4xx_HAL_Driver/Src/stm32f4xx_hal_rtc_ex.c **** }
 1859              		.loc 1 1106 1 view .LVU710
 1860 0058 70BD     		pop	{r4, r5, r6, pc}
 1861              	.LVL125:
 1862              	.L147:
1086:Drivers/STM32F4xx_HAL_Driver/Src/stm32f4xx_hal_rtc_ex.c **** 
 1863              		.loc 1 1086 7 is_stmt 1 view .LVU711
1086:Drivers/STM32F4xx_HAL_Driver/Src/stm32f4xx_hal_rtc_ex.c **** 
 1864              		.loc 1 1086 7 view .LVU712
 1865 005a 2A68     		ldr	r2, [r5]
1088:Drivers/STM32F4xx_HAL_Driver/Src/stm32f4xx_hal_rtc_ex.c **** 
 1866              		.loc 1 1088 19 is_stmt 0 view .LVU713
 1867 005c 0323     		movs	r3, #3
1086:Drivers/STM32F4xx_HAL_Driver/Src/stm32f4xx_hal_rtc_ex.c **** 
 1868              		.loc 1 1086 7 view .LVU714
 1869 005e FF21     		movs	r1, #255
 1870 0060 5162     		str	r1, [r2, #36]
1086:Drivers/STM32F4xx_HAL_Driver/Src/stm32f4xx_hal_rtc_ex.c **** 
 1871              		.loc 1 1086 7 is_stmt 1 view .LVU715
1088:Drivers/STM32F4xx_HAL_Driver/Src/stm32f4xx_hal_rtc_ex.c **** 
 1872              		.loc 1 1088 7 view .LVU716
1088:Drivers/STM32F4xx_HAL_Driver/Src/stm32f4xx_hal_rtc_ex.c **** 
 1873              		.loc 1 1088 19 is_stmt 0 view .LVU717
 1874 0062 6B77     		strb	r3, [r5, #29]
1091:Drivers/STM32F4xx_HAL_Driver/Src/stm32f4xx_hal_rtc_ex.c **** 
 1875              		.loc 1 1091 7 is_stmt 1 view .LVU718
1091:Drivers/STM32F4xx_HAL_Driver/Src/stm32f4xx_hal_rtc_ex.c **** 
 1876              		.loc 1 1091 7 view .LVU719
 1877 0064 2C77     		strb	r4, [r5, #28]
1091:Drivers/STM32F4xx_HAL_Driver/Src/stm32f4xx_hal_rtc_ex.c **** 
 1878              		.loc 1 1091 7 view .LVU720
1093:Drivers/STM32F4xx_HAL_Driver/Src/stm32f4xx_hal_rtc_ex.c ****     }
 1879              		.loc 1 1093 7 view .LVU721
1093:Drivers/STM32F4xx_HAL_Driver/Src/stm32f4xx_hal_rtc_ex.c ****     }
 1880              		.loc 1 1093 14 is_stmt 0 view .LVU722
 1881 0066 1846     		mov	r0, r3
 1882              		.loc 1 1106 1 view .LVU723
 1883 0068 70BD     		pop	{r4, r5, r6, pc}
 1884              	.LVL126:
 1885              	.L141:
 1886              		.cfi_def_cfa_offset 0
 1887              		.cfi_restore 4
 1888              		.cfi_restore 5
 1889              		.cfi_restore 6
 1890              		.cfi_restore 14
1064:Drivers/STM32F4xx_HAL_Driver/Src/stm32f4xx_hal_rtc_ex.c **** 
 1891              		.loc 1 1064 3 discriminator 1 view .LVU724
 1892 006a 0220     		movs	r0, #2
 1893              	.LVL127:
 1894              		.loc 1 1106 1 view .LVU725
 1895 006c 7047     		bx	lr
 1896              		.cfi_endproc
 1897              	.LFE230:
 1899 006e 00BF     		.section	.text.HAL_RTCEx_GetWakeUpTimer,"ax",%progbits
 1900              		.align	1
 1901              		.p2align 2,,3
 1902              		.global	HAL_RTCEx_GetWakeUpTimer
ARM GAS  C:\Users\Konrad\AppData\Local\Temp\ccbXyGXO.s 			page 59


 1903              		.syntax unified
 1904              		.thumb
 1905              		.thumb_func
 1907              	HAL_RTCEx_GetWakeUpTimer:
 1908              	.LVL128:
 1909              	.LFB231:
1107:Drivers/STM32F4xx_HAL_Driver/Src/stm32f4xx_hal_rtc_ex.c **** 
1108:Drivers/STM32F4xx_HAL_Driver/Src/stm32f4xx_hal_rtc_ex.c **** /**
1109:Drivers/STM32F4xx_HAL_Driver/Src/stm32f4xx_hal_rtc_ex.c ****   * @brief  Gets wakeup timer counter.
1110:Drivers/STM32F4xx_HAL_Driver/Src/stm32f4xx_hal_rtc_ex.c ****   * @param  hrtc pointer to a RTC_HandleTypeDef structure that contains
1111:Drivers/STM32F4xx_HAL_Driver/Src/stm32f4xx_hal_rtc_ex.c ****   *                the configuration information for RTC.
1112:Drivers/STM32F4xx_HAL_Driver/Src/stm32f4xx_hal_rtc_ex.c ****   * @retval Counter value
1113:Drivers/STM32F4xx_HAL_Driver/Src/stm32f4xx_hal_rtc_ex.c ****   */
1114:Drivers/STM32F4xx_HAL_Driver/Src/stm32f4xx_hal_rtc_ex.c **** uint32_t HAL_RTCEx_GetWakeUpTimer(RTC_HandleTypeDef *hrtc)
1115:Drivers/STM32F4xx_HAL_Driver/Src/stm32f4xx_hal_rtc_ex.c **** {
 1910              		.loc 1 1115 1 is_stmt 1 view -0
 1911              		.cfi_startproc
 1912              		@ args = 0, pretend = 0, frame = 0
 1913              		@ frame_needed = 0, uses_anonymous_args = 0
 1914              		@ link register save eliminated.
1116:Drivers/STM32F4xx_HAL_Driver/Src/stm32f4xx_hal_rtc_ex.c ****   /* Get the counter value */
1117:Drivers/STM32F4xx_HAL_Driver/Src/stm32f4xx_hal_rtc_ex.c ****   return ((uint32_t)(hrtc->Instance->WUTR & RTC_WUTR_WUT));
 1915              		.loc 1 1117 3 view .LVU727
 1916              		.loc 1 1117 26 is_stmt 0 view .LVU728
 1917 0000 0368     		ldr	r3, [r0]
 1918              		.loc 1 1117 36 view .LVU729
 1919 0002 5869     		ldr	r0, [r3, #20]
 1920              	.LVL129:
1118:Drivers/STM32F4xx_HAL_Driver/Src/stm32f4xx_hal_rtc_ex.c **** }
 1921              		.loc 1 1118 1 view .LVU730
 1922 0004 80B2     		uxth	r0, r0
 1923 0006 7047     		bx	lr
 1924              		.cfi_endproc
 1925              	.LFE231:
 1927              		.section	.text.HAL_RTCEx_WakeUpTimerEventCallback,"ax",%progbits
 1928              		.align	1
 1929              		.p2align 2,,3
 1930              		.weak	HAL_RTCEx_WakeUpTimerEventCallback
 1931              		.syntax unified
 1932              		.thumb
 1933              		.thumb_func
 1935              	HAL_RTCEx_WakeUpTimerEventCallback:
 1936              	.LFB252:
 1937              		.cfi_startproc
1119:Drivers/STM32F4xx_HAL_Driver/Src/stm32f4xx_hal_rtc_ex.c **** 
1120:Drivers/STM32F4xx_HAL_Driver/Src/stm32f4xx_hal_rtc_ex.c **** /**
1121:Drivers/STM32F4xx_HAL_Driver/Src/stm32f4xx_hal_rtc_ex.c ****   * @brief  Handles Wakeup Timer interrupt request.
1122:Drivers/STM32F4xx_HAL_Driver/Src/stm32f4xx_hal_rtc_ex.c ****   * @note   Unlike alarm interrupt line (shared by Alarms A and B) or tamper
1123:Drivers/STM32F4xx_HAL_Driver/Src/stm32f4xx_hal_rtc_ex.c ****   *         interrupt line (shared by timestamp and tampers) wakeup timer
1124:Drivers/STM32F4xx_HAL_Driver/Src/stm32f4xx_hal_rtc_ex.c ****   *         interrupt line is exclusive to the wakeup timer.
1125:Drivers/STM32F4xx_HAL_Driver/Src/stm32f4xx_hal_rtc_ex.c ****   *         There is no need in this case to check on the interrupt enable
1126:Drivers/STM32F4xx_HAL_Driver/Src/stm32f4xx_hal_rtc_ex.c ****   *         status via __HAL_RTC_WAKEUPTIMER_GET_IT_SOURCE().
1127:Drivers/STM32F4xx_HAL_Driver/Src/stm32f4xx_hal_rtc_ex.c ****   * @param  hrtc pointer to a RTC_HandleTypeDef structure that contains
1128:Drivers/STM32F4xx_HAL_Driver/Src/stm32f4xx_hal_rtc_ex.c ****   *                the configuration information for RTC.
1129:Drivers/STM32F4xx_HAL_Driver/Src/stm32f4xx_hal_rtc_ex.c ****   * @retval None
1130:Drivers/STM32F4xx_HAL_Driver/Src/stm32f4xx_hal_rtc_ex.c ****   */
1131:Drivers/STM32F4xx_HAL_Driver/Src/stm32f4xx_hal_rtc_ex.c **** void HAL_RTCEx_WakeUpTimerIRQHandler(RTC_HandleTypeDef *hrtc)
ARM GAS  C:\Users\Konrad\AppData\Local\Temp\ccbXyGXO.s 			page 60


1132:Drivers/STM32F4xx_HAL_Driver/Src/stm32f4xx_hal_rtc_ex.c **** {
1133:Drivers/STM32F4xx_HAL_Driver/Src/stm32f4xx_hal_rtc_ex.c ****   /* Get the pending status of the Wakeup timer Interrupt */
1134:Drivers/STM32F4xx_HAL_Driver/Src/stm32f4xx_hal_rtc_ex.c ****   if (__HAL_RTC_WAKEUPTIMER_GET_FLAG(hrtc, RTC_FLAG_WUTF) != 0U)
1135:Drivers/STM32F4xx_HAL_Driver/Src/stm32f4xx_hal_rtc_ex.c ****   {
1136:Drivers/STM32F4xx_HAL_Driver/Src/stm32f4xx_hal_rtc_ex.c ****     /* Wakeup timer callback */
1137:Drivers/STM32F4xx_HAL_Driver/Src/stm32f4xx_hal_rtc_ex.c **** #if (USE_HAL_RTC_REGISTER_CALLBACKS == 1)
1138:Drivers/STM32F4xx_HAL_Driver/Src/stm32f4xx_hal_rtc_ex.c ****     hrtc->WakeUpTimerEventCallback(hrtc);
1139:Drivers/STM32F4xx_HAL_Driver/Src/stm32f4xx_hal_rtc_ex.c **** #else
1140:Drivers/STM32F4xx_HAL_Driver/Src/stm32f4xx_hal_rtc_ex.c ****     HAL_RTCEx_WakeUpTimerEventCallback(hrtc);
1141:Drivers/STM32F4xx_HAL_Driver/Src/stm32f4xx_hal_rtc_ex.c **** #endif /* USE_HAL_RTC_REGISTER_CALLBACKS */
1142:Drivers/STM32F4xx_HAL_Driver/Src/stm32f4xx_hal_rtc_ex.c **** 
1143:Drivers/STM32F4xx_HAL_Driver/Src/stm32f4xx_hal_rtc_ex.c ****     /* Clear the Wakeup timer interrupt pending bit */
1144:Drivers/STM32F4xx_HAL_Driver/Src/stm32f4xx_hal_rtc_ex.c ****     __HAL_RTC_WAKEUPTIMER_CLEAR_FLAG(hrtc, RTC_FLAG_WUTF);
1145:Drivers/STM32F4xx_HAL_Driver/Src/stm32f4xx_hal_rtc_ex.c ****   }
1146:Drivers/STM32F4xx_HAL_Driver/Src/stm32f4xx_hal_rtc_ex.c **** 
1147:Drivers/STM32F4xx_HAL_Driver/Src/stm32f4xx_hal_rtc_ex.c ****   /* Clear the EXTI's line Flag for RTC WakeUpTimer */
1148:Drivers/STM32F4xx_HAL_Driver/Src/stm32f4xx_hal_rtc_ex.c ****   __HAL_RTC_WAKEUPTIMER_EXTI_CLEAR_FLAG();
1149:Drivers/STM32F4xx_HAL_Driver/Src/stm32f4xx_hal_rtc_ex.c **** 
1150:Drivers/STM32F4xx_HAL_Driver/Src/stm32f4xx_hal_rtc_ex.c ****   /* Change RTC state */
1151:Drivers/STM32F4xx_HAL_Driver/Src/stm32f4xx_hal_rtc_ex.c ****   hrtc->State = HAL_RTC_STATE_READY;
1152:Drivers/STM32F4xx_HAL_Driver/Src/stm32f4xx_hal_rtc_ex.c **** }
1153:Drivers/STM32F4xx_HAL_Driver/Src/stm32f4xx_hal_rtc_ex.c **** 
1154:Drivers/STM32F4xx_HAL_Driver/Src/stm32f4xx_hal_rtc_ex.c **** /**
1155:Drivers/STM32F4xx_HAL_Driver/Src/stm32f4xx_hal_rtc_ex.c ****   * @brief  Wakeup Timer callback.
1156:Drivers/STM32F4xx_HAL_Driver/Src/stm32f4xx_hal_rtc_ex.c ****   * @param  hrtc pointer to a RTC_HandleTypeDef structure that contains
1157:Drivers/STM32F4xx_HAL_Driver/Src/stm32f4xx_hal_rtc_ex.c ****   *                the configuration information for RTC.
1158:Drivers/STM32F4xx_HAL_Driver/Src/stm32f4xx_hal_rtc_ex.c ****   * @retval None
1159:Drivers/STM32F4xx_HAL_Driver/Src/stm32f4xx_hal_rtc_ex.c ****   */
1160:Drivers/STM32F4xx_HAL_Driver/Src/stm32f4xx_hal_rtc_ex.c **** __weak void HAL_RTCEx_WakeUpTimerEventCallback(RTC_HandleTypeDef *hrtc)
 1938              		.loc 1 1160 13 is_stmt 1 view -0
 1939              		@ args = 0, pretend = 0, frame = 0
 1940              		@ frame_needed = 0, uses_anonymous_args = 0
 1941              		@ link register save eliminated.
 1942 0000 7047     		bx	lr
 1943              		.cfi_endproc
 1944              	.LFE252:
 1946 0002 00BF     		.section	.text.HAL_RTCEx_WakeUpTimerIRQHandler,"ax",%progbits
 1947              		.align	1
 1948              		.p2align 2,,3
 1949              		.global	HAL_RTCEx_WakeUpTimerIRQHandler
 1950              		.syntax unified
 1951              		.thumb
 1952              		.thumb_func
 1954              	HAL_RTCEx_WakeUpTimerIRQHandler:
 1955              	.LVL130:
 1956              	.LFB232:
1132:Drivers/STM32F4xx_HAL_Driver/Src/stm32f4xx_hal_rtc_ex.c ****   /* Get the pending status of the Wakeup timer Interrupt */
 1957              		.loc 1 1132 1 view -0
 1958              		.cfi_startproc
 1959              		@ args = 0, pretend = 0, frame = 0
 1960              		@ frame_needed = 0, uses_anonymous_args = 0
1134:Drivers/STM32F4xx_HAL_Driver/Src/stm32f4xx_hal_rtc_ex.c ****   {
 1961              		.loc 1 1134 3 view .LVU733
1134:Drivers/STM32F4xx_HAL_Driver/Src/stm32f4xx_hal_rtc_ex.c ****   {
 1962              		.loc 1 1134 7 is_stmt 0 view .LVU734
 1963 0000 0368     		ldr	r3, [r0]
 1964 0002 DB68     		ldr	r3, [r3, #12]
ARM GAS  C:\Users\Konrad\AppData\Local\Temp\ccbXyGXO.s 			page 61


1134:Drivers/STM32F4xx_HAL_Driver/Src/stm32f4xx_hal_rtc_ex.c ****   {
 1965              		.loc 1 1134 6 view .LVU735
 1966 0004 5B05     		lsls	r3, r3, #21
1132:Drivers/STM32F4xx_HAL_Driver/Src/stm32f4xx_hal_rtc_ex.c ****   /* Get the pending status of the Wakeup timer Interrupt */
 1967              		.loc 1 1132 1 view .LVU736
 1968 0006 10B5     		push	{r4, lr}
 1969              		.cfi_def_cfa_offset 8
 1970              		.cfi_offset 4, -8
 1971              		.cfi_offset 14, -4
1132:Drivers/STM32F4xx_HAL_Driver/Src/stm32f4xx_hal_rtc_ex.c ****   /* Get the pending status of the Wakeup timer Interrupt */
 1972              		.loc 1 1132 1 view .LVU737
 1973 0008 0446     		mov	r4, r0
1134:Drivers/STM32F4xx_HAL_Driver/Src/stm32f4xx_hal_rtc_ex.c ****   {
 1974              		.loc 1 1134 6 view .LVU738
 1975 000a 06D4     		bmi	.L156
 1976              	.LVL131:
 1977              	.L151:
1148:Drivers/STM32F4xx_HAL_Driver/Src/stm32f4xx_hal_rtc_ex.c **** 
 1978              		.loc 1 1148 3 is_stmt 1 view .LVU739
 1979 000c 074A     		ldr	r2, .L157
 1980 000e 4FF48001 		mov	r1, #4194304
1151:Drivers/STM32F4xx_HAL_Driver/Src/stm32f4xx_hal_rtc_ex.c **** }
 1981              		.loc 1 1151 15 is_stmt 0 view .LVU740
 1982 0012 0123     		movs	r3, #1
1148:Drivers/STM32F4xx_HAL_Driver/Src/stm32f4xx_hal_rtc_ex.c **** 
 1983              		.loc 1 1148 3 view .LVU741
 1984 0014 5161     		str	r1, [r2, #20]
1151:Drivers/STM32F4xx_HAL_Driver/Src/stm32f4xx_hal_rtc_ex.c **** }
 1985              		.loc 1 1151 3 is_stmt 1 view .LVU742
1151:Drivers/STM32F4xx_HAL_Driver/Src/stm32f4xx_hal_rtc_ex.c **** }
 1986              		.loc 1 1151 15 is_stmt 0 view .LVU743
 1987 0016 6377     		strb	r3, [r4, #29]
1152:Drivers/STM32F4xx_HAL_Driver/Src/stm32f4xx_hal_rtc_ex.c **** 
 1988              		.loc 1 1152 1 view .LVU744
 1989 0018 10BD     		pop	{r4, pc}
 1990              	.LVL132:
 1991              	.L156:
1140:Drivers/STM32F4xx_HAL_Driver/Src/stm32f4xx_hal_rtc_ex.c **** #endif /* USE_HAL_RTC_REGISTER_CALLBACKS */
 1992              		.loc 1 1140 5 is_stmt 1 view .LVU745
 1993 001a FFF7FEFF 		bl	HAL_RTCEx_WakeUpTimerEventCallback
 1994              	.LVL133:
1144:Drivers/STM32F4xx_HAL_Driver/Src/stm32f4xx_hal_rtc_ex.c ****   }
 1995              		.loc 1 1144 5 view .LVU746
 1996 001e 2268     		ldr	r2, [r4]
 1997 0020 D368     		ldr	r3, [r2, #12]
 1998 0022 DBB2     		uxtb	r3, r3
 1999 0024 63F49063 		orn	r3, r3, #1152
 2000 0028 D360     		str	r3, [r2, #12]
 2001 002a EFE7     		b	.L151
 2002              	.L158:
 2003              		.align	2
 2004              	.L157:
 2005 002c 003C0140 		.word	1073822720
 2006              		.cfi_endproc
 2007              	.LFE232:
 2009              		.section	.text.HAL_RTCEx_PollForWakeUpTimerEvent,"ax",%progbits
 2010              		.align	1
ARM GAS  C:\Users\Konrad\AppData\Local\Temp\ccbXyGXO.s 			page 62


 2011              		.p2align 2,,3
 2012              		.global	HAL_RTCEx_PollForWakeUpTimerEvent
 2013              		.syntax unified
 2014              		.thumb
 2015              		.thumb_func
 2017              	HAL_RTCEx_PollForWakeUpTimerEvent:
 2018              	.LVL134:
 2019              	.LFB234:
1161:Drivers/STM32F4xx_HAL_Driver/Src/stm32f4xx_hal_rtc_ex.c **** {
1162:Drivers/STM32F4xx_HAL_Driver/Src/stm32f4xx_hal_rtc_ex.c ****   /* Prevent unused argument(s) compilation warning */
1163:Drivers/STM32F4xx_HAL_Driver/Src/stm32f4xx_hal_rtc_ex.c ****   UNUSED(hrtc);
1164:Drivers/STM32F4xx_HAL_Driver/Src/stm32f4xx_hal_rtc_ex.c **** 
1165:Drivers/STM32F4xx_HAL_Driver/Src/stm32f4xx_hal_rtc_ex.c ****   /* NOTE: This function should not be modified, when the callback is needed,
1166:Drivers/STM32F4xx_HAL_Driver/Src/stm32f4xx_hal_rtc_ex.c ****            the HAL_RTCEx_WakeUpTimerEventCallback could be implemented in the user file
1167:Drivers/STM32F4xx_HAL_Driver/Src/stm32f4xx_hal_rtc_ex.c ****    */
1168:Drivers/STM32F4xx_HAL_Driver/Src/stm32f4xx_hal_rtc_ex.c **** }
1169:Drivers/STM32F4xx_HAL_Driver/Src/stm32f4xx_hal_rtc_ex.c **** 
1170:Drivers/STM32F4xx_HAL_Driver/Src/stm32f4xx_hal_rtc_ex.c **** /**
1171:Drivers/STM32F4xx_HAL_Driver/Src/stm32f4xx_hal_rtc_ex.c ****   * @brief  Handles Wakeup Timer Polling.
1172:Drivers/STM32F4xx_HAL_Driver/Src/stm32f4xx_hal_rtc_ex.c ****   * @param  hrtc pointer to a RTC_HandleTypeDef structure that contains
1173:Drivers/STM32F4xx_HAL_Driver/Src/stm32f4xx_hal_rtc_ex.c ****   *                the configuration information for RTC.
1174:Drivers/STM32F4xx_HAL_Driver/Src/stm32f4xx_hal_rtc_ex.c ****   * @param  Timeout Timeout duration
1175:Drivers/STM32F4xx_HAL_Driver/Src/stm32f4xx_hal_rtc_ex.c ****   * @retval HAL status
1176:Drivers/STM32F4xx_HAL_Driver/Src/stm32f4xx_hal_rtc_ex.c ****   */
1177:Drivers/STM32F4xx_HAL_Driver/Src/stm32f4xx_hal_rtc_ex.c **** HAL_StatusTypeDef HAL_RTCEx_PollForWakeUpTimerEvent(RTC_HandleTypeDef *hrtc, uint32_t Timeout)
1178:Drivers/STM32F4xx_HAL_Driver/Src/stm32f4xx_hal_rtc_ex.c **** {
 2020              		.loc 1 1178 1 view -0
 2021              		.cfi_startproc
 2022              		@ args = 0, pretend = 0, frame = 0
 2023              		@ frame_needed = 0, uses_anonymous_args = 0
1179:Drivers/STM32F4xx_HAL_Driver/Src/stm32f4xx_hal_rtc_ex.c ****   uint32_t tickstart = 0U;
 2024              		.loc 1 1179 3 view .LVU748
1180:Drivers/STM32F4xx_HAL_Driver/Src/stm32f4xx_hal_rtc_ex.c **** 
1181:Drivers/STM32F4xx_HAL_Driver/Src/stm32f4xx_hal_rtc_ex.c ****   /* Get tick */
1182:Drivers/STM32F4xx_HAL_Driver/Src/stm32f4xx_hal_rtc_ex.c ****   tickstart = HAL_GetTick();
 2025              		.loc 1 1182 3 view .LVU749
1178:Drivers/STM32F4xx_HAL_Driver/Src/stm32f4xx_hal_rtc_ex.c ****   uint32_t tickstart = 0U;
 2026              		.loc 1 1178 1 is_stmt 0 view .LVU750
 2027 0000 70B5     		push	{r4, r5, r6, lr}
 2028              		.cfi_def_cfa_offset 16
 2029              		.cfi_offset 4, -16
 2030              		.cfi_offset 5, -12
 2031              		.cfi_offset 6, -8
 2032              		.cfi_offset 14, -4
1178:Drivers/STM32F4xx_HAL_Driver/Src/stm32f4xx_hal_rtc_ex.c ****   uint32_t tickstart = 0U;
 2033              		.loc 1 1178 1 view .LVU751
 2034 0002 0446     		mov	r4, r0
 2035 0004 0D46     		mov	r5, r1
 2036              		.loc 1 1182 15 view .LVU752
 2037 0006 FFF7FEFF 		bl	HAL_GetTick
 2038              	.LVL135:
1183:Drivers/STM32F4xx_HAL_Driver/Src/stm32f4xx_hal_rtc_ex.c **** 
1184:Drivers/STM32F4xx_HAL_Driver/Src/stm32f4xx_hal_rtc_ex.c ****   while (__HAL_RTC_WAKEUPTIMER_GET_FLAG(hrtc, RTC_FLAG_WUTF) == 0U)
 2039              		.loc 1 1184 3 is_stmt 1 view .LVU753
 2040 000a 6E1C     		adds	r6, r5, #1
 2041              		.loc 1 1184 10 is_stmt 0 view .LVU754
 2042 000c 2268     		ldr	r2, [r4]
ARM GAS  C:\Users\Konrad\AppData\Local\Temp\ccbXyGXO.s 			page 63


 2043 000e 0BD1     		bne	.L160
 2044              	.LVL136:
 2045              	.L161:
 2046              		.loc 1 1184 62 is_stmt 1 view .LVU755
 2047              		.loc 1 1184 10 is_stmt 0 view .LVU756
 2048 0010 D368     		ldr	r3, [r2, #12]
 2049              		.loc 1 1184 62 view .LVU757
 2050 0012 5805     		lsls	r0, r3, #21
 2051 0014 FCD5     		bpl	.L161
 2052              	.L162:
1185:Drivers/STM32F4xx_HAL_Driver/Src/stm32f4xx_hal_rtc_ex.c ****   {
1186:Drivers/STM32F4xx_HAL_Driver/Src/stm32f4xx_hal_rtc_ex.c ****     if (Timeout != HAL_MAX_DELAY)
1187:Drivers/STM32F4xx_HAL_Driver/Src/stm32f4xx_hal_rtc_ex.c ****     {
1188:Drivers/STM32F4xx_HAL_Driver/Src/stm32f4xx_hal_rtc_ex.c ****       if ((Timeout == 0U) || ((HAL_GetTick() - tickstart) > Timeout))
1189:Drivers/STM32F4xx_HAL_Driver/Src/stm32f4xx_hal_rtc_ex.c ****       {
1190:Drivers/STM32F4xx_HAL_Driver/Src/stm32f4xx_hal_rtc_ex.c ****         hrtc->State = HAL_RTC_STATE_TIMEOUT;
1191:Drivers/STM32F4xx_HAL_Driver/Src/stm32f4xx_hal_rtc_ex.c ****         return HAL_TIMEOUT;
1192:Drivers/STM32F4xx_HAL_Driver/Src/stm32f4xx_hal_rtc_ex.c ****       }
1193:Drivers/STM32F4xx_HAL_Driver/Src/stm32f4xx_hal_rtc_ex.c ****     }
1194:Drivers/STM32F4xx_HAL_Driver/Src/stm32f4xx_hal_rtc_ex.c ****   }
1195:Drivers/STM32F4xx_HAL_Driver/Src/stm32f4xx_hal_rtc_ex.c **** 
1196:Drivers/STM32F4xx_HAL_Driver/Src/stm32f4xx_hal_rtc_ex.c ****   /* Clear the Wakeup timer Flag */
1197:Drivers/STM32F4xx_HAL_Driver/Src/stm32f4xx_hal_rtc_ex.c ****   __HAL_RTC_WAKEUPTIMER_CLEAR_FLAG(hrtc, RTC_FLAG_WUTF);
 2053              		.loc 1 1197 3 is_stmt 1 view .LVU758
 2054 0016 D368     		ldr	r3, [r2, #12]
 2055 0018 DBB2     		uxtb	r3, r3
1198:Drivers/STM32F4xx_HAL_Driver/Src/stm32f4xx_hal_rtc_ex.c **** 
1199:Drivers/STM32F4xx_HAL_Driver/Src/stm32f4xx_hal_rtc_ex.c ****   /* Change RTC state */
1200:Drivers/STM32F4xx_HAL_Driver/Src/stm32f4xx_hal_rtc_ex.c ****   hrtc->State = HAL_RTC_STATE_READY;
 2056              		.loc 1 1200 15 is_stmt 0 view .LVU759
 2057 001a 0121     		movs	r1, #1
1197:Drivers/STM32F4xx_HAL_Driver/Src/stm32f4xx_hal_rtc_ex.c **** 
 2058              		.loc 1 1197 3 view .LVU760
 2059 001c 63F49063 		orn	r3, r3, #1152
 2060 0020 D360     		str	r3, [r2, #12]
 2061              		.loc 1 1200 3 is_stmt 1 view .LVU761
 2062              		.loc 1 1200 15 is_stmt 0 view .LVU762
 2063 0022 6177     		strb	r1, [r4, #29]
1201:Drivers/STM32F4xx_HAL_Driver/Src/stm32f4xx_hal_rtc_ex.c **** 
1202:Drivers/STM32F4xx_HAL_Driver/Src/stm32f4xx_hal_rtc_ex.c ****   return HAL_OK;
 2064              		.loc 1 1202 3 is_stmt 1 view .LVU763
 2065              		.loc 1 1202 10 is_stmt 0 view .LVU764
 2066 0024 0020     		movs	r0, #0
1203:Drivers/STM32F4xx_HAL_Driver/Src/stm32f4xx_hal_rtc_ex.c **** }
 2067              		.loc 1 1203 1 view .LVU765
 2068 0026 70BD     		pop	{r4, r5, r6, pc}
 2069              	.LVL137:
 2070              	.L160:
1184:Drivers/STM32F4xx_HAL_Driver/Src/stm32f4xx_hal_rtc_ex.c ****   {
 2071              		.loc 1 1184 62 is_stmt 1 view .LVU766
1184:Drivers/STM32F4xx_HAL_Driver/Src/stm32f4xx_hal_rtc_ex.c ****   {
 2072              		.loc 1 1184 10 is_stmt 0 view .LVU767
 2073 0028 D368     		ldr	r3, [r2, #12]
1184:Drivers/STM32F4xx_HAL_Driver/Src/stm32f4xx_hal_rtc_ex.c ****   {
 2074              		.loc 1 1184 62 view .LVU768
 2075 002a 5B05     		lsls	r3, r3, #21
 2076 002c F3D4     		bmi	.L162
ARM GAS  C:\Users\Konrad\AppData\Local\Temp\ccbXyGXO.s 			page 64


1186:Drivers/STM32F4xx_HAL_Driver/Src/stm32f4xx_hal_rtc_ex.c ****     {
 2077              		.loc 1 1186 5 is_stmt 1 view .LVU769
1188:Drivers/STM32F4xx_HAL_Driver/Src/stm32f4xx_hal_rtc_ex.c ****       {
 2078              		.loc 1 1188 7 view .LVU770
 2079 002e 0646     		mov	r6, r0
1188:Drivers/STM32F4xx_HAL_Driver/Src/stm32f4xx_hal_rtc_ex.c ****       {
 2080              		.loc 1 1188 10 is_stmt 0 view .LVU771
 2081 0030 4DB1     		cbz	r5, .L165
 2082              	.LVL138:
 2083              	.L163:
1188:Drivers/STM32F4xx_HAL_Driver/Src/stm32f4xx_hal_rtc_ex.c ****       {
 2084              		.loc 1 1188 32 discriminator 1 view .LVU772
 2085 0032 FFF7FEFF 		bl	HAL_GetTick
 2086              	.LVL139:
1188:Drivers/STM32F4xx_HAL_Driver/Src/stm32f4xx_hal_rtc_ex.c ****       {
 2087              		.loc 1 1188 46 discriminator 1 view .LVU773
 2088 0036 831B     		subs	r3, r0, r6
1188:Drivers/STM32F4xx_HAL_Driver/Src/stm32f4xx_hal_rtc_ex.c ****       {
 2089              		.loc 1 1188 27 discriminator 1 view .LVU774
 2090 0038 AB42     		cmp	r3, r5
 2091 003a 04D8     		bhi	.L165
1184:Drivers/STM32F4xx_HAL_Driver/Src/stm32f4xx_hal_rtc_ex.c ****   {
 2092              		.loc 1 1184 10 view .LVU775
 2093 003c 2268     		ldr	r2, [r4]
1184:Drivers/STM32F4xx_HAL_Driver/Src/stm32f4xx_hal_rtc_ex.c ****   {
 2094              		.loc 1 1184 62 is_stmt 1 view .LVU776
1184:Drivers/STM32F4xx_HAL_Driver/Src/stm32f4xx_hal_rtc_ex.c ****   {
 2095              		.loc 1 1184 10 is_stmt 0 view .LVU777
 2096 003e D368     		ldr	r3, [r2, #12]
1184:Drivers/STM32F4xx_HAL_Driver/Src/stm32f4xx_hal_rtc_ex.c ****   {
 2097              		.loc 1 1184 62 view .LVU778
 2098 0040 5905     		lsls	r1, r3, #21
 2099 0042 F6D5     		bpl	.L163
 2100 0044 E7E7     		b	.L162
 2101              	.L165:
1190:Drivers/STM32F4xx_HAL_Driver/Src/stm32f4xx_hal_rtc_ex.c ****         return HAL_TIMEOUT;
 2102              		.loc 1 1190 9 is_stmt 1 view .LVU779
1190:Drivers/STM32F4xx_HAL_Driver/Src/stm32f4xx_hal_rtc_ex.c ****         return HAL_TIMEOUT;
 2103              		.loc 1 1190 21 is_stmt 0 view .LVU780
 2104 0046 0320     		movs	r0, #3
 2105 0048 6077     		strb	r0, [r4, #29]
1191:Drivers/STM32F4xx_HAL_Driver/Src/stm32f4xx_hal_rtc_ex.c ****       }
 2106              		.loc 1 1191 9 is_stmt 1 view .LVU781
 2107              		.loc 1 1203 1 is_stmt 0 view .LVU782
 2108 004a 70BD     		pop	{r4, r5, r6, pc}
 2109              		.loc 1 1203 1 view .LVU783
 2110              		.cfi_endproc
 2111              	.LFE234:
 2113              		.section	.text.HAL_RTCEx_BKUPWrite,"ax",%progbits
 2114              		.align	1
 2115              		.p2align 2,,3
 2116              		.global	HAL_RTCEx_BKUPWrite
 2117              		.syntax unified
 2118              		.thumb
 2119              		.thumb_func
 2121              	HAL_RTCEx_BKUPWrite:
 2122              	.LVL140:
ARM GAS  C:\Users\Konrad\AppData\Local\Temp\ccbXyGXO.s 			page 65


 2123              	.LFB235:
1204:Drivers/STM32F4xx_HAL_Driver/Src/stm32f4xx_hal_rtc_ex.c **** 
1205:Drivers/STM32F4xx_HAL_Driver/Src/stm32f4xx_hal_rtc_ex.c **** /**
1206:Drivers/STM32F4xx_HAL_Driver/Src/stm32f4xx_hal_rtc_ex.c ****   * @}
1207:Drivers/STM32F4xx_HAL_Driver/Src/stm32f4xx_hal_rtc_ex.c ****   */
1208:Drivers/STM32F4xx_HAL_Driver/Src/stm32f4xx_hal_rtc_ex.c **** 
1209:Drivers/STM32F4xx_HAL_Driver/Src/stm32f4xx_hal_rtc_ex.c **** /** @defgroup RTCEx_Exported_Functions_Group3 Extended Peripheral Control functions
1210:Drivers/STM32F4xx_HAL_Driver/Src/stm32f4xx_hal_rtc_ex.c ****   * @brief    Extended Peripheral Control functions
1211:Drivers/STM32F4xx_HAL_Driver/Src/stm32f4xx_hal_rtc_ex.c ****   *
1212:Drivers/STM32F4xx_HAL_Driver/Src/stm32f4xx_hal_rtc_ex.c **** @verbatim
1213:Drivers/STM32F4xx_HAL_Driver/Src/stm32f4xx_hal_rtc_ex.c ****  ===============================================================================
1214:Drivers/STM32F4xx_HAL_Driver/Src/stm32f4xx_hal_rtc_ex.c ****               ##### Extended Peripheral Control functions #####
1215:Drivers/STM32F4xx_HAL_Driver/Src/stm32f4xx_hal_rtc_ex.c ****  ===============================================================================
1216:Drivers/STM32F4xx_HAL_Driver/Src/stm32f4xx_hal_rtc_ex.c ****     [..]
1217:Drivers/STM32F4xx_HAL_Driver/Src/stm32f4xx_hal_rtc_ex.c ****     This subsection provides functions allowing to
1218:Drivers/STM32F4xx_HAL_Driver/Src/stm32f4xx_hal_rtc_ex.c ****       (+) Write a data in a specified RTC Backup data register
1219:Drivers/STM32F4xx_HAL_Driver/Src/stm32f4xx_hal_rtc_ex.c ****       (+) Read a data in a specified RTC Backup data register
1220:Drivers/STM32F4xx_HAL_Driver/Src/stm32f4xx_hal_rtc_ex.c ****       (+) Set the Coarse calibration parameters.
1221:Drivers/STM32F4xx_HAL_Driver/Src/stm32f4xx_hal_rtc_ex.c ****       (+) Deactivate the Coarse calibration parameters
1222:Drivers/STM32F4xx_HAL_Driver/Src/stm32f4xx_hal_rtc_ex.c ****       (+) Set the Smooth calibration parameters.
1223:Drivers/STM32F4xx_HAL_Driver/Src/stm32f4xx_hal_rtc_ex.c ****       (+) Configure the Synchronization Shift Control Settings.
1224:Drivers/STM32F4xx_HAL_Driver/Src/stm32f4xx_hal_rtc_ex.c ****       (+) Configure the Calibration Pinout (RTC_CALIB) Selection (1Hz or 512Hz).
1225:Drivers/STM32F4xx_HAL_Driver/Src/stm32f4xx_hal_rtc_ex.c ****       (+) Deactivate the Calibration Pinout (RTC_CALIB) Selection (1Hz or 512Hz).
1226:Drivers/STM32F4xx_HAL_Driver/Src/stm32f4xx_hal_rtc_ex.c ****       (+) Enable the RTC reference clock detection.
1227:Drivers/STM32F4xx_HAL_Driver/Src/stm32f4xx_hal_rtc_ex.c ****       (+) Disable the RTC reference clock detection.
1228:Drivers/STM32F4xx_HAL_Driver/Src/stm32f4xx_hal_rtc_ex.c ****       (+) Enable the Bypass Shadow feature.
1229:Drivers/STM32F4xx_HAL_Driver/Src/stm32f4xx_hal_rtc_ex.c ****       (+) Disable the Bypass Shadow feature.
1230:Drivers/STM32F4xx_HAL_Driver/Src/stm32f4xx_hal_rtc_ex.c **** 
1231:Drivers/STM32F4xx_HAL_Driver/Src/stm32f4xx_hal_rtc_ex.c **** @endverbatim
1232:Drivers/STM32F4xx_HAL_Driver/Src/stm32f4xx_hal_rtc_ex.c ****   * @{
1233:Drivers/STM32F4xx_HAL_Driver/Src/stm32f4xx_hal_rtc_ex.c ****   */
1234:Drivers/STM32F4xx_HAL_Driver/Src/stm32f4xx_hal_rtc_ex.c **** 
1235:Drivers/STM32F4xx_HAL_Driver/Src/stm32f4xx_hal_rtc_ex.c **** /**
1236:Drivers/STM32F4xx_HAL_Driver/Src/stm32f4xx_hal_rtc_ex.c ****   * @brief  Writes a data in a specified RTC Backup data register.
1237:Drivers/STM32F4xx_HAL_Driver/Src/stm32f4xx_hal_rtc_ex.c ****   * @param  hrtc pointer to a RTC_HandleTypeDef structure that contains
1238:Drivers/STM32F4xx_HAL_Driver/Src/stm32f4xx_hal_rtc_ex.c ****   *                the configuration information for RTC.
1239:Drivers/STM32F4xx_HAL_Driver/Src/stm32f4xx_hal_rtc_ex.c ****   * @param  BackupRegister RTC Backup data Register number.
1240:Drivers/STM32F4xx_HAL_Driver/Src/stm32f4xx_hal_rtc_ex.c ****   *          This parameter can be: RTC_BKP_DRx (where x can be from 0 to 19)
1241:Drivers/STM32F4xx_HAL_Driver/Src/stm32f4xx_hal_rtc_ex.c ****   *                                 to specify the register.
1242:Drivers/STM32F4xx_HAL_Driver/Src/stm32f4xx_hal_rtc_ex.c ****   * @param  Data Data to be written in the specified RTC Backup data register.
1243:Drivers/STM32F4xx_HAL_Driver/Src/stm32f4xx_hal_rtc_ex.c ****   * @retval None
1244:Drivers/STM32F4xx_HAL_Driver/Src/stm32f4xx_hal_rtc_ex.c ****   */
1245:Drivers/STM32F4xx_HAL_Driver/Src/stm32f4xx_hal_rtc_ex.c **** void HAL_RTCEx_BKUPWrite(RTC_HandleTypeDef *hrtc, uint32_t BackupRegister, uint32_t Data)
1246:Drivers/STM32F4xx_HAL_Driver/Src/stm32f4xx_hal_rtc_ex.c **** {
 2124              		.loc 1 1246 1 is_stmt 1 view -0
 2125              		.cfi_startproc
 2126              		@ args = 0, pretend = 0, frame = 0
 2127              		@ frame_needed = 0, uses_anonymous_args = 0
 2128              		@ link register save eliminated.
1247:Drivers/STM32F4xx_HAL_Driver/Src/stm32f4xx_hal_rtc_ex.c ****   uint32_t tmp = 0U;
 2129              		.loc 1 1247 3 view .LVU785
1248:Drivers/STM32F4xx_HAL_Driver/Src/stm32f4xx_hal_rtc_ex.c **** 
1249:Drivers/STM32F4xx_HAL_Driver/Src/stm32f4xx_hal_rtc_ex.c ****   /* Check the parameters */
1250:Drivers/STM32F4xx_HAL_Driver/Src/stm32f4xx_hal_rtc_ex.c ****   assert_param(IS_RTC_BKP(BackupRegister));
 2130              		.loc 1 1250 3 view .LVU786
1251:Drivers/STM32F4xx_HAL_Driver/Src/stm32f4xx_hal_rtc_ex.c **** 
1252:Drivers/STM32F4xx_HAL_Driver/Src/stm32f4xx_hal_rtc_ex.c ****   tmp = (uint32_t) & (hrtc->Instance->BKP0R);
ARM GAS  C:\Users\Konrad\AppData\Local\Temp\ccbXyGXO.s 			page 66


 2131              		.loc 1 1252 3 view .LVU787
 2132              		.loc 1 1252 20 is_stmt 0 view .LVU788
 2133 0000 0368     		ldr	r3, [r0]
 2134 0002 5033     		adds	r3, r3, #80
 2135              	.LVL141:
1253:Drivers/STM32F4xx_HAL_Driver/Src/stm32f4xx_hal_rtc_ex.c ****   tmp += (BackupRegister * 4U);
 2136              		.loc 1 1253 3 is_stmt 1 view .LVU789
1254:Drivers/STM32F4xx_HAL_Driver/Src/stm32f4xx_hal_rtc_ex.c **** 
1255:Drivers/STM32F4xx_HAL_Driver/Src/stm32f4xx_hal_rtc_ex.c ****   /* Write the specified register */
1256:Drivers/STM32F4xx_HAL_Driver/Src/stm32f4xx_hal_rtc_ex.c ****   *(__IO uint32_t *)tmp = (uint32_t)Data;
 2137              		.loc 1 1256 3 view .LVU790
 2138              		.loc 1 1256 25 is_stmt 0 view .LVU791
 2139 0004 43F82120 		str	r2, [r3, r1, lsl #2]
1257:Drivers/STM32F4xx_HAL_Driver/Src/stm32f4xx_hal_rtc_ex.c **** }
 2140              		.loc 1 1257 1 view .LVU792
 2141 0008 7047     		bx	lr
 2142              		.cfi_endproc
 2143              	.LFE235:
 2145 000a 00BF     		.section	.text.HAL_RTCEx_BKUPRead,"ax",%progbits
 2146              		.align	1
 2147              		.p2align 2,,3
 2148              		.global	HAL_RTCEx_BKUPRead
 2149              		.syntax unified
 2150              		.thumb
 2151              		.thumb_func
 2153              	HAL_RTCEx_BKUPRead:
 2154              	.LVL142:
 2155              	.LFB236:
1258:Drivers/STM32F4xx_HAL_Driver/Src/stm32f4xx_hal_rtc_ex.c **** 
1259:Drivers/STM32F4xx_HAL_Driver/Src/stm32f4xx_hal_rtc_ex.c **** /**
1260:Drivers/STM32F4xx_HAL_Driver/Src/stm32f4xx_hal_rtc_ex.c ****   * @brief  Reads data from the specified RTC Backup data Register.
1261:Drivers/STM32F4xx_HAL_Driver/Src/stm32f4xx_hal_rtc_ex.c ****   * @param  hrtc pointer to a RTC_HandleTypeDef structure that contains
1262:Drivers/STM32F4xx_HAL_Driver/Src/stm32f4xx_hal_rtc_ex.c ****   *                the configuration information for RTC.
1263:Drivers/STM32F4xx_HAL_Driver/Src/stm32f4xx_hal_rtc_ex.c ****   * @param  BackupRegister RTC Backup data Register number.
1264:Drivers/STM32F4xx_HAL_Driver/Src/stm32f4xx_hal_rtc_ex.c ****   *          This parameter can be: RTC_BKP_DRx (where x can be from 0 to 19)
1265:Drivers/STM32F4xx_HAL_Driver/Src/stm32f4xx_hal_rtc_ex.c ****   *                                 to specify the register.
1266:Drivers/STM32F4xx_HAL_Driver/Src/stm32f4xx_hal_rtc_ex.c ****   * @retval Read value
1267:Drivers/STM32F4xx_HAL_Driver/Src/stm32f4xx_hal_rtc_ex.c ****   */
1268:Drivers/STM32F4xx_HAL_Driver/Src/stm32f4xx_hal_rtc_ex.c **** uint32_t HAL_RTCEx_BKUPRead(RTC_HandleTypeDef *hrtc, uint32_t BackupRegister)
1269:Drivers/STM32F4xx_HAL_Driver/Src/stm32f4xx_hal_rtc_ex.c **** {
 2156              		.loc 1 1269 1 is_stmt 1 view -0
 2157              		.cfi_startproc
 2158              		@ args = 0, pretend = 0, frame = 0
 2159              		@ frame_needed = 0, uses_anonymous_args = 0
 2160              		@ link register save eliminated.
1270:Drivers/STM32F4xx_HAL_Driver/Src/stm32f4xx_hal_rtc_ex.c ****   uint32_t tmp = 0U;
 2161              		.loc 1 1270 3 view .LVU794
1271:Drivers/STM32F4xx_HAL_Driver/Src/stm32f4xx_hal_rtc_ex.c **** 
1272:Drivers/STM32F4xx_HAL_Driver/Src/stm32f4xx_hal_rtc_ex.c ****   /* Check the parameters */
1273:Drivers/STM32F4xx_HAL_Driver/Src/stm32f4xx_hal_rtc_ex.c ****   assert_param(IS_RTC_BKP(BackupRegister));
 2162              		.loc 1 1273 3 view .LVU795
1274:Drivers/STM32F4xx_HAL_Driver/Src/stm32f4xx_hal_rtc_ex.c **** 
1275:Drivers/STM32F4xx_HAL_Driver/Src/stm32f4xx_hal_rtc_ex.c ****   tmp = (uint32_t) & (hrtc->Instance->BKP0R);
 2163              		.loc 1 1275 3 view .LVU796
 2164              		.loc 1 1275 20 is_stmt 0 view .LVU797
 2165 0000 0368     		ldr	r3, [r0]
 2166 0002 5033     		adds	r3, r3, #80
ARM GAS  C:\Users\Konrad\AppData\Local\Temp\ccbXyGXO.s 			page 67


 2167              	.LVL143:
1276:Drivers/STM32F4xx_HAL_Driver/Src/stm32f4xx_hal_rtc_ex.c ****   tmp += (BackupRegister * 4U);
 2168              		.loc 1 1276 3 is_stmt 1 view .LVU798
1277:Drivers/STM32F4xx_HAL_Driver/Src/stm32f4xx_hal_rtc_ex.c **** 
1278:Drivers/STM32F4xx_HAL_Driver/Src/stm32f4xx_hal_rtc_ex.c ****   /* Read the specified register */
1279:Drivers/STM32F4xx_HAL_Driver/Src/stm32f4xx_hal_rtc_ex.c ****   return (*(__IO uint32_t *)tmp);
 2169              		.loc 1 1279 3 view .LVU799
 2170              		.loc 1 1279 11 is_stmt 0 view .LVU800
 2171 0004 53F82100 		ldr	r0, [r3, r1, lsl #2]
 2172              	.LVL144:
1280:Drivers/STM32F4xx_HAL_Driver/Src/stm32f4xx_hal_rtc_ex.c **** }
 2173              		.loc 1 1280 1 view .LVU801
 2174 0008 7047     		bx	lr
 2175              		.cfi_endproc
 2176              	.LFE236:
 2178 000a 00BF     		.section	.text.HAL_RTCEx_SetCoarseCalib,"ax",%progbits
 2179              		.align	1
 2180              		.p2align 2,,3
 2181              		.global	HAL_RTCEx_SetCoarseCalib
 2182              		.syntax unified
 2183              		.thumb
 2184              		.thumb_func
 2186              	HAL_RTCEx_SetCoarseCalib:
 2187              	.LVL145:
 2188              	.LFB237:
1281:Drivers/STM32F4xx_HAL_Driver/Src/stm32f4xx_hal_rtc_ex.c **** 
1282:Drivers/STM32F4xx_HAL_Driver/Src/stm32f4xx_hal_rtc_ex.c **** /**
1283:Drivers/STM32F4xx_HAL_Driver/Src/stm32f4xx_hal_rtc_ex.c ****   * @brief  Sets the Coarse calibration parameters.
1284:Drivers/STM32F4xx_HAL_Driver/Src/stm32f4xx_hal_rtc_ex.c ****   * @param  hrtc pointer to a RTC_HandleTypeDef structure that contains
1285:Drivers/STM32F4xx_HAL_Driver/Src/stm32f4xx_hal_rtc_ex.c ****   *                the configuration information for RTC.
1286:Drivers/STM32F4xx_HAL_Driver/Src/stm32f4xx_hal_rtc_ex.c ****   * @param  CalibSign Specifies the sign of the coarse calibration value.
1287:Drivers/STM32F4xx_HAL_Driver/Src/stm32f4xx_hal_rtc_ex.c ****   *          This parameter can be  one of the following values:
1288:Drivers/STM32F4xx_HAL_Driver/Src/stm32f4xx_hal_rtc_ex.c ****   *             @arg RTC_CALIBSIGN_POSITIVE: The value sign is positive
1289:Drivers/STM32F4xx_HAL_Driver/Src/stm32f4xx_hal_rtc_ex.c ****   *             @arg RTC_CALIBSIGN_NEGATIVE: The value sign is negative
1290:Drivers/STM32F4xx_HAL_Driver/Src/stm32f4xx_hal_rtc_ex.c ****   * @param  Value value of coarse calibration expressed in ppm (coded on 5 bits).
1291:Drivers/STM32F4xx_HAL_Driver/Src/stm32f4xx_hal_rtc_ex.c ****   *
1292:Drivers/STM32F4xx_HAL_Driver/Src/stm32f4xx_hal_rtc_ex.c ****   * @note   This Calibration value should be between 0 and 63 when using negative
1293:Drivers/STM32F4xx_HAL_Driver/Src/stm32f4xx_hal_rtc_ex.c ****   *         sign with a 2-ppm step.
1294:Drivers/STM32F4xx_HAL_Driver/Src/stm32f4xx_hal_rtc_ex.c ****   *
1295:Drivers/STM32F4xx_HAL_Driver/Src/stm32f4xx_hal_rtc_ex.c ****   * @note   This Calibration value should be between 0 and 126 when using positive
1296:Drivers/STM32F4xx_HAL_Driver/Src/stm32f4xx_hal_rtc_ex.c ****   *         sign with a 4-ppm step.
1297:Drivers/STM32F4xx_HAL_Driver/Src/stm32f4xx_hal_rtc_ex.c ****   * @retval HAL status
1298:Drivers/STM32F4xx_HAL_Driver/Src/stm32f4xx_hal_rtc_ex.c ****   */
1299:Drivers/STM32F4xx_HAL_Driver/Src/stm32f4xx_hal_rtc_ex.c **** HAL_StatusTypeDef HAL_RTCEx_SetCoarseCalib(RTC_HandleTypeDef *hrtc, uint32_t CalibSign, uint32_t Va
1300:Drivers/STM32F4xx_HAL_Driver/Src/stm32f4xx_hal_rtc_ex.c **** {
 2189              		.loc 1 1300 1 is_stmt 1 view -0
 2190              		.cfi_startproc
 2191              		@ args = 0, pretend = 0, frame = 0
 2192              		@ frame_needed = 0, uses_anonymous_args = 0
1301:Drivers/STM32F4xx_HAL_Driver/Src/stm32f4xx_hal_rtc_ex.c ****   HAL_StatusTypeDef status;
 2193              		.loc 1 1301 3 view .LVU803
1302:Drivers/STM32F4xx_HAL_Driver/Src/stm32f4xx_hal_rtc_ex.c **** 
1303:Drivers/STM32F4xx_HAL_Driver/Src/stm32f4xx_hal_rtc_ex.c ****   /* Check the parameters */
1304:Drivers/STM32F4xx_HAL_Driver/Src/stm32f4xx_hal_rtc_ex.c ****   assert_param(IS_RTC_CALIB_SIGN(CalibSign));
 2194              		.loc 1 1304 3 view .LVU804
1305:Drivers/STM32F4xx_HAL_Driver/Src/stm32f4xx_hal_rtc_ex.c ****   assert_param(IS_RTC_CALIB_VALUE(Value));
 2195              		.loc 1 1305 3 view .LVU805
ARM GAS  C:\Users\Konrad\AppData\Local\Temp\ccbXyGXO.s 			page 68


1306:Drivers/STM32F4xx_HAL_Driver/Src/stm32f4xx_hal_rtc_ex.c **** 
1307:Drivers/STM32F4xx_HAL_Driver/Src/stm32f4xx_hal_rtc_ex.c ****   /* Process Locked */
1308:Drivers/STM32F4xx_HAL_Driver/Src/stm32f4xx_hal_rtc_ex.c ****   __HAL_LOCK(hrtc);
 2196              		.loc 1 1308 3 view .LVU806
 2197              		.loc 1 1308 3 view .LVU807
1300:Drivers/STM32F4xx_HAL_Driver/Src/stm32f4xx_hal_rtc_ex.c ****   HAL_StatusTypeDef status;
 2198              		.loc 1 1300 1 is_stmt 0 view .LVU808
 2199 0000 F8B5     		push	{r3, r4, r5, r6, r7, lr}
 2200              		.cfi_def_cfa_offset 24
 2201              		.cfi_offset 3, -24
 2202              		.cfi_offset 4, -20
 2203              		.cfi_offset 5, -16
 2204              		.cfi_offset 6, -12
 2205              		.cfi_offset 7, -8
 2206              		.cfi_offset 14, -4
 2207              		.loc 1 1308 3 view .LVU809
 2208 0002 037F     		ldrb	r3, [r0, #28]	@ zero_extendqisi2
 2209 0004 012B     		cmp	r3, #1
 2210 0006 22D0     		beq	.L180
 2211              		.loc 1 1308 3 is_stmt 1 discriminator 2 view .LVU810
1309:Drivers/STM32F4xx_HAL_Driver/Src/stm32f4xx_hal_rtc_ex.c **** 
1310:Drivers/STM32F4xx_HAL_Driver/Src/stm32f4xx_hal_rtc_ex.c ****   hrtc->State = HAL_RTC_STATE_BUSY;
1311:Drivers/STM32F4xx_HAL_Driver/Src/stm32f4xx_hal_rtc_ex.c **** 
1312:Drivers/STM32F4xx_HAL_Driver/Src/stm32f4xx_hal_rtc_ex.c ****   /* Disable the write protection for RTC registers */
1313:Drivers/STM32F4xx_HAL_Driver/Src/stm32f4xx_hal_rtc_ex.c ****   __HAL_RTC_WRITEPROTECTION_DISABLE(hrtc);
 2212              		.loc 1 1313 3 is_stmt 0 view .LVU811
 2213 0008 0368     		ldr	r3, [r0]
 2214 000a 1546     		mov	r5, r2
1310:Drivers/STM32F4xx_HAL_Driver/Src/stm32f4xx_hal_rtc_ex.c **** 
 2215              		.loc 1 1310 15 view .LVU812
 2216 000c 0222     		movs	r2, #2
 2217              	.LVL146:
1310:Drivers/STM32F4xx_HAL_Driver/Src/stm32f4xx_hal_rtc_ex.c **** 
 2218              		.loc 1 1310 15 view .LVU813
 2219 000e 4277     		strb	r2, [r0, #29]
1308:Drivers/STM32F4xx_HAL_Driver/Src/stm32f4xx_hal_rtc_ex.c **** 
 2220              		.loc 1 1308 3 discriminator 2 view .LVU814
 2221 0010 0127     		movs	r7, #1
 2222              		.loc 1 1313 3 view .LVU815
 2223 0012 CA22     		movs	r2, #202
1308:Drivers/STM32F4xx_HAL_Driver/Src/stm32f4xx_hal_rtc_ex.c **** 
 2224              		.loc 1 1308 3 discriminator 2 view .LVU816
 2225 0014 0777     		strb	r7, [r0, #28]
1308:Drivers/STM32F4xx_HAL_Driver/Src/stm32f4xx_hal_rtc_ex.c **** 
 2226              		.loc 1 1308 3 is_stmt 1 discriminator 2 view .LVU817
1310:Drivers/STM32F4xx_HAL_Driver/Src/stm32f4xx_hal_rtc_ex.c **** 
 2227              		.loc 1 1310 3 view .LVU818
 2228              		.loc 1 1313 3 view .LVU819
 2229              		.loc 1 1313 3 view .LVU820
 2230 0016 5A62     		str	r2, [r3, #36]
 2231              		.loc 1 1313 3 view .LVU821
 2232 0018 5322     		movs	r2, #83
 2233 001a 5A62     		str	r2, [r3, #36]
 2234              		.loc 1 1313 3 view .LVU822
1314:Drivers/STM32F4xx_HAL_Driver/Src/stm32f4xx_hal_rtc_ex.c **** 
1315:Drivers/STM32F4xx_HAL_Driver/Src/stm32f4xx_hal_rtc_ex.c ****   /* Enter Initialization mode */
1316:Drivers/STM32F4xx_HAL_Driver/Src/stm32f4xx_hal_rtc_ex.c ****   status = RTC_EnterInitMode(hrtc);
ARM GAS  C:\Users\Konrad\AppData\Local\Temp\ccbXyGXO.s 			page 69


 2235              		.loc 1 1316 3 view .LVU823
 2236 001c 0446     		mov	r4, r0
 2237 001e 0E46     		mov	r6, r1
 2238              		.loc 1 1316 12 is_stmt 0 view .LVU824
 2239 0020 FFF7FEFF 		bl	RTC_EnterInitMode
 2240              	.LVL147:
1317:Drivers/STM32F4xx_HAL_Driver/Src/stm32f4xx_hal_rtc_ex.c **** 
1318:Drivers/STM32F4xx_HAL_Driver/Src/stm32f4xx_hal_rtc_ex.c ****   if (status == HAL_OK)
 2241              		.loc 1 1318 3 is_stmt 1 view .LVU825
 2242              		.loc 1 1318 6 is_stmt 0 view .LVU826
 2243 0024 28B1     		cbz	r0, .L182
 2244              	.LVL148:
 2245              	.L177:
1319:Drivers/STM32F4xx_HAL_Driver/Src/stm32f4xx_hal_rtc_ex.c ****   {
1320:Drivers/STM32F4xx_HAL_Driver/Src/stm32f4xx_hal_rtc_ex.c ****     /* Enable the Coarse Calibration */
1321:Drivers/STM32F4xx_HAL_Driver/Src/stm32f4xx_hal_rtc_ex.c ****     __HAL_RTC_COARSE_CALIB_ENABLE(hrtc);
1322:Drivers/STM32F4xx_HAL_Driver/Src/stm32f4xx_hal_rtc_ex.c **** 
1323:Drivers/STM32F4xx_HAL_Driver/Src/stm32f4xx_hal_rtc_ex.c ****     /* Set the coarse calibration value */
1324:Drivers/STM32F4xx_HAL_Driver/Src/stm32f4xx_hal_rtc_ex.c ****     hrtc->Instance->CALIBR = (uint32_t)(CalibSign | Value);
1325:Drivers/STM32F4xx_HAL_Driver/Src/stm32f4xx_hal_rtc_ex.c **** 
1326:Drivers/STM32F4xx_HAL_Driver/Src/stm32f4xx_hal_rtc_ex.c ****     /* Exit Initialization mode */
1327:Drivers/STM32F4xx_HAL_Driver/Src/stm32f4xx_hal_rtc_ex.c ****     status = RTC_ExitInitMode(hrtc);
1328:Drivers/STM32F4xx_HAL_Driver/Src/stm32f4xx_hal_rtc_ex.c ****   }
1329:Drivers/STM32F4xx_HAL_Driver/Src/stm32f4xx_hal_rtc_ex.c **** 
1330:Drivers/STM32F4xx_HAL_Driver/Src/stm32f4xx_hal_rtc_ex.c ****   if (status == HAL_OK)
1331:Drivers/STM32F4xx_HAL_Driver/Src/stm32f4xx_hal_rtc_ex.c ****   {
1332:Drivers/STM32F4xx_HAL_Driver/Src/stm32f4xx_hal_rtc_ex.c ****     hrtc->State = HAL_RTC_STATE_READY;
1333:Drivers/STM32F4xx_HAL_Driver/Src/stm32f4xx_hal_rtc_ex.c ****   }
1334:Drivers/STM32F4xx_HAL_Driver/Src/stm32f4xx_hal_rtc_ex.c **** 
1335:Drivers/STM32F4xx_HAL_Driver/Src/stm32f4xx_hal_rtc_ex.c ****   /* Enable the write protection for RTC registers */
1336:Drivers/STM32F4xx_HAL_Driver/Src/stm32f4xx_hal_rtc_ex.c ****   __HAL_RTC_WRITEPROTECTION_ENABLE(hrtc);
 2246              		.loc 1 1336 3 is_stmt 1 view .LVU827
 2247              		.loc 1 1336 3 view .LVU828
 2248 0026 2268     		ldr	r2, [r4]
 2249 0028 FF21     		movs	r1, #255
1337:Drivers/STM32F4xx_HAL_Driver/Src/stm32f4xx_hal_rtc_ex.c **** 
1338:Drivers/STM32F4xx_HAL_Driver/Src/stm32f4xx_hal_rtc_ex.c ****   /* Process Unlocked */
1339:Drivers/STM32F4xx_HAL_Driver/Src/stm32f4xx_hal_rtc_ex.c ****   __HAL_UNLOCK(hrtc);
 2250              		.loc 1 1339 3 is_stmt 0 view .LVU829
 2251 002a 0023     		movs	r3, #0
1336:Drivers/STM32F4xx_HAL_Driver/Src/stm32f4xx_hal_rtc_ex.c **** 
 2252              		.loc 1 1336 3 view .LVU830
 2253 002c 5162     		str	r1, [r2, #36]
1336:Drivers/STM32F4xx_HAL_Driver/Src/stm32f4xx_hal_rtc_ex.c **** 
 2254              		.loc 1 1336 3 is_stmt 1 view .LVU831
 2255              		.loc 1 1339 3 view .LVU832
 2256              		.loc 1 1339 3 view .LVU833
 2257 002e 2377     		strb	r3, [r4, #28]
 2258              		.loc 1 1339 3 view .LVU834
1340:Drivers/STM32F4xx_HAL_Driver/Src/stm32f4xx_hal_rtc_ex.c **** 
1341:Drivers/STM32F4xx_HAL_Driver/Src/stm32f4xx_hal_rtc_ex.c ****   return status;
 2259              		.loc 1 1341 3 view .LVU835
1342:Drivers/STM32F4xx_HAL_Driver/Src/stm32f4xx_hal_rtc_ex.c **** }
 2260              		.loc 1 1342 1 is_stmt 0 view .LVU836
 2261 0030 F8BD     		pop	{r3, r4, r5, r6, r7, pc}
 2262              	.LVL149:
 2263              	.L182:
ARM GAS  C:\Users\Konrad\AppData\Local\Temp\ccbXyGXO.s 			page 70


1321:Drivers/STM32F4xx_HAL_Driver/Src/stm32f4xx_hal_rtc_ex.c **** 
 2264              		.loc 1 1321 5 is_stmt 1 view .LVU837
 2265 0032 2368     		ldr	r3, [r4]
 2266 0034 9A68     		ldr	r2, [r3, #8]
1324:Drivers/STM32F4xx_HAL_Driver/Src/stm32f4xx_hal_rtc_ex.c **** 
 2267              		.loc 1 1324 51 is_stmt 0 view .LVU838
 2268 0036 3543     		orrs	r5, r5, r6
 2269              	.LVL150:
1321:Drivers/STM32F4xx_HAL_Driver/Src/stm32f4xx_hal_rtc_ex.c **** 
 2270              		.loc 1 1321 5 view .LVU839
 2271 0038 42F08002 		orr	r2, r2, #128
 2272 003c 9A60     		str	r2, [r3, #8]
1324:Drivers/STM32F4xx_HAL_Driver/Src/stm32f4xx_hal_rtc_ex.c **** 
 2273              		.loc 1 1324 5 is_stmt 1 view .LVU840
1327:Drivers/STM32F4xx_HAL_Driver/Src/stm32f4xx_hal_rtc_ex.c ****   }
 2274              		.loc 1 1327 14 is_stmt 0 view .LVU841
 2275 003e 2046     		mov	r0, r4
 2276              	.LVL151:
1324:Drivers/STM32F4xx_HAL_Driver/Src/stm32f4xx_hal_rtc_ex.c **** 
 2277              		.loc 1 1324 28 view .LVU842
 2278 0040 9D61     		str	r5, [r3, #24]
1327:Drivers/STM32F4xx_HAL_Driver/Src/stm32f4xx_hal_rtc_ex.c ****   }
 2279              		.loc 1 1327 5 is_stmt 1 view .LVU843
1327:Drivers/STM32F4xx_HAL_Driver/Src/stm32f4xx_hal_rtc_ex.c ****   }
 2280              		.loc 1 1327 14 is_stmt 0 view .LVU844
 2281 0042 FFF7FEFF 		bl	RTC_ExitInitMode
 2282              	.LVL152:
1330:Drivers/STM32F4xx_HAL_Driver/Src/stm32f4xx_hal_rtc_ex.c ****   {
 2283              		.loc 1 1330 3 is_stmt 1 view .LVU845
1330:Drivers/STM32F4xx_HAL_Driver/Src/stm32f4xx_hal_rtc_ex.c ****   {
 2284              		.loc 1 1330 6 is_stmt 0 view .LVU846
 2285 0046 0028     		cmp	r0, #0
 2286 0048 EDD1     		bne	.L177
1332:Drivers/STM32F4xx_HAL_Driver/Src/stm32f4xx_hal_rtc_ex.c ****   }
 2287              		.loc 1 1332 5 is_stmt 1 view .LVU847
1332:Drivers/STM32F4xx_HAL_Driver/Src/stm32f4xx_hal_rtc_ex.c ****   }
 2288              		.loc 1 1332 17 is_stmt 0 view .LVU848
 2289 004a 6777     		strb	r7, [r4, #29]
 2290 004c EBE7     		b	.L177
 2291              	.LVL153:
 2292              	.L180:
1308:Drivers/STM32F4xx_HAL_Driver/Src/stm32f4xx_hal_rtc_ex.c **** 
 2293              		.loc 1 1308 3 discriminator 1 view .LVU849
 2294 004e 0220     		movs	r0, #2
 2295              	.LVL154:
 2296              		.loc 1 1342 1 view .LVU850
 2297 0050 F8BD     		pop	{r3, r4, r5, r6, r7, pc}
 2298              		.cfi_endproc
 2299              	.LFE237:
 2301 0052 00BF     		.section	.text.HAL_RTCEx_DeactivateCoarseCalib,"ax",%progbits
 2302              		.align	1
 2303              		.p2align 2,,3
 2304              		.global	HAL_RTCEx_DeactivateCoarseCalib
 2305              		.syntax unified
 2306              		.thumb
 2307              		.thumb_func
 2309              	HAL_RTCEx_DeactivateCoarseCalib:
ARM GAS  C:\Users\Konrad\AppData\Local\Temp\ccbXyGXO.s 			page 71


 2310              	.LVL155:
 2311              	.LFB238:
1343:Drivers/STM32F4xx_HAL_Driver/Src/stm32f4xx_hal_rtc_ex.c **** 
1344:Drivers/STM32F4xx_HAL_Driver/Src/stm32f4xx_hal_rtc_ex.c **** /**
1345:Drivers/STM32F4xx_HAL_Driver/Src/stm32f4xx_hal_rtc_ex.c ****   * @brief  Deactivates the Coarse calibration parameters.
1346:Drivers/STM32F4xx_HAL_Driver/Src/stm32f4xx_hal_rtc_ex.c ****   * @param  hrtc pointer to a RTC_HandleTypeDef structure that contains
1347:Drivers/STM32F4xx_HAL_Driver/Src/stm32f4xx_hal_rtc_ex.c ****   *                the configuration information for RTC.
1348:Drivers/STM32F4xx_HAL_Driver/Src/stm32f4xx_hal_rtc_ex.c ****   * @retval HAL status
1349:Drivers/STM32F4xx_HAL_Driver/Src/stm32f4xx_hal_rtc_ex.c ****   */
1350:Drivers/STM32F4xx_HAL_Driver/Src/stm32f4xx_hal_rtc_ex.c **** HAL_StatusTypeDef HAL_RTCEx_DeactivateCoarseCalib(RTC_HandleTypeDef *hrtc)
1351:Drivers/STM32F4xx_HAL_Driver/Src/stm32f4xx_hal_rtc_ex.c **** {
 2312              		.loc 1 1351 1 is_stmt 1 view -0
 2313              		.cfi_startproc
 2314              		@ args = 0, pretend = 0, frame = 0
 2315              		@ frame_needed = 0, uses_anonymous_args = 0
1352:Drivers/STM32F4xx_HAL_Driver/Src/stm32f4xx_hal_rtc_ex.c ****   HAL_StatusTypeDef status;
 2316              		.loc 1 1352 3 view .LVU852
1353:Drivers/STM32F4xx_HAL_Driver/Src/stm32f4xx_hal_rtc_ex.c **** 
1354:Drivers/STM32F4xx_HAL_Driver/Src/stm32f4xx_hal_rtc_ex.c ****   /* Process Locked */
1355:Drivers/STM32F4xx_HAL_Driver/Src/stm32f4xx_hal_rtc_ex.c ****   __HAL_LOCK(hrtc);
 2317              		.loc 1 1355 3 view .LVU853
 2318              		.loc 1 1355 3 view .LVU854
1351:Drivers/STM32F4xx_HAL_Driver/Src/stm32f4xx_hal_rtc_ex.c ****   HAL_StatusTypeDef status;
 2319              		.loc 1 1351 1 is_stmt 0 view .LVU855
 2320 0000 38B5     		push	{r3, r4, r5, lr}
 2321              		.cfi_def_cfa_offset 16
 2322              		.cfi_offset 3, -16
 2323              		.cfi_offset 4, -12
 2324              		.cfi_offset 5, -8
 2325              		.cfi_offset 14, -4
 2326              		.loc 1 1355 3 view .LVU856
 2327 0002 037F     		ldrb	r3, [r0, #28]	@ zero_extendqisi2
 2328 0004 012B     		cmp	r3, #1
 2329 0006 1ED0     		beq	.L188
 2330              		.loc 1 1355 3 is_stmt 1 discriminator 2 view .LVU857
1356:Drivers/STM32F4xx_HAL_Driver/Src/stm32f4xx_hal_rtc_ex.c **** 
1357:Drivers/STM32F4xx_HAL_Driver/Src/stm32f4xx_hal_rtc_ex.c ****   hrtc->State = HAL_RTC_STATE_BUSY;
1358:Drivers/STM32F4xx_HAL_Driver/Src/stm32f4xx_hal_rtc_ex.c **** 
1359:Drivers/STM32F4xx_HAL_Driver/Src/stm32f4xx_hal_rtc_ex.c ****   /* Disable the write protection for RTC registers */
1360:Drivers/STM32F4xx_HAL_Driver/Src/stm32f4xx_hal_rtc_ex.c ****   __HAL_RTC_WRITEPROTECTION_DISABLE(hrtc);
 2331              		.loc 1 1360 3 is_stmt 0 view .LVU858
 2332 0008 0368     		ldr	r3, [r0]
1357:Drivers/STM32F4xx_HAL_Driver/Src/stm32f4xx_hal_rtc_ex.c **** 
 2333              		.loc 1 1357 15 view .LVU859
 2334 000a 0222     		movs	r2, #2
 2335 000c 4277     		strb	r2, [r0, #29]
1355:Drivers/STM32F4xx_HAL_Driver/Src/stm32f4xx_hal_rtc_ex.c **** 
 2336              		.loc 1 1355 3 discriminator 2 view .LVU860
 2337 000e 0125     		movs	r5, #1
 2338              		.loc 1 1360 3 view .LVU861
 2339 0010 CA22     		movs	r2, #202
1355:Drivers/STM32F4xx_HAL_Driver/Src/stm32f4xx_hal_rtc_ex.c **** 
 2340              		.loc 1 1355 3 discriminator 2 view .LVU862
 2341 0012 0577     		strb	r5, [r0, #28]
1355:Drivers/STM32F4xx_HAL_Driver/Src/stm32f4xx_hal_rtc_ex.c **** 
 2342              		.loc 1 1355 3 is_stmt 1 discriminator 2 view .LVU863
1357:Drivers/STM32F4xx_HAL_Driver/Src/stm32f4xx_hal_rtc_ex.c **** 
ARM GAS  C:\Users\Konrad\AppData\Local\Temp\ccbXyGXO.s 			page 72


 2343              		.loc 1 1357 3 view .LVU864
 2344              		.loc 1 1360 3 view .LVU865
 2345              		.loc 1 1360 3 view .LVU866
 2346 0014 5A62     		str	r2, [r3, #36]
 2347              		.loc 1 1360 3 view .LVU867
 2348 0016 5322     		movs	r2, #83
 2349 0018 5A62     		str	r2, [r3, #36]
 2350              		.loc 1 1360 3 view .LVU868
1361:Drivers/STM32F4xx_HAL_Driver/Src/stm32f4xx_hal_rtc_ex.c **** 
1362:Drivers/STM32F4xx_HAL_Driver/Src/stm32f4xx_hal_rtc_ex.c ****   /* Enter Initialization mode */
1363:Drivers/STM32F4xx_HAL_Driver/Src/stm32f4xx_hal_rtc_ex.c ****   status = RTC_EnterInitMode(hrtc);
 2351              		.loc 1 1363 3 view .LVU869
 2352 001a 0446     		mov	r4, r0
 2353              		.loc 1 1363 12 is_stmt 0 view .LVU870
 2354 001c FFF7FEFF 		bl	RTC_EnterInitMode
 2355              	.LVL156:
1364:Drivers/STM32F4xx_HAL_Driver/Src/stm32f4xx_hal_rtc_ex.c **** 
1365:Drivers/STM32F4xx_HAL_Driver/Src/stm32f4xx_hal_rtc_ex.c ****   if (status == HAL_OK)
 2356              		.loc 1 1365 3 is_stmt 1 view .LVU871
 2357              		.loc 1 1365 6 is_stmt 0 view .LVU872
 2358 0020 28B1     		cbz	r0, .L190
 2359              	.L185:
 2360              	.LVL157:
1366:Drivers/STM32F4xx_HAL_Driver/Src/stm32f4xx_hal_rtc_ex.c ****   {
1367:Drivers/STM32F4xx_HAL_Driver/Src/stm32f4xx_hal_rtc_ex.c ****     /* Disable the Coarse Calibration */
1368:Drivers/STM32F4xx_HAL_Driver/Src/stm32f4xx_hal_rtc_ex.c ****     __HAL_RTC_COARSE_CALIB_DISABLE(hrtc);
1369:Drivers/STM32F4xx_HAL_Driver/Src/stm32f4xx_hal_rtc_ex.c **** 
1370:Drivers/STM32F4xx_HAL_Driver/Src/stm32f4xx_hal_rtc_ex.c ****     /* Exit Initialization mode */
1371:Drivers/STM32F4xx_HAL_Driver/Src/stm32f4xx_hal_rtc_ex.c ****     status = RTC_ExitInitMode(hrtc);
1372:Drivers/STM32F4xx_HAL_Driver/Src/stm32f4xx_hal_rtc_ex.c ****   }
1373:Drivers/STM32F4xx_HAL_Driver/Src/stm32f4xx_hal_rtc_ex.c **** 
1374:Drivers/STM32F4xx_HAL_Driver/Src/stm32f4xx_hal_rtc_ex.c ****   if (status == HAL_OK)
1375:Drivers/STM32F4xx_HAL_Driver/Src/stm32f4xx_hal_rtc_ex.c ****   {
1376:Drivers/STM32F4xx_HAL_Driver/Src/stm32f4xx_hal_rtc_ex.c ****     hrtc->State = HAL_RTC_STATE_READY;
1377:Drivers/STM32F4xx_HAL_Driver/Src/stm32f4xx_hal_rtc_ex.c ****   }
1378:Drivers/STM32F4xx_HAL_Driver/Src/stm32f4xx_hal_rtc_ex.c **** 
1379:Drivers/STM32F4xx_HAL_Driver/Src/stm32f4xx_hal_rtc_ex.c ****   /* Enable the write protection for RTC registers */
1380:Drivers/STM32F4xx_HAL_Driver/Src/stm32f4xx_hal_rtc_ex.c ****   __HAL_RTC_WRITEPROTECTION_ENABLE(hrtc);
 2361              		.loc 1 1380 3 is_stmt 1 view .LVU873
 2362              		.loc 1 1380 3 view .LVU874
 2363 0022 2268     		ldr	r2, [r4]
 2364 0024 FF21     		movs	r1, #255
1381:Drivers/STM32F4xx_HAL_Driver/Src/stm32f4xx_hal_rtc_ex.c **** 
1382:Drivers/STM32F4xx_HAL_Driver/Src/stm32f4xx_hal_rtc_ex.c ****   /* Process Unlocked */
1383:Drivers/STM32F4xx_HAL_Driver/Src/stm32f4xx_hal_rtc_ex.c ****   __HAL_UNLOCK(hrtc);
 2365              		.loc 1 1383 3 is_stmt 0 view .LVU875
 2366 0026 0023     		movs	r3, #0
1380:Drivers/STM32F4xx_HAL_Driver/Src/stm32f4xx_hal_rtc_ex.c **** 
 2367              		.loc 1 1380 3 view .LVU876
 2368 0028 5162     		str	r1, [r2, #36]
1380:Drivers/STM32F4xx_HAL_Driver/Src/stm32f4xx_hal_rtc_ex.c **** 
 2369              		.loc 1 1380 3 is_stmt 1 view .LVU877
 2370              		.loc 1 1383 3 view .LVU878
 2371              		.loc 1 1383 3 view .LVU879
 2372 002a 2377     		strb	r3, [r4, #28]
 2373              		.loc 1 1383 3 view .LVU880
1384:Drivers/STM32F4xx_HAL_Driver/Src/stm32f4xx_hal_rtc_ex.c **** 
ARM GAS  C:\Users\Konrad\AppData\Local\Temp\ccbXyGXO.s 			page 73


1385:Drivers/STM32F4xx_HAL_Driver/Src/stm32f4xx_hal_rtc_ex.c ****   return status;
 2374              		.loc 1 1385 3 view .LVU881
1386:Drivers/STM32F4xx_HAL_Driver/Src/stm32f4xx_hal_rtc_ex.c **** }
 2375              		.loc 1 1386 1 is_stmt 0 view .LVU882
 2376 002c 38BD     		pop	{r3, r4, r5, pc}
 2377              	.LVL158:
 2378              	.L190:
1368:Drivers/STM32F4xx_HAL_Driver/Src/stm32f4xx_hal_rtc_ex.c **** 
 2379              		.loc 1 1368 5 is_stmt 1 view .LVU883
 2380 002e 2268     		ldr	r2, [r4]
 2381 0030 9368     		ldr	r3, [r2, #8]
 2382 0032 23F08003 		bic	r3, r3, #128
1371:Drivers/STM32F4xx_HAL_Driver/Src/stm32f4xx_hal_rtc_ex.c ****   }
 2383              		.loc 1 1371 14 is_stmt 0 view .LVU884
 2384 0036 2046     		mov	r0, r4
 2385              	.LVL159:
1368:Drivers/STM32F4xx_HAL_Driver/Src/stm32f4xx_hal_rtc_ex.c **** 
 2386              		.loc 1 1368 5 view .LVU885
 2387 0038 9360     		str	r3, [r2, #8]
1371:Drivers/STM32F4xx_HAL_Driver/Src/stm32f4xx_hal_rtc_ex.c ****   }
 2388              		.loc 1 1371 5 is_stmt 1 view .LVU886
1371:Drivers/STM32F4xx_HAL_Driver/Src/stm32f4xx_hal_rtc_ex.c ****   }
 2389              		.loc 1 1371 14 is_stmt 0 view .LVU887
 2390 003a FFF7FEFF 		bl	RTC_ExitInitMode
 2391              	.LVL160:
1374:Drivers/STM32F4xx_HAL_Driver/Src/stm32f4xx_hal_rtc_ex.c ****   {
 2392              		.loc 1 1374 3 is_stmt 1 view .LVU888
1374:Drivers/STM32F4xx_HAL_Driver/Src/stm32f4xx_hal_rtc_ex.c ****   {
 2393              		.loc 1 1374 6 is_stmt 0 view .LVU889
 2394 003e 0028     		cmp	r0, #0
 2395 0040 EFD1     		bne	.L185
1376:Drivers/STM32F4xx_HAL_Driver/Src/stm32f4xx_hal_rtc_ex.c ****   }
 2396              		.loc 1 1376 5 is_stmt 1 view .LVU890
1376:Drivers/STM32F4xx_HAL_Driver/Src/stm32f4xx_hal_rtc_ex.c ****   }
 2397              		.loc 1 1376 17 is_stmt 0 view .LVU891
 2398 0042 6577     		strb	r5, [r4, #29]
 2399 0044 EDE7     		b	.L185
 2400              	.LVL161:
 2401              	.L188:
1355:Drivers/STM32F4xx_HAL_Driver/Src/stm32f4xx_hal_rtc_ex.c **** 
 2402              		.loc 1 1355 3 discriminator 1 view .LVU892
 2403 0046 0220     		movs	r0, #2
 2404              	.LVL162:
 2405              		.loc 1 1386 1 view .LVU893
 2406 0048 38BD     		pop	{r3, r4, r5, pc}
 2407              		.cfi_endproc
 2408              	.LFE238:
 2410 004a 00BF     		.section	.text.HAL_RTCEx_SetSmoothCalib,"ax",%progbits
 2411              		.align	1
 2412              		.p2align 2,,3
 2413              		.global	HAL_RTCEx_SetSmoothCalib
 2414              		.syntax unified
 2415              		.thumb
 2416              		.thumb_func
 2418              	HAL_RTCEx_SetSmoothCalib:
 2419              	.LVL163:
 2420              	.LFB239:
ARM GAS  C:\Users\Konrad\AppData\Local\Temp\ccbXyGXO.s 			page 74


1387:Drivers/STM32F4xx_HAL_Driver/Src/stm32f4xx_hal_rtc_ex.c **** 
1388:Drivers/STM32F4xx_HAL_Driver/Src/stm32f4xx_hal_rtc_ex.c **** /**
1389:Drivers/STM32F4xx_HAL_Driver/Src/stm32f4xx_hal_rtc_ex.c ****   * @brief  Sets the Smooth calibration parameters.
1390:Drivers/STM32F4xx_HAL_Driver/Src/stm32f4xx_hal_rtc_ex.c ****   * @param  hrtc pointer to a RTC_HandleTypeDef structure that contains
1391:Drivers/STM32F4xx_HAL_Driver/Src/stm32f4xx_hal_rtc_ex.c ****   *                the configuration information for RTC.
1392:Drivers/STM32F4xx_HAL_Driver/Src/stm32f4xx_hal_rtc_ex.c ****   * @param  SmoothCalibPeriod Select the Smooth Calibration Period.
1393:Drivers/STM32F4xx_HAL_Driver/Src/stm32f4xx_hal_rtc_ex.c ****   *          This parameter can be can be one of the following values:
1394:Drivers/STM32F4xx_HAL_Driver/Src/stm32f4xx_hal_rtc_ex.c ****   *             @arg RTC_SMOOTHCALIB_PERIOD_32SEC: The smooth calibration period is 32s.
1395:Drivers/STM32F4xx_HAL_Driver/Src/stm32f4xx_hal_rtc_ex.c ****   *             @arg RTC_SMOOTHCALIB_PERIOD_16SEC: The smooth calibration period is 16s.
1396:Drivers/STM32F4xx_HAL_Driver/Src/stm32f4xx_hal_rtc_ex.c ****   *             @arg RTC_SMOOTHCALIB_PERIOD_8SEC: The smooth calibration period is 8s.
1397:Drivers/STM32F4xx_HAL_Driver/Src/stm32f4xx_hal_rtc_ex.c ****   * @param  SmoothCalibPlusPulses Select to Set or reset the CALP bit.
1398:Drivers/STM32F4xx_HAL_Driver/Src/stm32f4xx_hal_rtc_ex.c ****   *          This parameter can be one of the following values:
1399:Drivers/STM32F4xx_HAL_Driver/Src/stm32f4xx_hal_rtc_ex.c ****   *             @arg RTC_SMOOTHCALIB_PLUSPULSES_SET: Add one RTCCLK pulse every 2*11 pulses.
1400:Drivers/STM32F4xx_HAL_Driver/Src/stm32f4xx_hal_rtc_ex.c ****   *             @arg RTC_SMOOTHCALIB_PLUSPULSES_RESET: No RTCCLK pulses are added.
1401:Drivers/STM32F4xx_HAL_Driver/Src/stm32f4xx_hal_rtc_ex.c ****   * @param  SmoothCalibMinusPulsesValue Select the value of CALM[8:0] bits.
1402:Drivers/STM32F4xx_HAL_Driver/Src/stm32f4xx_hal_rtc_ex.c ****   *          This parameter can be one any value from 0 to 0x000001FF.
1403:Drivers/STM32F4xx_HAL_Driver/Src/stm32f4xx_hal_rtc_ex.c ****   * @note   To deactivate the smooth calibration, the field SmoothCalibPlusPulses
1404:Drivers/STM32F4xx_HAL_Driver/Src/stm32f4xx_hal_rtc_ex.c ****   *         must be equal to SMOOTHCALIB_PLUSPULSES_RESET and the field
1405:Drivers/STM32F4xx_HAL_Driver/Src/stm32f4xx_hal_rtc_ex.c ****   *         SmoothCalibMinusPulsesValue must be equal to 0.
1406:Drivers/STM32F4xx_HAL_Driver/Src/stm32f4xx_hal_rtc_ex.c ****   * @retval HAL status
1407:Drivers/STM32F4xx_HAL_Driver/Src/stm32f4xx_hal_rtc_ex.c ****   */
1408:Drivers/STM32F4xx_HAL_Driver/Src/stm32f4xx_hal_rtc_ex.c **** HAL_StatusTypeDef HAL_RTCEx_SetSmoothCalib(RTC_HandleTypeDef *hrtc, uint32_t SmoothCalibPeriod, uin
1409:Drivers/STM32F4xx_HAL_Driver/Src/stm32f4xx_hal_rtc_ex.c **** {
 2421              		.loc 1 1409 1 is_stmt 1 view -0
 2422              		.cfi_startproc
 2423              		@ args = 0, pretend = 0, frame = 0
 2424              		@ frame_needed = 0, uses_anonymous_args = 0
1410:Drivers/STM32F4xx_HAL_Driver/Src/stm32f4xx_hal_rtc_ex.c ****   uint32_t tickstart = 0U;
 2425              		.loc 1 1410 3 view .LVU895
1411:Drivers/STM32F4xx_HAL_Driver/Src/stm32f4xx_hal_rtc_ex.c **** 
1412:Drivers/STM32F4xx_HAL_Driver/Src/stm32f4xx_hal_rtc_ex.c ****   /* Check the parameters */
1413:Drivers/STM32F4xx_HAL_Driver/Src/stm32f4xx_hal_rtc_ex.c ****   assert_param(IS_RTC_SMOOTH_CALIB_PERIOD(SmoothCalibPeriod));
 2426              		.loc 1 1413 3 view .LVU896
1414:Drivers/STM32F4xx_HAL_Driver/Src/stm32f4xx_hal_rtc_ex.c ****   assert_param(IS_RTC_SMOOTH_CALIB_PLUS(SmoothCalibPlusPulses));
 2427              		.loc 1 1414 3 view .LVU897
1415:Drivers/STM32F4xx_HAL_Driver/Src/stm32f4xx_hal_rtc_ex.c ****   assert_param(IS_RTC_SMOOTH_CALIB_MINUS(SmoothCalibMinusPulsesValue));
 2428              		.loc 1 1415 3 view .LVU898
1416:Drivers/STM32F4xx_HAL_Driver/Src/stm32f4xx_hal_rtc_ex.c **** 
1417:Drivers/STM32F4xx_HAL_Driver/Src/stm32f4xx_hal_rtc_ex.c ****   /* Process Locked */
1418:Drivers/STM32F4xx_HAL_Driver/Src/stm32f4xx_hal_rtc_ex.c ****   __HAL_LOCK(hrtc);
 2429              		.loc 1 1418 3 view .LVU899
 2430              		.loc 1 1418 3 view .LVU900
1409:Drivers/STM32F4xx_HAL_Driver/Src/stm32f4xx_hal_rtc_ex.c ****   uint32_t tickstart = 0U;
 2431              		.loc 1 1409 1 is_stmt 0 view .LVU901
 2432 0000 2DE9F843 		push	{r3, r4, r5, r6, r7, r8, r9, lr}
 2433              		.cfi_def_cfa_offset 32
 2434              		.cfi_offset 3, -32
 2435              		.cfi_offset 4, -28
 2436              		.cfi_offset 5, -24
 2437              		.cfi_offset 6, -20
 2438              		.cfi_offset 7, -16
 2439              		.cfi_offset 8, -12
 2440              		.cfi_offset 9, -8
 2441              		.cfi_offset 14, -4
1409:Drivers/STM32F4xx_HAL_Driver/Src/stm32f4xx_hal_rtc_ex.c ****   uint32_t tickstart = 0U;
 2442              		.loc 1 1409 1 view .LVU902
 2443 0004 0446     		mov	r4, r0
ARM GAS  C:\Users\Konrad\AppData\Local\Temp\ccbXyGXO.s 			page 75


 2444              		.loc 1 1418 3 view .LVU903
 2445 0006 007F     		ldrb	r0, [r0, #28]	@ zero_extendqisi2
 2446              	.LVL164:
 2447              		.loc 1 1418 3 view .LVU904
 2448 0008 0128     		cmp	r0, #1
 2449 000a 32D0     		beq	.L196
 2450              		.loc 1 1418 3 is_stmt 1 discriminator 2 view .LVU905
 2451 000c 9846     		mov	r8, r3
 2452 000e 0123     		movs	r3, #1
 2453              	.LVL165:
 2454              		.loc 1 1418 3 is_stmt 0 discriminator 2 view .LVU906
 2455 0010 2377     		strb	r3, [r4, #28]
 2456              		.loc 1 1418 3 is_stmt 1 discriminator 2 view .LVU907
1419:Drivers/STM32F4xx_HAL_Driver/Src/stm32f4xx_hal_rtc_ex.c **** 
1420:Drivers/STM32F4xx_HAL_Driver/Src/stm32f4xx_hal_rtc_ex.c ****   hrtc->State = HAL_RTC_STATE_BUSY;
 2457              		.loc 1 1420 3 view .LVU908
1421:Drivers/STM32F4xx_HAL_Driver/Src/stm32f4xx_hal_rtc_ex.c **** 
1422:Drivers/STM32F4xx_HAL_Driver/Src/stm32f4xx_hal_rtc_ex.c ****   /* Disable the write protection for RTC registers */
1423:Drivers/STM32F4xx_HAL_Driver/Src/stm32f4xx_hal_rtc_ex.c ****   __HAL_RTC_WRITEPROTECTION_DISABLE(hrtc);
 2458              		.loc 1 1423 3 is_stmt 0 view .LVU909
 2459 0012 2568     		ldr	r5, [r4]
1420:Drivers/STM32F4xx_HAL_Driver/Src/stm32f4xx_hal_rtc_ex.c **** 
 2460              		.loc 1 1420 15 view .LVU910
 2461 0014 0223     		movs	r3, #2
 2462 0016 6377     		strb	r3, [r4, #29]
 2463              		.loc 1 1423 3 is_stmt 1 view .LVU911
 2464              		.loc 1 1423 3 view .LVU912
 2465 0018 CA23     		movs	r3, #202
 2466 001a 6B62     		str	r3, [r5, #36]
 2467              		.loc 1 1423 3 view .LVU913
 2468 001c 5323     		movs	r3, #83
 2469 001e 6B62     		str	r3, [r5, #36]
 2470              		.loc 1 1423 3 view .LVU914
1424:Drivers/STM32F4xx_HAL_Driver/Src/stm32f4xx_hal_rtc_ex.c **** 
1425:Drivers/STM32F4xx_HAL_Driver/Src/stm32f4xx_hal_rtc_ex.c ****   /* check if a calibration is pending*/
1426:Drivers/STM32F4xx_HAL_Driver/Src/stm32f4xx_hal_rtc_ex.c ****   if ((hrtc->Instance->ISR & RTC_ISR_RECALPF) != 0U)
 2471              		.loc 1 1426 3 view .LVU915
 2472              		.loc 1 1426 22 is_stmt 0 view .LVU916
 2473 0020 EB68     		ldr	r3, [r5, #12]
 2474 0022 1646     		mov	r6, r2
 2475              		.loc 1 1426 6 view .LVU917
 2476 0024 DA03     		lsls	r2, r3, #15
 2477              	.LVL166:
 2478              		.loc 1 1426 6 view .LVU918
 2479 0026 0F46     		mov	r7, r1
 2480 0028 0BD4     		bmi	.L202
 2481              	.LVL167:
 2482              	.L193:
1427:Drivers/STM32F4xx_HAL_Driver/Src/stm32f4xx_hal_rtc_ex.c ****   {
1428:Drivers/STM32F4xx_HAL_Driver/Src/stm32f4xx_hal_rtc_ex.c ****     /* Get tick */
1429:Drivers/STM32F4xx_HAL_Driver/Src/stm32f4xx_hal_rtc_ex.c ****     tickstart = HAL_GetTick();
1430:Drivers/STM32F4xx_HAL_Driver/Src/stm32f4xx_hal_rtc_ex.c **** 
1431:Drivers/STM32F4xx_HAL_Driver/Src/stm32f4xx_hal_rtc_ex.c ****     /* check if a calibration is pending*/
1432:Drivers/STM32F4xx_HAL_Driver/Src/stm32f4xx_hal_rtc_ex.c ****     while ((hrtc->Instance->ISR & RTC_ISR_RECALPF) != 0U)
1433:Drivers/STM32F4xx_HAL_Driver/Src/stm32f4xx_hal_rtc_ex.c ****     {
1434:Drivers/STM32F4xx_HAL_Driver/Src/stm32f4xx_hal_rtc_ex.c ****       if ((HAL_GetTick() - tickstart) > RTC_TIMEOUT_VALUE)
1435:Drivers/STM32F4xx_HAL_Driver/Src/stm32f4xx_hal_rtc_ex.c ****       {
ARM GAS  C:\Users\Konrad\AppData\Local\Temp\ccbXyGXO.s 			page 76


1436:Drivers/STM32F4xx_HAL_Driver/Src/stm32f4xx_hal_rtc_ex.c ****         /* Enable the write protection for RTC registers */
1437:Drivers/STM32F4xx_HAL_Driver/Src/stm32f4xx_hal_rtc_ex.c ****         __HAL_RTC_WRITEPROTECTION_ENABLE(hrtc);
1438:Drivers/STM32F4xx_HAL_Driver/Src/stm32f4xx_hal_rtc_ex.c **** 
1439:Drivers/STM32F4xx_HAL_Driver/Src/stm32f4xx_hal_rtc_ex.c ****         /* Change RTC state */
1440:Drivers/STM32F4xx_HAL_Driver/Src/stm32f4xx_hal_rtc_ex.c ****         hrtc->State = HAL_RTC_STATE_TIMEOUT;
1441:Drivers/STM32F4xx_HAL_Driver/Src/stm32f4xx_hal_rtc_ex.c **** 
1442:Drivers/STM32F4xx_HAL_Driver/Src/stm32f4xx_hal_rtc_ex.c ****         /* Process Unlocked */
1443:Drivers/STM32F4xx_HAL_Driver/Src/stm32f4xx_hal_rtc_ex.c ****         __HAL_UNLOCK(hrtc);
1444:Drivers/STM32F4xx_HAL_Driver/Src/stm32f4xx_hal_rtc_ex.c **** 
1445:Drivers/STM32F4xx_HAL_Driver/Src/stm32f4xx_hal_rtc_ex.c ****         return HAL_TIMEOUT;
1446:Drivers/STM32F4xx_HAL_Driver/Src/stm32f4xx_hal_rtc_ex.c ****       }
1447:Drivers/STM32F4xx_HAL_Driver/Src/stm32f4xx_hal_rtc_ex.c ****     }
1448:Drivers/STM32F4xx_HAL_Driver/Src/stm32f4xx_hal_rtc_ex.c ****   }
1449:Drivers/STM32F4xx_HAL_Driver/Src/stm32f4xx_hal_rtc_ex.c **** 
1450:Drivers/STM32F4xx_HAL_Driver/Src/stm32f4xx_hal_rtc_ex.c ****   /* Configure the Smooth calibration settings */
1451:Drivers/STM32F4xx_HAL_Driver/Src/stm32f4xx_hal_rtc_ex.c ****   hrtc->Instance->CALR = (uint32_t)((uint32_t)SmoothCalibPeriod     | \
 2483              		.loc 1 1451 3 is_stmt 1 view .LVU919
 2484              		.loc 1 1451 26 is_stmt 0 view .LVU920
 2485 002a 46EA0806 		orr	r6, r6, r8
 2486              	.LVL168:
 2487              		.loc 1 1451 26 view .LVU921
 2488 002e 3E43     		orrs	r6, r6, r7
1452:Drivers/STM32F4xx_HAL_Driver/Src/stm32f4xx_hal_rtc_ex.c ****                                     (uint32_t)SmoothCalibPlusPulses | \
1453:Drivers/STM32F4xx_HAL_Driver/Src/stm32f4xx_hal_rtc_ex.c ****                                     (uint32_t)SmoothCalibMinusPulsesValue);
1454:Drivers/STM32F4xx_HAL_Driver/Src/stm32f4xx_hal_rtc_ex.c **** 
1455:Drivers/STM32F4xx_HAL_Driver/Src/stm32f4xx_hal_rtc_ex.c ****   /* Enable the write protection for RTC registers */
1456:Drivers/STM32F4xx_HAL_Driver/Src/stm32f4xx_hal_rtc_ex.c ****   __HAL_RTC_WRITEPROTECTION_ENABLE(hrtc);
 2489              		.loc 1 1456 3 view .LVU922
 2490 0030 FF23     		movs	r3, #255
1451:Drivers/STM32F4xx_HAL_Driver/Src/stm32f4xx_hal_rtc_ex.c ****                                     (uint32_t)SmoothCalibPlusPulses | \
 2491              		.loc 1 1451 24 view .LVU923
 2492 0032 EE63     		str	r6, [r5, #60]
 2493              		.loc 1 1456 3 is_stmt 1 view .LVU924
 2494              		.loc 1 1456 3 view .LVU925
1457:Drivers/STM32F4xx_HAL_Driver/Src/stm32f4xx_hal_rtc_ex.c **** 
1458:Drivers/STM32F4xx_HAL_Driver/Src/stm32f4xx_hal_rtc_ex.c ****   /* Change RTC state */
1459:Drivers/STM32F4xx_HAL_Driver/Src/stm32f4xx_hal_rtc_ex.c ****   hrtc->State = HAL_RTC_STATE_READY;
1460:Drivers/STM32F4xx_HAL_Driver/Src/stm32f4xx_hal_rtc_ex.c **** 
1461:Drivers/STM32F4xx_HAL_Driver/Src/stm32f4xx_hal_rtc_ex.c ****   /* Process Unlocked */
1462:Drivers/STM32F4xx_HAL_Driver/Src/stm32f4xx_hal_rtc_ex.c ****   __HAL_UNLOCK(hrtc);
 2495              		.loc 1 1462 3 is_stmt 0 view .LVU926
 2496 0034 0020     		movs	r0, #0
1456:Drivers/STM32F4xx_HAL_Driver/Src/stm32f4xx_hal_rtc_ex.c **** 
 2497              		.loc 1 1456 3 view .LVU927
 2498 0036 6B62     		str	r3, [r5, #36]
1456:Drivers/STM32F4xx_HAL_Driver/Src/stm32f4xx_hal_rtc_ex.c **** 
 2499              		.loc 1 1456 3 is_stmt 1 view .LVU928
1459:Drivers/STM32F4xx_HAL_Driver/Src/stm32f4xx_hal_rtc_ex.c **** 
 2500              		.loc 1 1459 3 view .LVU929
1459:Drivers/STM32F4xx_HAL_Driver/Src/stm32f4xx_hal_rtc_ex.c **** 
 2501              		.loc 1 1459 15 is_stmt 0 view .LVU930
 2502 0038 0123     		movs	r3, #1
 2503 003a 6377     		strb	r3, [r4, #29]
 2504              		.loc 1 1462 3 is_stmt 1 view .LVU931
 2505              		.loc 1 1462 3 view .LVU932
 2506 003c 2077     		strb	r0, [r4, #28]
 2507              		.loc 1 1462 3 view .LVU933
ARM GAS  C:\Users\Konrad\AppData\Local\Temp\ccbXyGXO.s 			page 77


1463:Drivers/STM32F4xx_HAL_Driver/Src/stm32f4xx_hal_rtc_ex.c **** 
1464:Drivers/STM32F4xx_HAL_Driver/Src/stm32f4xx_hal_rtc_ex.c ****   return HAL_OK;
 2508              		.loc 1 1464 3 view .LVU934
1465:Drivers/STM32F4xx_HAL_Driver/Src/stm32f4xx_hal_rtc_ex.c **** }
 2509              		.loc 1 1465 1 is_stmt 0 view .LVU935
 2510 003e BDE8F883 		pop	{r3, r4, r5, r6, r7, r8, r9, pc}
 2511              	.LVL169:
 2512              	.L202:
1429:Drivers/STM32F4xx_HAL_Driver/Src/stm32f4xx_hal_rtc_ex.c **** 
 2513              		.loc 1 1429 5 is_stmt 1 view .LVU936
1429:Drivers/STM32F4xx_HAL_Driver/Src/stm32f4xx_hal_rtc_ex.c **** 
 2514              		.loc 1 1429 17 is_stmt 0 view .LVU937
 2515 0042 FFF7FEFF 		bl	HAL_GetTick
 2516              	.LVL170:
1429:Drivers/STM32F4xx_HAL_Driver/Src/stm32f4xx_hal_rtc_ex.c **** 
 2517              		.loc 1 1429 17 view .LVU938
 2518 0046 8146     		mov	r9, r0
 2519              	.LVL171:
1432:Drivers/STM32F4xx_HAL_Driver/Src/stm32f4xx_hal_rtc_ex.c ****     {
 2520              		.loc 1 1432 5 is_stmt 1 view .LVU939
 2521              	.L194:
1434:Drivers/STM32F4xx_HAL_Driver/Src/stm32f4xx_hal_rtc_ex.c ****       {
 2522              		.loc 1 1434 7 view .LVU940
1432:Drivers/STM32F4xx_HAL_Driver/Src/stm32f4xx_hal_rtc_ex.c ****     {
 2523              		.loc 1 1432 52 view .LVU941
1432:Drivers/STM32F4xx_HAL_Driver/Src/stm32f4xx_hal_rtc_ex.c ****     {
 2524              		.loc 1 1432 17 is_stmt 0 view .LVU942
 2525 0048 2568     		ldr	r5, [r4]
1432:Drivers/STM32F4xx_HAL_Driver/Src/stm32f4xx_hal_rtc_ex.c ****     {
 2526              		.loc 1 1432 27 view .LVU943
 2527 004a EB68     		ldr	r3, [r5, #12]
1432:Drivers/STM32F4xx_HAL_Driver/Src/stm32f4xx_hal_rtc_ex.c ****     {
 2528              		.loc 1 1432 52 view .LVU944
 2529 004c DB03     		lsls	r3, r3, #15
 2530 004e ECD5     		bpl	.L193
1434:Drivers/STM32F4xx_HAL_Driver/Src/stm32f4xx_hal_rtc_ex.c ****       {
 2531              		.loc 1 1434 12 view .LVU945
 2532 0050 FFF7FEFF 		bl	HAL_GetTick
 2533              	.LVL172:
1434:Drivers/STM32F4xx_HAL_Driver/Src/stm32f4xx_hal_rtc_ex.c ****       {
 2534              		.loc 1 1434 26 discriminator 1 view .LVU946
 2535 0054 A0EB0900 		sub	r0, r0, r9
1434:Drivers/STM32F4xx_HAL_Driver/Src/stm32f4xx_hal_rtc_ex.c ****       {
 2536              		.loc 1 1434 10 discriminator 1 view .LVU947
 2537 0058 B0F57A7F 		cmp	r0, #1000
 2538 005c F4D9     		bls	.L194
1437:Drivers/STM32F4xx_HAL_Driver/Src/stm32f4xx_hal_rtc_ex.c **** 
 2539              		.loc 1 1437 9 is_stmt 1 view .LVU948
1437:Drivers/STM32F4xx_HAL_Driver/Src/stm32f4xx_hal_rtc_ex.c **** 
 2540              		.loc 1 1437 9 view .LVU949
 2541 005e 2168     		ldr	r1, [r4]
1440:Drivers/STM32F4xx_HAL_Driver/Src/stm32f4xx_hal_rtc_ex.c **** 
 2542              		.loc 1 1440 21 is_stmt 0 view .LVU950
 2543 0060 0323     		movs	r3, #3
1437:Drivers/STM32F4xx_HAL_Driver/Src/stm32f4xx_hal_rtc_ex.c **** 
 2544              		.loc 1 1437 9 view .LVU951
 2545 0062 FF20     		movs	r0, #255
ARM GAS  C:\Users\Konrad\AppData\Local\Temp\ccbXyGXO.s 			page 78


1443:Drivers/STM32F4xx_HAL_Driver/Src/stm32f4xx_hal_rtc_ex.c **** 
 2546              		.loc 1 1443 9 view .LVU952
 2547 0064 0022     		movs	r2, #0
1437:Drivers/STM32F4xx_HAL_Driver/Src/stm32f4xx_hal_rtc_ex.c **** 
 2548              		.loc 1 1437 9 view .LVU953
 2549 0066 4862     		str	r0, [r1, #36]
1437:Drivers/STM32F4xx_HAL_Driver/Src/stm32f4xx_hal_rtc_ex.c **** 
 2550              		.loc 1 1437 9 is_stmt 1 view .LVU954
1440:Drivers/STM32F4xx_HAL_Driver/Src/stm32f4xx_hal_rtc_ex.c **** 
 2551              		.loc 1 1440 9 view .LVU955
1440:Drivers/STM32F4xx_HAL_Driver/Src/stm32f4xx_hal_rtc_ex.c **** 
 2552              		.loc 1 1440 21 is_stmt 0 view .LVU956
 2553 0068 6377     		strb	r3, [r4, #29]
1443:Drivers/STM32F4xx_HAL_Driver/Src/stm32f4xx_hal_rtc_ex.c **** 
 2554              		.loc 1 1443 9 is_stmt 1 view .LVU957
1443:Drivers/STM32F4xx_HAL_Driver/Src/stm32f4xx_hal_rtc_ex.c **** 
 2555              		.loc 1 1443 9 view .LVU958
 2556 006a 2277     		strb	r2, [r4, #28]
1443:Drivers/STM32F4xx_HAL_Driver/Src/stm32f4xx_hal_rtc_ex.c **** 
 2557              		.loc 1 1443 9 view .LVU959
1445:Drivers/STM32F4xx_HAL_Driver/Src/stm32f4xx_hal_rtc_ex.c ****       }
 2558              		.loc 1 1445 9 view .LVU960
1445:Drivers/STM32F4xx_HAL_Driver/Src/stm32f4xx_hal_rtc_ex.c ****       }
 2559              		.loc 1 1445 16 is_stmt 0 view .LVU961
 2560 006c 1846     		mov	r0, r3
 2561              		.loc 1 1465 1 view .LVU962
 2562 006e BDE8F883 		pop	{r3, r4, r5, r6, r7, r8, r9, pc}
 2563              	.LVL173:
 2564              	.L196:
1418:Drivers/STM32F4xx_HAL_Driver/Src/stm32f4xx_hal_rtc_ex.c **** 
 2565              		.loc 1 1418 3 discriminator 1 view .LVU963
 2566 0072 0220     		movs	r0, #2
 2567              		.loc 1 1465 1 view .LVU964
 2568 0074 BDE8F883 		pop	{r3, r4, r5, r6, r7, r8, r9, pc}
 2569              		.loc 1 1465 1 view .LVU965
 2570              		.cfi_endproc
 2571              	.LFE239:
 2573              		.section	.text.HAL_RTCEx_SetSynchroShift,"ax",%progbits
 2574              		.align	1
 2575              		.p2align 2,,3
 2576              		.global	HAL_RTCEx_SetSynchroShift
 2577              		.syntax unified
 2578              		.thumb
 2579              		.thumb_func
 2581              	HAL_RTCEx_SetSynchroShift:
 2582              	.LVL174:
 2583              	.LFB240:
1466:Drivers/STM32F4xx_HAL_Driver/Src/stm32f4xx_hal_rtc_ex.c **** 
1467:Drivers/STM32F4xx_HAL_Driver/Src/stm32f4xx_hal_rtc_ex.c **** /**
1468:Drivers/STM32F4xx_HAL_Driver/Src/stm32f4xx_hal_rtc_ex.c ****   * @brief  Configures the Synchronization Shift Control Settings.
1469:Drivers/STM32F4xx_HAL_Driver/Src/stm32f4xx_hal_rtc_ex.c ****   * @note   When REFCKON is set, firmware must not write to Shift control register.
1470:Drivers/STM32F4xx_HAL_Driver/Src/stm32f4xx_hal_rtc_ex.c ****   * @param  hrtc pointer to a RTC_HandleTypeDef structure that contains
1471:Drivers/STM32F4xx_HAL_Driver/Src/stm32f4xx_hal_rtc_ex.c ****   *                the configuration information for RTC.
1472:Drivers/STM32F4xx_HAL_Driver/Src/stm32f4xx_hal_rtc_ex.c ****   * @param  ShiftAdd1S Select to add or not 1 second to the time calendar.
1473:Drivers/STM32F4xx_HAL_Driver/Src/stm32f4xx_hal_rtc_ex.c ****   *          This parameter can be one of the following values:
1474:Drivers/STM32F4xx_HAL_Driver/Src/stm32f4xx_hal_rtc_ex.c ****   *             @arg RTC_SHIFTADD1S_SET: Add one second to the clock calendar.
1475:Drivers/STM32F4xx_HAL_Driver/Src/stm32f4xx_hal_rtc_ex.c ****   *             @arg RTC_SHIFTADD1S_RESET: No effect.
ARM GAS  C:\Users\Konrad\AppData\Local\Temp\ccbXyGXO.s 			page 79


1476:Drivers/STM32F4xx_HAL_Driver/Src/stm32f4xx_hal_rtc_ex.c ****   * @param  ShiftSubFS Select the number of Second Fractions to substitute.
1477:Drivers/STM32F4xx_HAL_Driver/Src/stm32f4xx_hal_rtc_ex.c ****   *          This parameter can be one any value from 0 to 0x7FFF.
1478:Drivers/STM32F4xx_HAL_Driver/Src/stm32f4xx_hal_rtc_ex.c ****   * @retval HAL status
1479:Drivers/STM32F4xx_HAL_Driver/Src/stm32f4xx_hal_rtc_ex.c ****   */
1480:Drivers/STM32F4xx_HAL_Driver/Src/stm32f4xx_hal_rtc_ex.c **** HAL_StatusTypeDef HAL_RTCEx_SetSynchroShift(RTC_HandleTypeDef *hrtc, uint32_t ShiftAdd1S, uint32_t 
1481:Drivers/STM32F4xx_HAL_Driver/Src/stm32f4xx_hal_rtc_ex.c **** {
 2584              		.loc 1 1481 1 is_stmt 1 view -0
 2585              		.cfi_startproc
 2586              		@ args = 0, pretend = 0, frame = 0
 2587              		@ frame_needed = 0, uses_anonymous_args = 0
1482:Drivers/STM32F4xx_HAL_Driver/Src/stm32f4xx_hal_rtc_ex.c ****   uint32_t tickstart = 0U;
 2588              		.loc 1 1482 3 view .LVU967
1483:Drivers/STM32F4xx_HAL_Driver/Src/stm32f4xx_hal_rtc_ex.c **** 
1484:Drivers/STM32F4xx_HAL_Driver/Src/stm32f4xx_hal_rtc_ex.c ****   /* Check the parameters */
1485:Drivers/STM32F4xx_HAL_Driver/Src/stm32f4xx_hal_rtc_ex.c ****   assert_param(IS_RTC_SHIFT_ADD1S(ShiftAdd1S));
 2589              		.loc 1 1485 3 view .LVU968
1486:Drivers/STM32F4xx_HAL_Driver/Src/stm32f4xx_hal_rtc_ex.c ****   assert_param(IS_RTC_SHIFT_SUBFS(ShiftSubFS));
 2590              		.loc 1 1486 3 view .LVU969
1487:Drivers/STM32F4xx_HAL_Driver/Src/stm32f4xx_hal_rtc_ex.c **** 
1488:Drivers/STM32F4xx_HAL_Driver/Src/stm32f4xx_hal_rtc_ex.c ****   /* Process Locked */
1489:Drivers/STM32F4xx_HAL_Driver/Src/stm32f4xx_hal_rtc_ex.c ****   __HAL_LOCK(hrtc);
 2591              		.loc 1 1489 3 view .LVU970
 2592              		.loc 1 1489 3 view .LVU971
 2593 0000 037F     		ldrb	r3, [r0, #28]	@ zero_extendqisi2
 2594 0002 012B     		cmp	r3, #1
 2595 0004 37D0     		beq	.L211
1481:Drivers/STM32F4xx_HAL_Driver/Src/stm32f4xx_hal_rtc_ex.c ****   uint32_t tickstart = 0U;
 2596              		.loc 1 1481 1 is_stmt 0 view .LVU972
 2597 0006 2DE9F041 		push	{r4, r5, r6, r7, r8, lr}
 2598              		.cfi_def_cfa_offset 24
 2599              		.cfi_offset 4, -24
 2600              		.cfi_offset 5, -20
 2601              		.cfi_offset 6, -16
 2602              		.cfi_offset 7, -12
 2603              		.cfi_offset 8, -8
 2604              		.cfi_offset 14, -4
 2605 000a 1746     		mov	r7, r2
 2606              		.loc 1 1489 3 is_stmt 1 discriminator 2 view .LVU973
 2607 000c 0122     		movs	r2, #1
 2608              	.LVL175:
 2609              		.loc 1 1489 3 is_stmt 0 discriminator 2 view .LVU974
 2610 000e 0277     		strb	r2, [r0, #28]
 2611              		.loc 1 1489 3 is_stmt 1 discriminator 2 view .LVU975
1490:Drivers/STM32F4xx_HAL_Driver/Src/stm32f4xx_hal_rtc_ex.c **** 
1491:Drivers/STM32F4xx_HAL_Driver/Src/stm32f4xx_hal_rtc_ex.c ****   hrtc->State = HAL_RTC_STATE_BUSY;
 2612              		.loc 1 1491 3 view .LVU976
1492:Drivers/STM32F4xx_HAL_Driver/Src/stm32f4xx_hal_rtc_ex.c **** 
1493:Drivers/STM32F4xx_HAL_Driver/Src/stm32f4xx_hal_rtc_ex.c ****   /* Disable the write protection for RTC registers */
1494:Drivers/STM32F4xx_HAL_Driver/Src/stm32f4xx_hal_rtc_ex.c ****   __HAL_RTC_WRITEPROTECTION_DISABLE(hrtc);
 2613              		.loc 1 1494 3 is_stmt 0 view .LVU977
 2614 0010 0368     		ldr	r3, [r0]
1491:Drivers/STM32F4xx_HAL_Driver/Src/stm32f4xx_hal_rtc_ex.c **** 
 2615              		.loc 1 1491 15 view .LVU978
 2616 0012 0222     		movs	r2, #2
 2617 0014 4277     		strb	r2, [r0, #29]
 2618              		.loc 1 1494 3 is_stmt 1 view .LVU979
 2619              		.loc 1 1494 3 view .LVU980
ARM GAS  C:\Users\Konrad\AppData\Local\Temp\ccbXyGXO.s 			page 80


 2620 0016 CA22     		movs	r2, #202
 2621 0018 5A62     		str	r2, [r3, #36]
 2622              		.loc 1 1494 3 view .LVU981
 2623 001a 5322     		movs	r2, #83
 2624 001c 5A62     		str	r2, [r3, #36]
 2625              		.loc 1 1494 3 view .LVU982
1495:Drivers/STM32F4xx_HAL_Driver/Src/stm32f4xx_hal_rtc_ex.c **** 
1496:Drivers/STM32F4xx_HAL_Driver/Src/stm32f4xx_hal_rtc_ex.c ****   /* Get tick */
1497:Drivers/STM32F4xx_HAL_Driver/Src/stm32f4xx_hal_rtc_ex.c ****   tickstart = HAL_GetTick();
 2626              		.loc 1 1497 3 view .LVU983
 2627 001e 0446     		mov	r4, r0
 2628 0020 8846     		mov	r8, r1
 2629              		.loc 1 1497 15 is_stmt 0 view .LVU984
 2630 0022 FFF7FEFF 		bl	HAL_GetTick
 2631              	.LVL176:
 2632              		.loc 1 1497 15 view .LVU985
 2633 0026 0646     		mov	r6, r0
 2634              	.LVL177:
1498:Drivers/STM32F4xx_HAL_Driver/Src/stm32f4xx_hal_rtc_ex.c **** 
1499:Drivers/STM32F4xx_HAL_Driver/Src/stm32f4xx_hal_rtc_ex.c ****   /* Wait until the shift is completed */
1500:Drivers/STM32F4xx_HAL_Driver/Src/stm32f4xx_hal_rtc_ex.c ****   while ((hrtc->Instance->ISR & RTC_ISR_SHPF) != 0U)
 2635              		.loc 1 1500 3 is_stmt 1 view .LVU986
 2636              		.loc 1 1500 9 is_stmt 0 view .LVU987
 2637 0028 05E0     		b	.L205
 2638              	.LVL178:
 2639              	.L206:
1501:Drivers/STM32F4xx_HAL_Driver/Src/stm32f4xx_hal_rtc_ex.c ****   {
1502:Drivers/STM32F4xx_HAL_Driver/Src/stm32f4xx_hal_rtc_ex.c ****     if ((HAL_GetTick() - tickstart) > RTC_TIMEOUT_VALUE)
 2640              		.loc 1 1502 10 view .LVU988
 2641 002a FFF7FEFF 		bl	HAL_GetTick
 2642              	.LVL179:
 2643              		.loc 1 1502 24 discriminator 1 view .LVU989
 2644 002e 831B     		subs	r3, r0, r6
 2645              		.loc 1 1502 8 discriminator 1 view .LVU990
 2646 0030 B3F57A7F 		cmp	r3, #1000
 2647 0034 15D8     		bhi	.L217
 2648              	.L205:
 2649              		.loc 1 1502 5 is_stmt 1 view .LVU991
1500:Drivers/STM32F4xx_HAL_Driver/Src/stm32f4xx_hal_rtc_ex.c ****   {
 2650              		.loc 1 1500 47 view .LVU992
1500:Drivers/STM32F4xx_HAL_Driver/Src/stm32f4xx_hal_rtc_ex.c ****   {
 2651              		.loc 1 1500 15 is_stmt 0 view .LVU993
 2652 0036 2368     		ldr	r3, [r4]
1500:Drivers/STM32F4xx_HAL_Driver/Src/stm32f4xx_hal_rtc_ex.c ****   {
 2653              		.loc 1 1500 25 view .LVU994
 2654 0038 DD68     		ldr	r5, [r3, #12]
1500:Drivers/STM32F4xx_HAL_Driver/Src/stm32f4xx_hal_rtc_ex.c ****   {
 2655              		.loc 1 1500 47 view .LVU995
 2656 003a 2807     		lsls	r0, r5, #28
 2657 003c F5D4     		bmi	.L206
1503:Drivers/STM32F4xx_HAL_Driver/Src/stm32f4xx_hal_rtc_ex.c ****     {
1504:Drivers/STM32F4xx_HAL_Driver/Src/stm32f4xx_hal_rtc_ex.c ****       /* Enable the write protection for RTC registers */
1505:Drivers/STM32F4xx_HAL_Driver/Src/stm32f4xx_hal_rtc_ex.c ****       __HAL_RTC_WRITEPROTECTION_ENABLE(hrtc);
1506:Drivers/STM32F4xx_HAL_Driver/Src/stm32f4xx_hal_rtc_ex.c **** 
1507:Drivers/STM32F4xx_HAL_Driver/Src/stm32f4xx_hal_rtc_ex.c ****       hrtc->State = HAL_RTC_STATE_TIMEOUT;
1508:Drivers/STM32F4xx_HAL_Driver/Src/stm32f4xx_hal_rtc_ex.c **** 
1509:Drivers/STM32F4xx_HAL_Driver/Src/stm32f4xx_hal_rtc_ex.c ****       /* Process Unlocked */
ARM GAS  C:\Users\Konrad\AppData\Local\Temp\ccbXyGXO.s 			page 81


1510:Drivers/STM32F4xx_HAL_Driver/Src/stm32f4xx_hal_rtc_ex.c ****       __HAL_UNLOCK(hrtc);
1511:Drivers/STM32F4xx_HAL_Driver/Src/stm32f4xx_hal_rtc_ex.c **** 
1512:Drivers/STM32F4xx_HAL_Driver/Src/stm32f4xx_hal_rtc_ex.c ****       return HAL_TIMEOUT;
1513:Drivers/STM32F4xx_HAL_Driver/Src/stm32f4xx_hal_rtc_ex.c ****     }
1514:Drivers/STM32F4xx_HAL_Driver/Src/stm32f4xx_hal_rtc_ex.c ****   }
1515:Drivers/STM32F4xx_HAL_Driver/Src/stm32f4xx_hal_rtc_ex.c **** 
1516:Drivers/STM32F4xx_HAL_Driver/Src/stm32f4xx_hal_rtc_ex.c ****   /* Check if the reference clock detection is disabled */
1517:Drivers/STM32F4xx_HAL_Driver/Src/stm32f4xx_hal_rtc_ex.c ****   if ((hrtc->Instance->CR & RTC_CR_REFCKON) == 0U)
 2658              		.loc 1 1517 3 is_stmt 1 view .LVU996
 2659              		.loc 1 1517 22 is_stmt 0 view .LVU997
 2660 003e 9A68     		ldr	r2, [r3, #8]
 2661              		.loc 1 1517 6 view .LVU998
 2662 0040 D106     		lsls	r1, r2, #27
 2663 0042 20D4     		bmi	.L207
1518:Drivers/STM32F4xx_HAL_Driver/Src/stm32f4xx_hal_rtc_ex.c ****   {
1519:Drivers/STM32F4xx_HAL_Driver/Src/stm32f4xx_hal_rtc_ex.c ****     /* Configure the Shift settings */
1520:Drivers/STM32F4xx_HAL_Driver/Src/stm32f4xx_hal_rtc_ex.c ****     hrtc->Instance->SHIFTR = (uint32_t)(uint32_t)(ShiftSubFS) | (uint32_t)(ShiftAdd1S);
 2664              		.loc 1 1520 5 is_stmt 1 view .LVU999
 2665              		.loc 1 1520 63 is_stmt 0 view .LVU1000
 2666 0044 47EA0807 		orr	r7, r7, r8
 2667              	.LVL180:
 2668              		.loc 1 1520 28 view .LVU1001
 2669 0048 DF62     		str	r7, [r3, #44]
1521:Drivers/STM32F4xx_HAL_Driver/Src/stm32f4xx_hal_rtc_ex.c **** 
1522:Drivers/STM32F4xx_HAL_Driver/Src/stm32f4xx_hal_rtc_ex.c ****     /* If  RTC_CR_BYPSHAD bit = 0, wait for synchro else this check is not needed */
1523:Drivers/STM32F4xx_HAL_Driver/Src/stm32f4xx_hal_rtc_ex.c ****     if ((hrtc->Instance->CR & RTC_CR_BYPSHAD) == 0U)
 2670              		.loc 1 1523 5 is_stmt 1 view .LVU1002
 2671              		.loc 1 1523 24 is_stmt 0 view .LVU1003
 2672 004a 9A68     		ldr	r2, [r3, #8]
 2673              		.loc 1 1523 8 view .LVU1004
 2674 004c 9206     		lsls	r2, r2, #26
 2675 004e 14D5     		bpl	.L218
 2676              	.L208:
1524:Drivers/STM32F4xx_HAL_Driver/Src/stm32f4xx_hal_rtc_ex.c ****     {
1525:Drivers/STM32F4xx_HAL_Driver/Src/stm32f4xx_hal_rtc_ex.c ****       if (HAL_RTC_WaitForSynchro(hrtc) != HAL_OK)
1526:Drivers/STM32F4xx_HAL_Driver/Src/stm32f4xx_hal_rtc_ex.c ****       {
1527:Drivers/STM32F4xx_HAL_Driver/Src/stm32f4xx_hal_rtc_ex.c ****         /* Enable the write protection for RTC registers */
1528:Drivers/STM32F4xx_HAL_Driver/Src/stm32f4xx_hal_rtc_ex.c ****         __HAL_RTC_WRITEPROTECTION_ENABLE(hrtc);
1529:Drivers/STM32F4xx_HAL_Driver/Src/stm32f4xx_hal_rtc_ex.c **** 
1530:Drivers/STM32F4xx_HAL_Driver/Src/stm32f4xx_hal_rtc_ex.c ****         hrtc->State = HAL_RTC_STATE_ERROR;
1531:Drivers/STM32F4xx_HAL_Driver/Src/stm32f4xx_hal_rtc_ex.c **** 
1532:Drivers/STM32F4xx_HAL_Driver/Src/stm32f4xx_hal_rtc_ex.c ****         /* Process Unlocked */
1533:Drivers/STM32F4xx_HAL_Driver/Src/stm32f4xx_hal_rtc_ex.c ****         __HAL_UNLOCK(hrtc);
1534:Drivers/STM32F4xx_HAL_Driver/Src/stm32f4xx_hal_rtc_ex.c **** 
1535:Drivers/STM32F4xx_HAL_Driver/Src/stm32f4xx_hal_rtc_ex.c ****         return HAL_ERROR;
1536:Drivers/STM32F4xx_HAL_Driver/Src/stm32f4xx_hal_rtc_ex.c ****       }
1537:Drivers/STM32F4xx_HAL_Driver/Src/stm32f4xx_hal_rtc_ex.c ****     }
1538:Drivers/STM32F4xx_HAL_Driver/Src/stm32f4xx_hal_rtc_ex.c ****   }
1539:Drivers/STM32F4xx_HAL_Driver/Src/stm32f4xx_hal_rtc_ex.c ****   else
1540:Drivers/STM32F4xx_HAL_Driver/Src/stm32f4xx_hal_rtc_ex.c ****   {
1541:Drivers/STM32F4xx_HAL_Driver/Src/stm32f4xx_hal_rtc_ex.c ****     /* Enable the write protection for RTC registers */
1542:Drivers/STM32F4xx_HAL_Driver/Src/stm32f4xx_hal_rtc_ex.c ****     __HAL_RTC_WRITEPROTECTION_ENABLE(hrtc);
1543:Drivers/STM32F4xx_HAL_Driver/Src/stm32f4xx_hal_rtc_ex.c **** 
1544:Drivers/STM32F4xx_HAL_Driver/Src/stm32f4xx_hal_rtc_ex.c ****     /* Change RTC state */
1545:Drivers/STM32F4xx_HAL_Driver/Src/stm32f4xx_hal_rtc_ex.c ****     hrtc->State = HAL_RTC_STATE_ERROR;
1546:Drivers/STM32F4xx_HAL_Driver/Src/stm32f4xx_hal_rtc_ex.c **** 
1547:Drivers/STM32F4xx_HAL_Driver/Src/stm32f4xx_hal_rtc_ex.c ****     /* Process Unlocked */
ARM GAS  C:\Users\Konrad\AppData\Local\Temp\ccbXyGXO.s 			page 82


1548:Drivers/STM32F4xx_HAL_Driver/Src/stm32f4xx_hal_rtc_ex.c ****     __HAL_UNLOCK(hrtc);
1549:Drivers/STM32F4xx_HAL_Driver/Src/stm32f4xx_hal_rtc_ex.c **** 
1550:Drivers/STM32F4xx_HAL_Driver/Src/stm32f4xx_hal_rtc_ex.c ****     return HAL_ERROR;
1551:Drivers/STM32F4xx_HAL_Driver/Src/stm32f4xx_hal_rtc_ex.c ****   }
1552:Drivers/STM32F4xx_HAL_Driver/Src/stm32f4xx_hal_rtc_ex.c **** 
1553:Drivers/STM32F4xx_HAL_Driver/Src/stm32f4xx_hal_rtc_ex.c ****   /* Enable the write protection for RTC registers */
1554:Drivers/STM32F4xx_HAL_Driver/Src/stm32f4xx_hal_rtc_ex.c ****   __HAL_RTC_WRITEPROTECTION_ENABLE(hrtc);
 2677              		.loc 1 1554 3 is_stmt 1 view .LVU1005
 2678              		.loc 1 1554 3 view .LVU1006
1555:Drivers/STM32F4xx_HAL_Driver/Src/stm32f4xx_hal_rtc_ex.c **** 
1556:Drivers/STM32F4xx_HAL_Driver/Src/stm32f4xx_hal_rtc_ex.c ****   /* Change RTC state */
1557:Drivers/STM32F4xx_HAL_Driver/Src/stm32f4xx_hal_rtc_ex.c ****   hrtc->State = HAL_RTC_STATE_READY;
1558:Drivers/STM32F4xx_HAL_Driver/Src/stm32f4xx_hal_rtc_ex.c **** 
1559:Drivers/STM32F4xx_HAL_Driver/Src/stm32f4xx_hal_rtc_ex.c ****   /* Process Unlocked */
1560:Drivers/STM32F4xx_HAL_Driver/Src/stm32f4xx_hal_rtc_ex.c ****   __HAL_UNLOCK(hrtc);
 2679              		.loc 1 1560 3 is_stmt 0 view .LVU1007
 2680 0050 0022     		movs	r2, #0
1554:Drivers/STM32F4xx_HAL_Driver/Src/stm32f4xx_hal_rtc_ex.c **** 
 2681              		.loc 1 1554 3 view .LVU1008
 2682 0052 FF20     		movs	r0, #255
1557:Drivers/STM32F4xx_HAL_Driver/Src/stm32f4xx_hal_rtc_ex.c **** 
 2683              		.loc 1 1557 15 view .LVU1009
 2684 0054 0121     		movs	r1, #1
1554:Drivers/STM32F4xx_HAL_Driver/Src/stm32f4xx_hal_rtc_ex.c **** 
 2685              		.loc 1 1554 3 view .LVU1010
 2686 0056 5862     		str	r0, [r3, #36]
1554:Drivers/STM32F4xx_HAL_Driver/Src/stm32f4xx_hal_rtc_ex.c **** 
 2687              		.loc 1 1554 3 is_stmt 1 view .LVU1011
1557:Drivers/STM32F4xx_HAL_Driver/Src/stm32f4xx_hal_rtc_ex.c **** 
 2688              		.loc 1 1557 3 view .LVU1012
1557:Drivers/STM32F4xx_HAL_Driver/Src/stm32f4xx_hal_rtc_ex.c **** 
 2689              		.loc 1 1557 15 is_stmt 0 view .LVU1013
 2690 0058 6177     		strb	r1, [r4, #29]
 2691              		.loc 1 1560 3 is_stmt 1 view .LVU1014
 2692              		.loc 1 1560 3 view .LVU1015
 2693 005a 2277     		strb	r2, [r4, #28]
 2694              		.loc 1 1560 3 view .LVU1016
1561:Drivers/STM32F4xx_HAL_Driver/Src/stm32f4xx_hal_rtc_ex.c **** 
1562:Drivers/STM32F4xx_HAL_Driver/Src/stm32f4xx_hal_rtc_ex.c ****   return HAL_OK;
 2695              		.loc 1 1562 3 view .LVU1017
 2696              		.loc 1 1562 10 is_stmt 0 view .LVU1018
 2697 005c 1046     		mov	r0, r2
1563:Drivers/STM32F4xx_HAL_Driver/Src/stm32f4xx_hal_rtc_ex.c **** }
 2698              		.loc 1 1563 1 view .LVU1019
 2699 005e BDE8F081 		pop	{r4, r5, r6, r7, r8, pc}
 2700              	.LVL181:
 2701              	.L217:
1505:Drivers/STM32F4xx_HAL_Driver/Src/stm32f4xx_hal_rtc_ex.c **** 
 2702              		.loc 1 1505 7 is_stmt 1 view .LVU1020
1505:Drivers/STM32F4xx_HAL_Driver/Src/stm32f4xx_hal_rtc_ex.c **** 
 2703              		.loc 1 1505 7 view .LVU1021
 2704 0062 2168     		ldr	r1, [r4]
1507:Drivers/STM32F4xx_HAL_Driver/Src/stm32f4xx_hal_rtc_ex.c **** 
 2705              		.loc 1 1507 19 is_stmt 0 view .LVU1022
 2706 0064 0323     		movs	r3, #3
1505:Drivers/STM32F4xx_HAL_Driver/Src/stm32f4xx_hal_rtc_ex.c **** 
 2707              		.loc 1 1505 7 view .LVU1023
ARM GAS  C:\Users\Konrad\AppData\Local\Temp\ccbXyGXO.s 			page 83


 2708 0066 FF20     		movs	r0, #255
1510:Drivers/STM32F4xx_HAL_Driver/Src/stm32f4xx_hal_rtc_ex.c **** 
 2709              		.loc 1 1510 7 view .LVU1024
 2710 0068 0022     		movs	r2, #0
1505:Drivers/STM32F4xx_HAL_Driver/Src/stm32f4xx_hal_rtc_ex.c **** 
 2711              		.loc 1 1505 7 view .LVU1025
 2712 006a 4862     		str	r0, [r1, #36]
1505:Drivers/STM32F4xx_HAL_Driver/Src/stm32f4xx_hal_rtc_ex.c **** 
 2713              		.loc 1 1505 7 is_stmt 1 view .LVU1026
1507:Drivers/STM32F4xx_HAL_Driver/Src/stm32f4xx_hal_rtc_ex.c **** 
 2714              		.loc 1 1507 7 view .LVU1027
1507:Drivers/STM32F4xx_HAL_Driver/Src/stm32f4xx_hal_rtc_ex.c **** 
 2715              		.loc 1 1507 19 is_stmt 0 view .LVU1028
 2716 006c 6377     		strb	r3, [r4, #29]
1510:Drivers/STM32F4xx_HAL_Driver/Src/stm32f4xx_hal_rtc_ex.c **** 
 2717              		.loc 1 1510 7 is_stmt 1 view .LVU1029
1510:Drivers/STM32F4xx_HAL_Driver/Src/stm32f4xx_hal_rtc_ex.c **** 
 2718              		.loc 1 1510 7 view .LVU1030
 2719 006e 2277     		strb	r2, [r4, #28]
1510:Drivers/STM32F4xx_HAL_Driver/Src/stm32f4xx_hal_rtc_ex.c **** 
 2720              		.loc 1 1510 7 view .LVU1031
1512:Drivers/STM32F4xx_HAL_Driver/Src/stm32f4xx_hal_rtc_ex.c ****     }
 2721              		.loc 1 1512 7 view .LVU1032
1512:Drivers/STM32F4xx_HAL_Driver/Src/stm32f4xx_hal_rtc_ex.c ****     }
 2722              		.loc 1 1512 14 is_stmt 0 view .LVU1033
 2723 0070 1846     		mov	r0, r3
 2724              		.loc 1 1563 1 view .LVU1034
 2725 0072 BDE8F081 		pop	{r4, r5, r6, r7, r8, pc}
 2726              	.LVL182:
 2727              	.L211:
 2728              		.cfi_def_cfa_offset 0
 2729              		.cfi_restore 4
 2730              		.cfi_restore 5
 2731              		.cfi_restore 6
 2732              		.cfi_restore 7
 2733              		.cfi_restore 8
 2734              		.cfi_restore 14
1489:Drivers/STM32F4xx_HAL_Driver/Src/stm32f4xx_hal_rtc_ex.c **** 
 2735              		.loc 1 1489 3 discriminator 1 view .LVU1035
 2736 0076 0220     		movs	r0, #2
 2737              	.LVL183:
 2738              		.loc 1 1563 1 view .LVU1036
 2739 0078 7047     		bx	lr
 2740              	.LVL184:
 2741              	.L218:
 2742              		.cfi_def_cfa_offset 24
 2743              		.cfi_offset 4, -24
 2744              		.cfi_offset 5, -20
 2745              		.cfi_offset 6, -16
 2746              		.cfi_offset 7, -12
 2747              		.cfi_offset 8, -8
 2748              		.cfi_offset 14, -4
1525:Drivers/STM32F4xx_HAL_Driver/Src/stm32f4xx_hal_rtc_ex.c ****       {
 2749              		.loc 1 1525 7 is_stmt 1 view .LVU1037
1525:Drivers/STM32F4xx_HAL_Driver/Src/stm32f4xx_hal_rtc_ex.c ****       {
 2750              		.loc 1 1525 11 is_stmt 0 view .LVU1038
 2751 007a 2046     		mov	r0, r4
ARM GAS  C:\Users\Konrad\AppData\Local\Temp\ccbXyGXO.s 			page 84


 2752 007c FFF7FEFF 		bl	HAL_RTC_WaitForSynchro
 2753              	.LVL185:
1525:Drivers/STM32F4xx_HAL_Driver/Src/stm32f4xx_hal_rtc_ex.c ****       {
 2754              		.loc 1 1525 10 discriminator 1 view .LVU1039
 2755 0080 50B9     		cbnz	r0, .L209
1528:Drivers/STM32F4xx_HAL_Driver/Src/stm32f4xx_hal_rtc_ex.c **** 
 2756              		.loc 1 1528 9 view .LVU1040
 2757 0082 2368     		ldr	r3, [r4]
 2758 0084 E4E7     		b	.L208
 2759              	.LVL186:
 2760              	.L207:
1542:Drivers/STM32F4xx_HAL_Driver/Src/stm32f4xx_hal_rtc_ex.c **** 
 2761              		.loc 1 1542 5 is_stmt 1 view .LVU1041
1542:Drivers/STM32F4xx_HAL_Driver/Src/stm32f4xx_hal_rtc_ex.c **** 
 2762              		.loc 1 1542 5 view .LVU1042
 2763 0086 FF21     		movs	r1, #255
1545:Drivers/STM32F4xx_HAL_Driver/Src/stm32f4xx_hal_rtc_ex.c **** 
 2764              		.loc 1 1545 17 is_stmt 0 view .LVU1043
 2765 0088 0422     		movs	r2, #4
1542:Drivers/STM32F4xx_HAL_Driver/Src/stm32f4xx_hal_rtc_ex.c **** 
 2766              		.loc 1 1542 5 view .LVU1044
 2767 008a 5962     		str	r1, [r3, #36]
1542:Drivers/STM32F4xx_HAL_Driver/Src/stm32f4xx_hal_rtc_ex.c **** 
 2768              		.loc 1 1542 5 is_stmt 1 view .LVU1045
1545:Drivers/STM32F4xx_HAL_Driver/Src/stm32f4xx_hal_rtc_ex.c **** 
 2769              		.loc 1 1545 5 view .LVU1046
1545:Drivers/STM32F4xx_HAL_Driver/Src/stm32f4xx_hal_rtc_ex.c **** 
 2770              		.loc 1 1545 17 is_stmt 0 view .LVU1047
 2771 008c 6277     		strb	r2, [r4, #29]
1548:Drivers/STM32F4xx_HAL_Driver/Src/stm32f4xx_hal_rtc_ex.c **** 
 2772              		.loc 1 1548 5 is_stmt 1 view .LVU1048
1548:Drivers/STM32F4xx_HAL_Driver/Src/stm32f4xx_hal_rtc_ex.c **** 
 2773              		.loc 1 1548 5 view .LVU1049
1548:Drivers/STM32F4xx_HAL_Driver/Src/stm32f4xx_hal_rtc_ex.c **** 
 2774              		.loc 1 1548 5 view .LVU1050
1550:Drivers/STM32F4xx_HAL_Driver/Src/stm32f4xx_hal_rtc_ex.c ****   }
 2775              		.loc 1 1550 5 view .LVU1051
 2776              	.LVL187:
 2777              	.L210:
1548:Drivers/STM32F4xx_HAL_Driver/Src/stm32f4xx_hal_rtc_ex.c **** 
 2778              		.loc 1 1548 5 is_stmt 0 view .LVU1052
 2779 008e 0023     		movs	r3, #0
 2780 0090 2377     		strb	r3, [r4, #28]
1535:Drivers/STM32F4xx_HAL_Driver/Src/stm32f4xx_hal_rtc_ex.c ****       }
 2781              		.loc 1 1535 16 view .LVU1053
 2782 0092 0120     		movs	r0, #1
 2783              		.loc 1 1563 1 view .LVU1054
 2784 0094 BDE8F081 		pop	{r4, r5, r6, r7, r8, pc}
 2785              	.LVL188:
 2786              	.L209:
1528:Drivers/STM32F4xx_HAL_Driver/Src/stm32f4xx_hal_rtc_ex.c **** 
 2787              		.loc 1 1528 9 is_stmt 1 view .LVU1055
1528:Drivers/STM32F4xx_HAL_Driver/Src/stm32f4xx_hal_rtc_ex.c **** 
 2788              		.loc 1 1528 9 view .LVU1056
 2789 0098 2268     		ldr	r2, [r4]
 2790 009a FF21     		movs	r1, #255
1530:Drivers/STM32F4xx_HAL_Driver/Src/stm32f4xx_hal_rtc_ex.c **** 
ARM GAS  C:\Users\Konrad\AppData\Local\Temp\ccbXyGXO.s 			page 85


 2791              		.loc 1 1530 21 is_stmt 0 view .LVU1057
 2792 009c 0423     		movs	r3, #4
1528:Drivers/STM32F4xx_HAL_Driver/Src/stm32f4xx_hal_rtc_ex.c **** 
 2793              		.loc 1 1528 9 view .LVU1058
 2794 009e 5162     		str	r1, [r2, #36]
1528:Drivers/STM32F4xx_HAL_Driver/Src/stm32f4xx_hal_rtc_ex.c **** 
 2795              		.loc 1 1528 9 is_stmt 1 view .LVU1059
1530:Drivers/STM32F4xx_HAL_Driver/Src/stm32f4xx_hal_rtc_ex.c **** 
 2796              		.loc 1 1530 9 view .LVU1060
1530:Drivers/STM32F4xx_HAL_Driver/Src/stm32f4xx_hal_rtc_ex.c **** 
 2797              		.loc 1 1530 21 is_stmt 0 view .LVU1061
 2798 00a0 6377     		strb	r3, [r4, #29]
1533:Drivers/STM32F4xx_HAL_Driver/Src/stm32f4xx_hal_rtc_ex.c **** 
 2799              		.loc 1 1533 9 is_stmt 1 view .LVU1062
1533:Drivers/STM32F4xx_HAL_Driver/Src/stm32f4xx_hal_rtc_ex.c **** 
 2800              		.loc 1 1533 9 view .LVU1063
1533:Drivers/STM32F4xx_HAL_Driver/Src/stm32f4xx_hal_rtc_ex.c **** 
 2801              		.loc 1 1533 9 view .LVU1064
1535:Drivers/STM32F4xx_HAL_Driver/Src/stm32f4xx_hal_rtc_ex.c ****       }
 2802              		.loc 1 1535 9 view .LVU1065
1535:Drivers/STM32F4xx_HAL_Driver/Src/stm32f4xx_hal_rtc_ex.c ****       }
 2803              		.loc 1 1535 16 is_stmt 0 view .LVU1066
 2804 00a2 F4E7     		b	.L210
 2805              		.cfi_endproc
 2806              	.LFE240:
 2808              		.section	.text.HAL_RTCEx_SetCalibrationOutPut,"ax",%progbits
 2809              		.align	1
 2810              		.p2align 2,,3
 2811              		.global	HAL_RTCEx_SetCalibrationOutPut
 2812              		.syntax unified
 2813              		.thumb
 2814              		.thumb_func
 2816              	HAL_RTCEx_SetCalibrationOutPut:
 2817              	.LVL189:
 2818              	.LFB241:
1564:Drivers/STM32F4xx_HAL_Driver/Src/stm32f4xx_hal_rtc_ex.c **** 
1565:Drivers/STM32F4xx_HAL_Driver/Src/stm32f4xx_hal_rtc_ex.c **** /**
1566:Drivers/STM32F4xx_HAL_Driver/Src/stm32f4xx_hal_rtc_ex.c ****   * @brief  Configures the Calibration Pinout (RTC_CALIB) Selection (1Hz or 512Hz).
1567:Drivers/STM32F4xx_HAL_Driver/Src/stm32f4xx_hal_rtc_ex.c ****   * @param  hrtc pointer to a RTC_HandleTypeDef structure that contains
1568:Drivers/STM32F4xx_HAL_Driver/Src/stm32f4xx_hal_rtc_ex.c ****   *                the configuration information for RTC.
1569:Drivers/STM32F4xx_HAL_Driver/Src/stm32f4xx_hal_rtc_ex.c ****   * @param  CalibOutput Select the Calibration output Selection.
1570:Drivers/STM32F4xx_HAL_Driver/Src/stm32f4xx_hal_rtc_ex.c ****   *          This parameter can be one of the following values:
1571:Drivers/STM32F4xx_HAL_Driver/Src/stm32f4xx_hal_rtc_ex.c ****   *             @arg RTC_CALIBOUTPUT_512HZ: A signal has a regular waveform at 512Hz.
1572:Drivers/STM32F4xx_HAL_Driver/Src/stm32f4xx_hal_rtc_ex.c ****   *             @arg RTC_CALIBOUTPUT_1HZ: A signal has a regular waveform at 1Hz.
1573:Drivers/STM32F4xx_HAL_Driver/Src/stm32f4xx_hal_rtc_ex.c ****   * @retval HAL status
1574:Drivers/STM32F4xx_HAL_Driver/Src/stm32f4xx_hal_rtc_ex.c ****   */
1575:Drivers/STM32F4xx_HAL_Driver/Src/stm32f4xx_hal_rtc_ex.c **** HAL_StatusTypeDef HAL_RTCEx_SetCalibrationOutPut(RTC_HandleTypeDef *hrtc, uint32_t CalibOutput)
1576:Drivers/STM32F4xx_HAL_Driver/Src/stm32f4xx_hal_rtc_ex.c **** {
 2819              		.loc 1 1576 1 is_stmt 1 view -0
 2820              		.cfi_startproc
 2821              		@ args = 0, pretend = 0, frame = 0
 2822              		@ frame_needed = 0, uses_anonymous_args = 0
 2823              		@ link register save eliminated.
1577:Drivers/STM32F4xx_HAL_Driver/Src/stm32f4xx_hal_rtc_ex.c ****   /* Check the parameters */
1578:Drivers/STM32F4xx_HAL_Driver/Src/stm32f4xx_hal_rtc_ex.c ****   assert_param(IS_RTC_CALIB_OUTPUT(CalibOutput));
 2824              		.loc 1 1578 3 view .LVU1068
1579:Drivers/STM32F4xx_HAL_Driver/Src/stm32f4xx_hal_rtc_ex.c **** 
ARM GAS  C:\Users\Konrad\AppData\Local\Temp\ccbXyGXO.s 			page 86


1580:Drivers/STM32F4xx_HAL_Driver/Src/stm32f4xx_hal_rtc_ex.c ****   /* Process Locked */
1581:Drivers/STM32F4xx_HAL_Driver/Src/stm32f4xx_hal_rtc_ex.c ****   __HAL_LOCK(hrtc);
 2825              		.loc 1 1581 3 view .LVU1069
 2826              		.loc 1 1581 3 view .LVU1070
 2827 0000 037F     		ldrb	r3, [r0, #28]	@ zero_extendqisi2
 2828 0002 012B     		cmp	r3, #1
 2829 0004 1CD0     		beq	.L221
1582:Drivers/STM32F4xx_HAL_Driver/Src/stm32f4xx_hal_rtc_ex.c **** 
1583:Drivers/STM32F4xx_HAL_Driver/Src/stm32f4xx_hal_rtc_ex.c ****   hrtc->State = HAL_RTC_STATE_BUSY;
1584:Drivers/STM32F4xx_HAL_Driver/Src/stm32f4xx_hal_rtc_ex.c **** 
1585:Drivers/STM32F4xx_HAL_Driver/Src/stm32f4xx_hal_rtc_ex.c ****   /* Disable the write protection for RTC registers */
1586:Drivers/STM32F4xx_HAL_Driver/Src/stm32f4xx_hal_rtc_ex.c ****   __HAL_RTC_WRITEPROTECTION_DISABLE(hrtc);
 2830              		.loc 1 1586 3 is_stmt 0 view .LVU1071
 2831 0006 0368     		ldr	r3, [r0]
 2832 0008 0246     		mov	r2, r0
1581:Drivers/STM32F4xx_HAL_Driver/Src/stm32f4xx_hal_rtc_ex.c **** 
 2833              		.loc 1 1581 3 is_stmt 1 discriminator 2 view .LVU1072
1581:Drivers/STM32F4xx_HAL_Driver/Src/stm32f4xx_hal_rtc_ex.c **** 
 2834              		.loc 1 1581 3 discriminator 2 view .LVU1073
1583:Drivers/STM32F4xx_HAL_Driver/Src/stm32f4xx_hal_rtc_ex.c **** 
 2835              		.loc 1 1583 3 view .LVU1074
1576:Drivers/STM32F4xx_HAL_Driver/Src/stm32f4xx_hal_rtc_ex.c ****   /* Check the parameters */
 2836              		.loc 1 1576 1 is_stmt 0 view .LVU1075
 2837 000a 10B4     		push	{r4}
 2838              		.cfi_def_cfa_offset 4
 2839              		.cfi_offset 4, -4
 2840              		.loc 1 1586 3 view .LVU1076
 2841 000c CA20     		movs	r0, #202
 2842              	.LVL190:
1583:Drivers/STM32F4xx_HAL_Driver/Src/stm32f4xx_hal_rtc_ex.c **** 
 2843              		.loc 1 1583 15 view .LVU1077
 2844 000e 0224     		movs	r4, #2
 2845 0010 5477     		strb	r4, [r2, #29]
 2846              		.loc 1 1586 3 is_stmt 1 view .LVU1078
 2847              		.loc 1 1586 3 view .LVU1079
 2848 0012 5862     		str	r0, [r3, #36]
 2849              		.loc 1 1586 3 view .LVU1080
 2850 0014 5320     		movs	r0, #83
 2851 0016 5862     		str	r0, [r3, #36]
 2852              		.loc 1 1586 3 view .LVU1081
1587:Drivers/STM32F4xx_HAL_Driver/Src/stm32f4xx_hal_rtc_ex.c **** 
1588:Drivers/STM32F4xx_HAL_Driver/Src/stm32f4xx_hal_rtc_ex.c ****   /* Clear flags before config */
1589:Drivers/STM32F4xx_HAL_Driver/Src/stm32f4xx_hal_rtc_ex.c ****   hrtc->Instance->CR &= (uint32_t)~RTC_CR_COSEL;
 2853              		.loc 1 1589 3 view .LVU1082
 2854              		.loc 1 1589 17 is_stmt 0 view .LVU1083
 2855 0018 9C68     		ldr	r4, [r3, #8]
 2856              		.loc 1 1589 22 view .LVU1084
 2857 001a 24F40024 		bic	r4, r4, #524288
 2858 001e 9C60     		str	r4, [r3, #8]
1590:Drivers/STM32F4xx_HAL_Driver/Src/stm32f4xx_hal_rtc_ex.c **** 
1591:Drivers/STM32F4xx_HAL_Driver/Src/stm32f4xx_hal_rtc_ex.c ****   /* Configure the RTC_CR register */
1592:Drivers/STM32F4xx_HAL_Driver/Src/stm32f4xx_hal_rtc_ex.c ****   hrtc->Instance->CR |= (uint32_t)CalibOutput;
 2859              		.loc 1 1592 3 is_stmt 1 view .LVU1085
 2860              		.loc 1 1592 17 is_stmt 0 view .LVU1086
 2861 0020 9C68     		ldr	r4, [r3, #8]
 2862              		.loc 1 1592 22 view .LVU1087
 2863 0022 2143     		orrs	r1, r1, r4
ARM GAS  C:\Users\Konrad\AppData\Local\Temp\ccbXyGXO.s 			page 87


 2864              	.LVL191:
 2865              		.loc 1 1592 22 view .LVU1088
 2866 0024 9960     		str	r1, [r3, #8]
1593:Drivers/STM32F4xx_HAL_Driver/Src/stm32f4xx_hal_rtc_ex.c **** 
1594:Drivers/STM32F4xx_HAL_Driver/Src/stm32f4xx_hal_rtc_ex.c ****   __HAL_RTC_CALIBRATION_OUTPUT_ENABLE(hrtc);
 2867              		.loc 1 1594 3 is_stmt 1 view .LVU1089
 2868 0026 9968     		ldr	r1, [r3, #8]
1595:Drivers/STM32F4xx_HAL_Driver/Src/stm32f4xx_hal_rtc_ex.c **** 
1596:Drivers/STM32F4xx_HAL_Driver/Src/stm32f4xx_hal_rtc_ex.c ****   /* Enable the write protection for RTC registers */
1597:Drivers/STM32F4xx_HAL_Driver/Src/stm32f4xx_hal_rtc_ex.c ****   __HAL_RTC_WRITEPROTECTION_ENABLE(hrtc);
 2869              		.loc 1 1597 3 is_stmt 0 view .LVU1090
 2870 0028 FF24     		movs	r4, #255
1594:Drivers/STM32F4xx_HAL_Driver/Src/stm32f4xx_hal_rtc_ex.c **** 
 2871              		.loc 1 1594 3 view .LVU1091
 2872 002a 41F40001 		orr	r1, r1, #8388608
 2873 002e 9960     		str	r1, [r3, #8]
 2874              		.loc 1 1597 3 is_stmt 1 view .LVU1092
 2875              		.loc 1 1597 3 view .LVU1093
1598:Drivers/STM32F4xx_HAL_Driver/Src/stm32f4xx_hal_rtc_ex.c **** 
1599:Drivers/STM32F4xx_HAL_Driver/Src/stm32f4xx_hal_rtc_ex.c ****   /* Change RTC state */
1600:Drivers/STM32F4xx_HAL_Driver/Src/stm32f4xx_hal_rtc_ex.c ****   hrtc->State = HAL_RTC_STATE_READY;
1601:Drivers/STM32F4xx_HAL_Driver/Src/stm32f4xx_hal_rtc_ex.c **** 
1602:Drivers/STM32F4xx_HAL_Driver/Src/stm32f4xx_hal_rtc_ex.c ****   /* Process Unlocked */
1603:Drivers/STM32F4xx_HAL_Driver/Src/stm32f4xx_hal_rtc_ex.c ****   __HAL_UNLOCK(hrtc);
 2876              		.loc 1 1603 3 is_stmt 0 view .LVU1094
 2877 0030 0020     		movs	r0, #0
1597:Drivers/STM32F4xx_HAL_Driver/Src/stm32f4xx_hal_rtc_ex.c **** 
 2878              		.loc 1 1597 3 view .LVU1095
 2879 0032 5C62     		str	r4, [r3, #36]
1597:Drivers/STM32F4xx_HAL_Driver/Src/stm32f4xx_hal_rtc_ex.c **** 
 2880              		.loc 1 1597 3 is_stmt 1 view .LVU1096
1600:Drivers/STM32F4xx_HAL_Driver/Src/stm32f4xx_hal_rtc_ex.c **** 
 2881              		.loc 1 1600 3 view .LVU1097
1600:Drivers/STM32F4xx_HAL_Driver/Src/stm32f4xx_hal_rtc_ex.c **** 
 2882              		.loc 1 1600 15 is_stmt 0 view .LVU1098
 2883 0034 0123     		movs	r3, #1
 2884 0036 5377     		strb	r3, [r2, #29]
 2885              		.loc 1 1603 3 is_stmt 1 view .LVU1099
 2886              		.loc 1 1603 3 view .LVU1100
 2887 0038 1077     		strb	r0, [r2, #28]
 2888              		.loc 1 1603 3 view .LVU1101
1604:Drivers/STM32F4xx_HAL_Driver/Src/stm32f4xx_hal_rtc_ex.c **** 
1605:Drivers/STM32F4xx_HAL_Driver/Src/stm32f4xx_hal_rtc_ex.c ****   return HAL_OK;
 2889              		.loc 1 1605 3 view .LVU1102
1606:Drivers/STM32F4xx_HAL_Driver/Src/stm32f4xx_hal_rtc_ex.c **** }
 2890              		.loc 1 1606 1 is_stmt 0 view .LVU1103
 2891 003a 5DF8044B 		ldr	r4, [sp], #4
 2892              		.cfi_restore 4
 2893              		.cfi_def_cfa_offset 0
 2894 003e 7047     		bx	lr
 2895              	.LVL192:
 2896              	.L221:
1581:Drivers/STM32F4xx_HAL_Driver/Src/stm32f4xx_hal_rtc_ex.c **** 
 2897              		.loc 1 1581 3 discriminator 1 view .LVU1104
 2898 0040 0220     		movs	r0, #2
 2899              	.LVL193:
 2900              		.loc 1 1606 1 view .LVU1105
ARM GAS  C:\Users\Konrad\AppData\Local\Temp\ccbXyGXO.s 			page 88


 2901 0042 7047     		bx	lr
 2902              		.cfi_endproc
 2903              	.LFE241:
 2905              		.section	.text.HAL_RTCEx_DeactivateCalibrationOutPut,"ax",%progbits
 2906              		.align	1
 2907              		.p2align 2,,3
 2908              		.global	HAL_RTCEx_DeactivateCalibrationOutPut
 2909              		.syntax unified
 2910              		.thumb
 2911              		.thumb_func
 2913              	HAL_RTCEx_DeactivateCalibrationOutPut:
 2914              	.LVL194:
 2915              	.LFB242:
1607:Drivers/STM32F4xx_HAL_Driver/Src/stm32f4xx_hal_rtc_ex.c **** 
1608:Drivers/STM32F4xx_HAL_Driver/Src/stm32f4xx_hal_rtc_ex.c **** /**
1609:Drivers/STM32F4xx_HAL_Driver/Src/stm32f4xx_hal_rtc_ex.c ****   * @brief  Deactivates the Calibration Pinout (RTC_CALIB) Selection (1Hz or 512Hz).
1610:Drivers/STM32F4xx_HAL_Driver/Src/stm32f4xx_hal_rtc_ex.c ****   * @param  hrtc pointer to a RTC_HandleTypeDef structure that contains
1611:Drivers/STM32F4xx_HAL_Driver/Src/stm32f4xx_hal_rtc_ex.c ****   *                the configuration information for RTC.
1612:Drivers/STM32F4xx_HAL_Driver/Src/stm32f4xx_hal_rtc_ex.c ****   * @retval HAL status
1613:Drivers/STM32F4xx_HAL_Driver/Src/stm32f4xx_hal_rtc_ex.c ****   */
1614:Drivers/STM32F4xx_HAL_Driver/Src/stm32f4xx_hal_rtc_ex.c **** HAL_StatusTypeDef HAL_RTCEx_DeactivateCalibrationOutPut(RTC_HandleTypeDef *hrtc)
1615:Drivers/STM32F4xx_HAL_Driver/Src/stm32f4xx_hal_rtc_ex.c **** {
 2916              		.loc 1 1615 1 is_stmt 1 view -0
 2917              		.cfi_startproc
 2918              		@ args = 0, pretend = 0, frame = 0
 2919              		@ frame_needed = 0, uses_anonymous_args = 0
 2920              		@ link register save eliminated.
1616:Drivers/STM32F4xx_HAL_Driver/Src/stm32f4xx_hal_rtc_ex.c ****   /* Process Locked */
1617:Drivers/STM32F4xx_HAL_Driver/Src/stm32f4xx_hal_rtc_ex.c ****   __HAL_LOCK(hrtc);
 2921              		.loc 1 1617 3 view .LVU1107
 2922              		.loc 1 1617 3 view .LVU1108
 2923 0000 027F     		ldrb	r2, [r0, #28]	@ zero_extendqisi2
 2924 0002 012A     		cmp	r2, #1
1615:Drivers/STM32F4xx_HAL_Driver/Src/stm32f4xx_hal_rtc_ex.c ****   /* Process Locked */
 2925              		.loc 1 1615 1 is_stmt 0 view .LVU1109
 2926 0004 0346     		mov	r3, r0
 2927              		.loc 1 1617 3 view .LVU1110
 2928 0006 16D0     		beq	.L228
 2929              		.loc 1 1617 3 is_stmt 1 discriminator 2 view .LVU1111
 2930              		.loc 1 1617 3 discriminator 2 view .LVU1112
1618:Drivers/STM32F4xx_HAL_Driver/Src/stm32f4xx_hal_rtc_ex.c **** 
1619:Drivers/STM32F4xx_HAL_Driver/Src/stm32f4xx_hal_rtc_ex.c ****   hrtc->State = HAL_RTC_STATE_BUSY;
 2931              		.loc 1 1619 3 view .LVU1113
1620:Drivers/STM32F4xx_HAL_Driver/Src/stm32f4xx_hal_rtc_ex.c **** 
1621:Drivers/STM32F4xx_HAL_Driver/Src/stm32f4xx_hal_rtc_ex.c ****   /* Disable the write protection for RTC registers */
1622:Drivers/STM32F4xx_HAL_Driver/Src/stm32f4xx_hal_rtc_ex.c ****   __HAL_RTC_WRITEPROTECTION_DISABLE(hrtc);
 2932              		.loc 1 1622 3 is_stmt 0 view .LVU1114
 2933 0008 0268     		ldr	r2, [r0]
1619:Drivers/STM32F4xx_HAL_Driver/Src/stm32f4xx_hal_rtc_ex.c **** 
 2934              		.loc 1 1619 15 view .LVU1115
 2935 000a 4FF0020C 		mov	ip, #2
 2936              		.loc 1 1622 3 view .LVU1116
 2937 000e CA20     		movs	r0, #202
 2938              	.LVL195:
 2939              		.loc 1 1622 3 view .LVU1117
 2940 0010 5321     		movs	r1, #83
1619:Drivers/STM32F4xx_HAL_Driver/Src/stm32f4xx_hal_rtc_ex.c **** 
ARM GAS  C:\Users\Konrad\AppData\Local\Temp\ccbXyGXO.s 			page 89


 2941              		.loc 1 1619 15 view .LVU1118
 2942 0012 83F81DC0 		strb	ip, [r3, #29]
 2943              		.loc 1 1622 3 is_stmt 1 view .LVU1119
 2944              		.loc 1 1622 3 view .LVU1120
 2945 0016 5062     		str	r0, [r2, #36]
 2946              		.loc 1 1622 3 view .LVU1121
 2947 0018 5162     		str	r1, [r2, #36]
 2948              		.loc 1 1622 3 view .LVU1122
1623:Drivers/STM32F4xx_HAL_Driver/Src/stm32f4xx_hal_rtc_ex.c **** 
1624:Drivers/STM32F4xx_HAL_Driver/Src/stm32f4xx_hal_rtc_ex.c ****   __HAL_RTC_CALIBRATION_OUTPUT_DISABLE(hrtc);
 2949              		.loc 1 1624 3 view .LVU1123
 2950 001a 9168     		ldr	r1, [r2, #8]
 2951 001c 21F40001 		bic	r1, r1, #8388608
 2952 0020 9160     		str	r1, [r2, #8]
1625:Drivers/STM32F4xx_HAL_Driver/Src/stm32f4xx_hal_rtc_ex.c **** 
1626:Drivers/STM32F4xx_HAL_Driver/Src/stm32f4xx_hal_rtc_ex.c ****   /* Enable the write protection for RTC registers */
1627:Drivers/STM32F4xx_HAL_Driver/Src/stm32f4xx_hal_rtc_ex.c ****   __HAL_RTC_WRITEPROTECTION_ENABLE(hrtc);
 2953              		.loc 1 1627 3 view .LVU1124
 2954              		.loc 1 1627 3 view .LVU1125
1628:Drivers/STM32F4xx_HAL_Driver/Src/stm32f4xx_hal_rtc_ex.c **** 
1629:Drivers/STM32F4xx_HAL_Driver/Src/stm32f4xx_hal_rtc_ex.c ****   /* Change RTC state */
1630:Drivers/STM32F4xx_HAL_Driver/Src/stm32f4xx_hal_rtc_ex.c ****   hrtc->State = HAL_RTC_STATE_READY;
1631:Drivers/STM32F4xx_HAL_Driver/Src/stm32f4xx_hal_rtc_ex.c **** 
1632:Drivers/STM32F4xx_HAL_Driver/Src/stm32f4xx_hal_rtc_ex.c ****   /* Process Unlocked */
1633:Drivers/STM32F4xx_HAL_Driver/Src/stm32f4xx_hal_rtc_ex.c ****   __HAL_UNLOCK(hrtc);
 2955              		.loc 1 1633 3 is_stmt 0 view .LVU1126
 2956 0022 4FF0000C 		mov	ip, #0
1627:Drivers/STM32F4xx_HAL_Driver/Src/stm32f4xx_hal_rtc_ex.c **** 
 2957              		.loc 1 1627 3 view .LVU1127
 2958 0026 FF20     		movs	r0, #255
1630:Drivers/STM32F4xx_HAL_Driver/Src/stm32f4xx_hal_rtc_ex.c **** 
 2959              		.loc 1 1630 15 view .LVU1128
 2960 0028 0121     		movs	r1, #1
1627:Drivers/STM32F4xx_HAL_Driver/Src/stm32f4xx_hal_rtc_ex.c **** 
 2961              		.loc 1 1627 3 view .LVU1129
 2962 002a 5062     		str	r0, [r2, #36]
1627:Drivers/STM32F4xx_HAL_Driver/Src/stm32f4xx_hal_rtc_ex.c **** 
 2963              		.loc 1 1627 3 is_stmt 1 view .LVU1130
1630:Drivers/STM32F4xx_HAL_Driver/Src/stm32f4xx_hal_rtc_ex.c **** 
 2964              		.loc 1 1630 3 view .LVU1131
1634:Drivers/STM32F4xx_HAL_Driver/Src/stm32f4xx_hal_rtc_ex.c **** 
1635:Drivers/STM32F4xx_HAL_Driver/Src/stm32f4xx_hal_rtc_ex.c ****   return HAL_OK;
 2965              		.loc 1 1635 10 is_stmt 0 view .LVU1132
 2966 002c 6046     		mov	r0, ip
1630:Drivers/STM32F4xx_HAL_Driver/Src/stm32f4xx_hal_rtc_ex.c **** 
 2967              		.loc 1 1630 15 view .LVU1133
 2968 002e 5977     		strb	r1, [r3, #29]
1633:Drivers/STM32F4xx_HAL_Driver/Src/stm32f4xx_hal_rtc_ex.c **** 
 2969              		.loc 1 1633 3 is_stmt 1 view .LVU1134
1633:Drivers/STM32F4xx_HAL_Driver/Src/stm32f4xx_hal_rtc_ex.c **** 
 2970              		.loc 1 1633 3 view .LVU1135
 2971 0030 83F81CC0 		strb	ip, [r3, #28]
1633:Drivers/STM32F4xx_HAL_Driver/Src/stm32f4xx_hal_rtc_ex.c **** 
 2972              		.loc 1 1633 3 view .LVU1136
 2973              		.loc 1 1635 3 view .LVU1137
 2974              		.loc 1 1635 10 is_stmt 0 view .LVU1138
 2975 0034 7047     		bx	lr
ARM GAS  C:\Users\Konrad\AppData\Local\Temp\ccbXyGXO.s 			page 90


 2976              	.LVL196:
 2977              	.L228:
1617:Drivers/STM32F4xx_HAL_Driver/Src/stm32f4xx_hal_rtc_ex.c **** 
 2978              		.loc 1 1617 3 discriminator 1 view .LVU1139
 2979 0036 0220     		movs	r0, #2
 2980              	.LVL197:
1636:Drivers/STM32F4xx_HAL_Driver/Src/stm32f4xx_hal_rtc_ex.c **** }
 2981              		.loc 1 1636 1 view .LVU1140
 2982 0038 7047     		bx	lr
 2983              		.cfi_endproc
 2984              	.LFE242:
 2986 003a 00BF     		.section	.text.HAL_RTCEx_SetRefClock,"ax",%progbits
 2987              		.align	1
 2988              		.p2align 2,,3
 2989              		.global	HAL_RTCEx_SetRefClock
 2990              		.syntax unified
 2991              		.thumb
 2992              		.thumb_func
 2994              	HAL_RTCEx_SetRefClock:
 2995              	.LVL198:
 2996              	.LFB243:
1637:Drivers/STM32F4xx_HAL_Driver/Src/stm32f4xx_hal_rtc_ex.c **** 
1638:Drivers/STM32F4xx_HAL_Driver/Src/stm32f4xx_hal_rtc_ex.c **** /**
1639:Drivers/STM32F4xx_HAL_Driver/Src/stm32f4xx_hal_rtc_ex.c ****   * @brief  Enables the RTC reference clock detection.
1640:Drivers/STM32F4xx_HAL_Driver/Src/stm32f4xx_hal_rtc_ex.c ****   * @param  hrtc pointer to a RTC_HandleTypeDef structure that contains
1641:Drivers/STM32F4xx_HAL_Driver/Src/stm32f4xx_hal_rtc_ex.c ****   *                the configuration information for RTC.
1642:Drivers/STM32F4xx_HAL_Driver/Src/stm32f4xx_hal_rtc_ex.c ****   * @retval HAL status
1643:Drivers/STM32F4xx_HAL_Driver/Src/stm32f4xx_hal_rtc_ex.c ****   */
1644:Drivers/STM32F4xx_HAL_Driver/Src/stm32f4xx_hal_rtc_ex.c **** HAL_StatusTypeDef HAL_RTCEx_SetRefClock(RTC_HandleTypeDef *hrtc)
1645:Drivers/STM32F4xx_HAL_Driver/Src/stm32f4xx_hal_rtc_ex.c **** {
 2997              		.loc 1 1645 1 is_stmt 1 view -0
 2998              		.cfi_startproc
 2999              		@ args = 0, pretend = 0, frame = 0
 3000              		@ frame_needed = 0, uses_anonymous_args = 0
1646:Drivers/STM32F4xx_HAL_Driver/Src/stm32f4xx_hal_rtc_ex.c ****   HAL_StatusTypeDef status;
 3001              		.loc 1 1646 3 view .LVU1142
1647:Drivers/STM32F4xx_HAL_Driver/Src/stm32f4xx_hal_rtc_ex.c **** 
1648:Drivers/STM32F4xx_HAL_Driver/Src/stm32f4xx_hal_rtc_ex.c ****   /* Process Locked */
1649:Drivers/STM32F4xx_HAL_Driver/Src/stm32f4xx_hal_rtc_ex.c ****   __HAL_LOCK(hrtc);
 3002              		.loc 1 1649 3 view .LVU1143
 3003              		.loc 1 1649 3 view .LVU1144
1645:Drivers/STM32F4xx_HAL_Driver/Src/stm32f4xx_hal_rtc_ex.c ****   HAL_StatusTypeDef status;
 3004              		.loc 1 1645 1 is_stmt 0 view .LVU1145
 3005 0000 38B5     		push	{r3, r4, r5, lr}
 3006              		.cfi_def_cfa_offset 16
 3007              		.cfi_offset 3, -16
 3008              		.cfi_offset 4, -12
 3009              		.cfi_offset 5, -8
 3010              		.cfi_offset 14, -4
 3011              		.loc 1 1649 3 view .LVU1146
 3012 0002 037F     		ldrb	r3, [r0, #28]	@ zero_extendqisi2
 3013 0004 012B     		cmp	r3, #1
 3014 0006 1ED0     		beq	.L234
 3015              		.loc 1 1649 3 is_stmt 1 discriminator 2 view .LVU1147
1650:Drivers/STM32F4xx_HAL_Driver/Src/stm32f4xx_hal_rtc_ex.c **** 
1651:Drivers/STM32F4xx_HAL_Driver/Src/stm32f4xx_hal_rtc_ex.c ****   hrtc->State = HAL_RTC_STATE_BUSY;
1652:Drivers/STM32F4xx_HAL_Driver/Src/stm32f4xx_hal_rtc_ex.c **** 
ARM GAS  C:\Users\Konrad\AppData\Local\Temp\ccbXyGXO.s 			page 91


1653:Drivers/STM32F4xx_HAL_Driver/Src/stm32f4xx_hal_rtc_ex.c ****   /* Disable the write protection for RTC registers */
1654:Drivers/STM32F4xx_HAL_Driver/Src/stm32f4xx_hal_rtc_ex.c ****   __HAL_RTC_WRITEPROTECTION_DISABLE(hrtc);
 3016              		.loc 1 1654 3 is_stmt 0 view .LVU1148
 3017 0008 0368     		ldr	r3, [r0]
1651:Drivers/STM32F4xx_HAL_Driver/Src/stm32f4xx_hal_rtc_ex.c **** 
 3018              		.loc 1 1651 15 view .LVU1149
 3019 000a 0222     		movs	r2, #2
 3020 000c 4277     		strb	r2, [r0, #29]
1649:Drivers/STM32F4xx_HAL_Driver/Src/stm32f4xx_hal_rtc_ex.c **** 
 3021              		.loc 1 1649 3 discriminator 2 view .LVU1150
 3022 000e 0125     		movs	r5, #1
 3023              		.loc 1 1654 3 view .LVU1151
 3024 0010 CA22     		movs	r2, #202
1649:Drivers/STM32F4xx_HAL_Driver/Src/stm32f4xx_hal_rtc_ex.c **** 
 3025              		.loc 1 1649 3 discriminator 2 view .LVU1152
 3026 0012 0577     		strb	r5, [r0, #28]
1649:Drivers/STM32F4xx_HAL_Driver/Src/stm32f4xx_hal_rtc_ex.c **** 
 3027              		.loc 1 1649 3 is_stmt 1 discriminator 2 view .LVU1153
1651:Drivers/STM32F4xx_HAL_Driver/Src/stm32f4xx_hal_rtc_ex.c **** 
 3028              		.loc 1 1651 3 view .LVU1154
 3029              		.loc 1 1654 3 view .LVU1155
 3030              		.loc 1 1654 3 view .LVU1156
 3031 0014 5A62     		str	r2, [r3, #36]
 3032              		.loc 1 1654 3 view .LVU1157
 3033 0016 5322     		movs	r2, #83
 3034 0018 5A62     		str	r2, [r3, #36]
 3035              		.loc 1 1654 3 view .LVU1158
1655:Drivers/STM32F4xx_HAL_Driver/Src/stm32f4xx_hal_rtc_ex.c **** 
1656:Drivers/STM32F4xx_HAL_Driver/Src/stm32f4xx_hal_rtc_ex.c ****   /* Enter Initialization mode */
1657:Drivers/STM32F4xx_HAL_Driver/Src/stm32f4xx_hal_rtc_ex.c ****   status = RTC_EnterInitMode(hrtc);
 3036              		.loc 1 1657 3 view .LVU1159
 3037 001a 0446     		mov	r4, r0
 3038              		.loc 1 1657 12 is_stmt 0 view .LVU1160
 3039 001c FFF7FEFF 		bl	RTC_EnterInitMode
 3040              	.LVL199:
1658:Drivers/STM32F4xx_HAL_Driver/Src/stm32f4xx_hal_rtc_ex.c **** 
1659:Drivers/STM32F4xx_HAL_Driver/Src/stm32f4xx_hal_rtc_ex.c ****   if (status == HAL_OK)
 3041              		.loc 1 1659 3 is_stmt 1 view .LVU1161
 3042              		.loc 1 1659 6 is_stmt 0 view .LVU1162
 3043 0020 28B1     		cbz	r0, .L236
 3044              	.L231:
 3045              	.LVL200:
1660:Drivers/STM32F4xx_HAL_Driver/Src/stm32f4xx_hal_rtc_ex.c ****   {
1661:Drivers/STM32F4xx_HAL_Driver/Src/stm32f4xx_hal_rtc_ex.c ****     /* Enable the reference clock detection */
1662:Drivers/STM32F4xx_HAL_Driver/Src/stm32f4xx_hal_rtc_ex.c ****     __HAL_RTC_CLOCKREF_DETECTION_ENABLE(hrtc);
1663:Drivers/STM32F4xx_HAL_Driver/Src/stm32f4xx_hal_rtc_ex.c **** 
1664:Drivers/STM32F4xx_HAL_Driver/Src/stm32f4xx_hal_rtc_ex.c ****     /* Exit Initialization mode */
1665:Drivers/STM32F4xx_HAL_Driver/Src/stm32f4xx_hal_rtc_ex.c ****     status = RTC_ExitInitMode(hrtc);
1666:Drivers/STM32F4xx_HAL_Driver/Src/stm32f4xx_hal_rtc_ex.c ****   }
1667:Drivers/STM32F4xx_HAL_Driver/Src/stm32f4xx_hal_rtc_ex.c **** 
1668:Drivers/STM32F4xx_HAL_Driver/Src/stm32f4xx_hal_rtc_ex.c ****   if (status == HAL_OK)
1669:Drivers/STM32F4xx_HAL_Driver/Src/stm32f4xx_hal_rtc_ex.c ****   {
1670:Drivers/STM32F4xx_HAL_Driver/Src/stm32f4xx_hal_rtc_ex.c ****     hrtc->State = HAL_RTC_STATE_READY;
1671:Drivers/STM32F4xx_HAL_Driver/Src/stm32f4xx_hal_rtc_ex.c ****   }
1672:Drivers/STM32F4xx_HAL_Driver/Src/stm32f4xx_hal_rtc_ex.c **** 
1673:Drivers/STM32F4xx_HAL_Driver/Src/stm32f4xx_hal_rtc_ex.c ****   /* Enable the write protection for RTC registers */
1674:Drivers/STM32F4xx_HAL_Driver/Src/stm32f4xx_hal_rtc_ex.c ****   __HAL_RTC_WRITEPROTECTION_ENABLE(hrtc);
ARM GAS  C:\Users\Konrad\AppData\Local\Temp\ccbXyGXO.s 			page 92


 3046              		.loc 1 1674 3 is_stmt 1 view .LVU1163
 3047              		.loc 1 1674 3 view .LVU1164
 3048 0022 2268     		ldr	r2, [r4]
 3049 0024 FF21     		movs	r1, #255
1675:Drivers/STM32F4xx_HAL_Driver/Src/stm32f4xx_hal_rtc_ex.c **** 
1676:Drivers/STM32F4xx_HAL_Driver/Src/stm32f4xx_hal_rtc_ex.c ****   /* Process Unlocked */
1677:Drivers/STM32F4xx_HAL_Driver/Src/stm32f4xx_hal_rtc_ex.c ****   __HAL_UNLOCK(hrtc);
 3050              		.loc 1 1677 3 is_stmt 0 view .LVU1165
 3051 0026 0023     		movs	r3, #0
1674:Drivers/STM32F4xx_HAL_Driver/Src/stm32f4xx_hal_rtc_ex.c **** 
 3052              		.loc 1 1674 3 view .LVU1166
 3053 0028 5162     		str	r1, [r2, #36]
1674:Drivers/STM32F4xx_HAL_Driver/Src/stm32f4xx_hal_rtc_ex.c **** 
 3054              		.loc 1 1674 3 is_stmt 1 view .LVU1167
 3055              		.loc 1 1677 3 view .LVU1168
 3056              		.loc 1 1677 3 view .LVU1169
 3057 002a 2377     		strb	r3, [r4, #28]
 3058              		.loc 1 1677 3 view .LVU1170
1678:Drivers/STM32F4xx_HAL_Driver/Src/stm32f4xx_hal_rtc_ex.c **** 
1679:Drivers/STM32F4xx_HAL_Driver/Src/stm32f4xx_hal_rtc_ex.c ****   return status;
 3059              		.loc 1 1679 3 view .LVU1171
1680:Drivers/STM32F4xx_HAL_Driver/Src/stm32f4xx_hal_rtc_ex.c **** }
 3060              		.loc 1 1680 1 is_stmt 0 view .LVU1172
 3061 002c 38BD     		pop	{r3, r4, r5, pc}
 3062              	.LVL201:
 3063              	.L236:
1662:Drivers/STM32F4xx_HAL_Driver/Src/stm32f4xx_hal_rtc_ex.c **** 
 3064              		.loc 1 1662 5 is_stmt 1 view .LVU1173
 3065 002e 2268     		ldr	r2, [r4]
 3066 0030 9368     		ldr	r3, [r2, #8]
 3067 0032 43F01003 		orr	r3, r3, #16
1665:Drivers/STM32F4xx_HAL_Driver/Src/stm32f4xx_hal_rtc_ex.c ****   }
 3068              		.loc 1 1665 14 is_stmt 0 view .LVU1174
 3069 0036 2046     		mov	r0, r4
 3070              	.LVL202:
1662:Drivers/STM32F4xx_HAL_Driver/Src/stm32f4xx_hal_rtc_ex.c **** 
 3071              		.loc 1 1662 5 view .LVU1175
 3072 0038 9360     		str	r3, [r2, #8]
1665:Drivers/STM32F4xx_HAL_Driver/Src/stm32f4xx_hal_rtc_ex.c ****   }
 3073              		.loc 1 1665 5 is_stmt 1 view .LVU1176
1665:Drivers/STM32F4xx_HAL_Driver/Src/stm32f4xx_hal_rtc_ex.c ****   }
 3074              		.loc 1 1665 14 is_stmt 0 view .LVU1177
 3075 003a FFF7FEFF 		bl	RTC_ExitInitMode
 3076              	.LVL203:
1668:Drivers/STM32F4xx_HAL_Driver/Src/stm32f4xx_hal_rtc_ex.c ****   {
 3077              		.loc 1 1668 3 is_stmt 1 view .LVU1178
1668:Drivers/STM32F4xx_HAL_Driver/Src/stm32f4xx_hal_rtc_ex.c ****   {
 3078              		.loc 1 1668 6 is_stmt 0 view .LVU1179
 3079 003e 0028     		cmp	r0, #0
 3080 0040 EFD1     		bne	.L231
1670:Drivers/STM32F4xx_HAL_Driver/Src/stm32f4xx_hal_rtc_ex.c ****   }
 3081              		.loc 1 1670 5 is_stmt 1 view .LVU1180
1670:Drivers/STM32F4xx_HAL_Driver/Src/stm32f4xx_hal_rtc_ex.c ****   }
 3082              		.loc 1 1670 17 is_stmt 0 view .LVU1181
 3083 0042 6577     		strb	r5, [r4, #29]
 3084 0044 EDE7     		b	.L231
 3085              	.LVL204:
ARM GAS  C:\Users\Konrad\AppData\Local\Temp\ccbXyGXO.s 			page 93


 3086              	.L234:
1649:Drivers/STM32F4xx_HAL_Driver/Src/stm32f4xx_hal_rtc_ex.c **** 
 3087              		.loc 1 1649 3 discriminator 1 view .LVU1182
 3088 0046 0220     		movs	r0, #2
 3089              	.LVL205:
 3090              		.loc 1 1680 1 view .LVU1183
 3091 0048 38BD     		pop	{r3, r4, r5, pc}
 3092              		.cfi_endproc
 3093              	.LFE243:
 3095 004a 00BF     		.section	.text.HAL_RTCEx_DeactivateRefClock,"ax",%progbits
 3096              		.align	1
 3097              		.p2align 2,,3
 3098              		.global	HAL_RTCEx_DeactivateRefClock
 3099              		.syntax unified
 3100              		.thumb
 3101              		.thumb_func
 3103              	HAL_RTCEx_DeactivateRefClock:
 3104              	.LVL206:
 3105              	.LFB244:
1681:Drivers/STM32F4xx_HAL_Driver/Src/stm32f4xx_hal_rtc_ex.c **** 
1682:Drivers/STM32F4xx_HAL_Driver/Src/stm32f4xx_hal_rtc_ex.c **** /**
1683:Drivers/STM32F4xx_HAL_Driver/Src/stm32f4xx_hal_rtc_ex.c ****   * @brief  Disable the RTC reference clock detection.
1684:Drivers/STM32F4xx_HAL_Driver/Src/stm32f4xx_hal_rtc_ex.c ****   * @param  hrtc pointer to a RTC_HandleTypeDef structure that contains
1685:Drivers/STM32F4xx_HAL_Driver/Src/stm32f4xx_hal_rtc_ex.c ****   *                the configuration information for RTC.
1686:Drivers/STM32F4xx_HAL_Driver/Src/stm32f4xx_hal_rtc_ex.c ****   * @retval HAL status
1687:Drivers/STM32F4xx_HAL_Driver/Src/stm32f4xx_hal_rtc_ex.c ****   */
1688:Drivers/STM32F4xx_HAL_Driver/Src/stm32f4xx_hal_rtc_ex.c **** HAL_StatusTypeDef HAL_RTCEx_DeactivateRefClock(RTC_HandleTypeDef *hrtc)
1689:Drivers/STM32F4xx_HAL_Driver/Src/stm32f4xx_hal_rtc_ex.c **** {
 3106              		.loc 1 1689 1 is_stmt 1 view -0
 3107              		.cfi_startproc
 3108              		@ args = 0, pretend = 0, frame = 0
 3109              		@ frame_needed = 0, uses_anonymous_args = 0
1690:Drivers/STM32F4xx_HAL_Driver/Src/stm32f4xx_hal_rtc_ex.c ****   HAL_StatusTypeDef status;
 3110              		.loc 1 1690 3 view .LVU1185
1691:Drivers/STM32F4xx_HAL_Driver/Src/stm32f4xx_hal_rtc_ex.c **** 
1692:Drivers/STM32F4xx_HAL_Driver/Src/stm32f4xx_hal_rtc_ex.c ****   /* Process Locked */
1693:Drivers/STM32F4xx_HAL_Driver/Src/stm32f4xx_hal_rtc_ex.c ****   __HAL_LOCK(hrtc);
 3111              		.loc 1 1693 3 view .LVU1186
 3112              		.loc 1 1693 3 view .LVU1187
1689:Drivers/STM32F4xx_HAL_Driver/Src/stm32f4xx_hal_rtc_ex.c ****   HAL_StatusTypeDef status;
 3113              		.loc 1 1689 1 is_stmt 0 view .LVU1188
 3114 0000 38B5     		push	{r3, r4, r5, lr}
 3115              		.cfi_def_cfa_offset 16
 3116              		.cfi_offset 3, -16
 3117              		.cfi_offset 4, -12
 3118              		.cfi_offset 5, -8
 3119              		.cfi_offset 14, -4
 3120              		.loc 1 1693 3 view .LVU1189
 3121 0002 037F     		ldrb	r3, [r0, #28]	@ zero_extendqisi2
 3122 0004 012B     		cmp	r3, #1
 3123 0006 1ED0     		beq	.L242
 3124              		.loc 1 1693 3 is_stmt 1 discriminator 2 view .LVU1190
1694:Drivers/STM32F4xx_HAL_Driver/Src/stm32f4xx_hal_rtc_ex.c **** 
1695:Drivers/STM32F4xx_HAL_Driver/Src/stm32f4xx_hal_rtc_ex.c ****   hrtc->State = HAL_RTC_STATE_BUSY;
1696:Drivers/STM32F4xx_HAL_Driver/Src/stm32f4xx_hal_rtc_ex.c **** 
1697:Drivers/STM32F4xx_HAL_Driver/Src/stm32f4xx_hal_rtc_ex.c ****   /* Disable the write protection for RTC registers */
1698:Drivers/STM32F4xx_HAL_Driver/Src/stm32f4xx_hal_rtc_ex.c ****   __HAL_RTC_WRITEPROTECTION_DISABLE(hrtc);
ARM GAS  C:\Users\Konrad\AppData\Local\Temp\ccbXyGXO.s 			page 94


 3125              		.loc 1 1698 3 is_stmt 0 view .LVU1191
 3126 0008 0368     		ldr	r3, [r0]
1695:Drivers/STM32F4xx_HAL_Driver/Src/stm32f4xx_hal_rtc_ex.c **** 
 3127              		.loc 1 1695 15 view .LVU1192
 3128 000a 0222     		movs	r2, #2
 3129 000c 4277     		strb	r2, [r0, #29]
1693:Drivers/STM32F4xx_HAL_Driver/Src/stm32f4xx_hal_rtc_ex.c **** 
 3130              		.loc 1 1693 3 discriminator 2 view .LVU1193
 3131 000e 0125     		movs	r5, #1
 3132              		.loc 1 1698 3 view .LVU1194
 3133 0010 CA22     		movs	r2, #202
1693:Drivers/STM32F4xx_HAL_Driver/Src/stm32f4xx_hal_rtc_ex.c **** 
 3134              		.loc 1 1693 3 discriminator 2 view .LVU1195
 3135 0012 0577     		strb	r5, [r0, #28]
1693:Drivers/STM32F4xx_HAL_Driver/Src/stm32f4xx_hal_rtc_ex.c **** 
 3136              		.loc 1 1693 3 is_stmt 1 discriminator 2 view .LVU1196
1695:Drivers/STM32F4xx_HAL_Driver/Src/stm32f4xx_hal_rtc_ex.c **** 
 3137              		.loc 1 1695 3 view .LVU1197
 3138              		.loc 1 1698 3 view .LVU1198
 3139              		.loc 1 1698 3 view .LVU1199
 3140 0014 5A62     		str	r2, [r3, #36]
 3141              		.loc 1 1698 3 view .LVU1200
 3142 0016 5322     		movs	r2, #83
 3143 0018 5A62     		str	r2, [r3, #36]
 3144              		.loc 1 1698 3 view .LVU1201
1699:Drivers/STM32F4xx_HAL_Driver/Src/stm32f4xx_hal_rtc_ex.c **** 
1700:Drivers/STM32F4xx_HAL_Driver/Src/stm32f4xx_hal_rtc_ex.c ****   /* Enter Initialization mode */
1701:Drivers/STM32F4xx_HAL_Driver/Src/stm32f4xx_hal_rtc_ex.c ****   status = RTC_EnterInitMode(hrtc);
 3145              		.loc 1 1701 3 view .LVU1202
 3146 001a 0446     		mov	r4, r0
 3147              		.loc 1 1701 12 is_stmt 0 view .LVU1203
 3148 001c FFF7FEFF 		bl	RTC_EnterInitMode
 3149              	.LVL207:
1702:Drivers/STM32F4xx_HAL_Driver/Src/stm32f4xx_hal_rtc_ex.c **** 
1703:Drivers/STM32F4xx_HAL_Driver/Src/stm32f4xx_hal_rtc_ex.c ****   if (status == HAL_OK)
 3150              		.loc 1 1703 3 is_stmt 1 view .LVU1204
 3151              		.loc 1 1703 6 is_stmt 0 view .LVU1205
 3152 0020 28B1     		cbz	r0, .L244
 3153              	.L239:
 3154              	.LVL208:
1704:Drivers/STM32F4xx_HAL_Driver/Src/stm32f4xx_hal_rtc_ex.c ****   {
1705:Drivers/STM32F4xx_HAL_Driver/Src/stm32f4xx_hal_rtc_ex.c ****     /* Disable the reference clock detection */
1706:Drivers/STM32F4xx_HAL_Driver/Src/stm32f4xx_hal_rtc_ex.c ****     __HAL_RTC_CLOCKREF_DETECTION_DISABLE(hrtc);
1707:Drivers/STM32F4xx_HAL_Driver/Src/stm32f4xx_hal_rtc_ex.c **** 
1708:Drivers/STM32F4xx_HAL_Driver/Src/stm32f4xx_hal_rtc_ex.c ****     /* Exit Initialization mode */
1709:Drivers/STM32F4xx_HAL_Driver/Src/stm32f4xx_hal_rtc_ex.c ****     status = RTC_ExitInitMode(hrtc);
1710:Drivers/STM32F4xx_HAL_Driver/Src/stm32f4xx_hal_rtc_ex.c ****   }
1711:Drivers/STM32F4xx_HAL_Driver/Src/stm32f4xx_hal_rtc_ex.c **** 
1712:Drivers/STM32F4xx_HAL_Driver/Src/stm32f4xx_hal_rtc_ex.c ****   if (status == HAL_OK)
1713:Drivers/STM32F4xx_HAL_Driver/Src/stm32f4xx_hal_rtc_ex.c ****   {
1714:Drivers/STM32F4xx_HAL_Driver/Src/stm32f4xx_hal_rtc_ex.c ****     hrtc->State = HAL_RTC_STATE_READY;
1715:Drivers/STM32F4xx_HAL_Driver/Src/stm32f4xx_hal_rtc_ex.c ****   }
1716:Drivers/STM32F4xx_HAL_Driver/Src/stm32f4xx_hal_rtc_ex.c **** 
1717:Drivers/STM32F4xx_HAL_Driver/Src/stm32f4xx_hal_rtc_ex.c ****   /* Enable the write protection for RTC registers */
1718:Drivers/STM32F4xx_HAL_Driver/Src/stm32f4xx_hal_rtc_ex.c ****   __HAL_RTC_WRITEPROTECTION_ENABLE(hrtc);
 3155              		.loc 1 1718 3 is_stmt 1 view .LVU1206
 3156              		.loc 1 1718 3 view .LVU1207
ARM GAS  C:\Users\Konrad\AppData\Local\Temp\ccbXyGXO.s 			page 95


 3157 0022 2268     		ldr	r2, [r4]
 3158 0024 FF21     		movs	r1, #255
1719:Drivers/STM32F4xx_HAL_Driver/Src/stm32f4xx_hal_rtc_ex.c **** 
1720:Drivers/STM32F4xx_HAL_Driver/Src/stm32f4xx_hal_rtc_ex.c ****   /* Process Unlocked */
1721:Drivers/STM32F4xx_HAL_Driver/Src/stm32f4xx_hal_rtc_ex.c ****   __HAL_UNLOCK(hrtc);
 3159              		.loc 1 1721 3 is_stmt 0 view .LVU1208
 3160 0026 0023     		movs	r3, #0
1718:Drivers/STM32F4xx_HAL_Driver/Src/stm32f4xx_hal_rtc_ex.c **** 
 3161              		.loc 1 1718 3 view .LVU1209
 3162 0028 5162     		str	r1, [r2, #36]
1718:Drivers/STM32F4xx_HAL_Driver/Src/stm32f4xx_hal_rtc_ex.c **** 
 3163              		.loc 1 1718 3 is_stmt 1 view .LVU1210
 3164              		.loc 1 1721 3 view .LVU1211
 3165              		.loc 1 1721 3 view .LVU1212
 3166 002a 2377     		strb	r3, [r4, #28]
 3167              		.loc 1 1721 3 view .LVU1213
1722:Drivers/STM32F4xx_HAL_Driver/Src/stm32f4xx_hal_rtc_ex.c **** 
1723:Drivers/STM32F4xx_HAL_Driver/Src/stm32f4xx_hal_rtc_ex.c ****   return status;
 3168              		.loc 1 1723 3 view .LVU1214
1724:Drivers/STM32F4xx_HAL_Driver/Src/stm32f4xx_hal_rtc_ex.c **** }
 3169              		.loc 1 1724 1 is_stmt 0 view .LVU1215
 3170 002c 38BD     		pop	{r3, r4, r5, pc}
 3171              	.LVL209:
 3172              	.L244:
1706:Drivers/STM32F4xx_HAL_Driver/Src/stm32f4xx_hal_rtc_ex.c **** 
 3173              		.loc 1 1706 5 is_stmt 1 view .LVU1216
 3174 002e 2268     		ldr	r2, [r4]
 3175 0030 9368     		ldr	r3, [r2, #8]
 3176 0032 23F01003 		bic	r3, r3, #16
1709:Drivers/STM32F4xx_HAL_Driver/Src/stm32f4xx_hal_rtc_ex.c ****   }
 3177              		.loc 1 1709 14 is_stmt 0 view .LVU1217
 3178 0036 2046     		mov	r0, r4
 3179              	.LVL210:
1706:Drivers/STM32F4xx_HAL_Driver/Src/stm32f4xx_hal_rtc_ex.c **** 
 3180              		.loc 1 1706 5 view .LVU1218
 3181 0038 9360     		str	r3, [r2, #8]
1709:Drivers/STM32F4xx_HAL_Driver/Src/stm32f4xx_hal_rtc_ex.c ****   }
 3182              		.loc 1 1709 5 is_stmt 1 view .LVU1219
1709:Drivers/STM32F4xx_HAL_Driver/Src/stm32f4xx_hal_rtc_ex.c ****   }
 3183              		.loc 1 1709 14 is_stmt 0 view .LVU1220
 3184 003a FFF7FEFF 		bl	RTC_ExitInitMode
 3185              	.LVL211:
1712:Drivers/STM32F4xx_HAL_Driver/Src/stm32f4xx_hal_rtc_ex.c ****   {
 3186              		.loc 1 1712 3 is_stmt 1 view .LVU1221
1712:Drivers/STM32F4xx_HAL_Driver/Src/stm32f4xx_hal_rtc_ex.c ****   {
 3187              		.loc 1 1712 6 is_stmt 0 view .LVU1222
 3188 003e 0028     		cmp	r0, #0
 3189 0040 EFD1     		bne	.L239
1714:Drivers/STM32F4xx_HAL_Driver/Src/stm32f4xx_hal_rtc_ex.c ****   }
 3190              		.loc 1 1714 5 is_stmt 1 view .LVU1223
1714:Drivers/STM32F4xx_HAL_Driver/Src/stm32f4xx_hal_rtc_ex.c ****   }
 3191              		.loc 1 1714 17 is_stmt 0 view .LVU1224
 3192 0042 6577     		strb	r5, [r4, #29]
 3193 0044 EDE7     		b	.L239
 3194              	.LVL212:
 3195              	.L242:
1693:Drivers/STM32F4xx_HAL_Driver/Src/stm32f4xx_hal_rtc_ex.c **** 
ARM GAS  C:\Users\Konrad\AppData\Local\Temp\ccbXyGXO.s 			page 96


 3196              		.loc 1 1693 3 discriminator 1 view .LVU1225
 3197 0046 0220     		movs	r0, #2
 3198              	.LVL213:
 3199              		.loc 1 1724 1 view .LVU1226
 3200 0048 38BD     		pop	{r3, r4, r5, pc}
 3201              		.cfi_endproc
 3202              	.LFE244:
 3204 004a 00BF     		.section	.text.HAL_RTCEx_EnableBypassShadow,"ax",%progbits
 3205              		.align	1
 3206              		.p2align 2,,3
 3207              		.global	HAL_RTCEx_EnableBypassShadow
 3208              		.syntax unified
 3209              		.thumb
 3210              		.thumb_func
 3212              	HAL_RTCEx_EnableBypassShadow:
 3213              	.LVL214:
 3214              	.LFB245:
1725:Drivers/STM32F4xx_HAL_Driver/Src/stm32f4xx_hal_rtc_ex.c **** 
1726:Drivers/STM32F4xx_HAL_Driver/Src/stm32f4xx_hal_rtc_ex.c **** /**
1727:Drivers/STM32F4xx_HAL_Driver/Src/stm32f4xx_hal_rtc_ex.c ****   * @brief  Enables the Bypass Shadow feature.
1728:Drivers/STM32F4xx_HAL_Driver/Src/stm32f4xx_hal_rtc_ex.c ****   * @param  hrtc pointer to a RTC_HandleTypeDef structure that contains
1729:Drivers/STM32F4xx_HAL_Driver/Src/stm32f4xx_hal_rtc_ex.c ****   *                the configuration information for RTC.
1730:Drivers/STM32F4xx_HAL_Driver/Src/stm32f4xx_hal_rtc_ex.c ****   * @note   When the Bypass Shadow is enabled the calendar value are taken
1731:Drivers/STM32F4xx_HAL_Driver/Src/stm32f4xx_hal_rtc_ex.c ****   *         directly from the Calendar counter.
1732:Drivers/STM32F4xx_HAL_Driver/Src/stm32f4xx_hal_rtc_ex.c ****   * @retval HAL status
1733:Drivers/STM32F4xx_HAL_Driver/Src/stm32f4xx_hal_rtc_ex.c ****   */
1734:Drivers/STM32F4xx_HAL_Driver/Src/stm32f4xx_hal_rtc_ex.c **** HAL_StatusTypeDef HAL_RTCEx_EnableBypassShadow(RTC_HandleTypeDef *hrtc)
1735:Drivers/STM32F4xx_HAL_Driver/Src/stm32f4xx_hal_rtc_ex.c **** {
 3215              		.loc 1 1735 1 is_stmt 1 view -0
 3216              		.cfi_startproc
 3217              		@ args = 0, pretend = 0, frame = 0
 3218              		@ frame_needed = 0, uses_anonymous_args = 0
 3219              		@ link register save eliminated.
1736:Drivers/STM32F4xx_HAL_Driver/Src/stm32f4xx_hal_rtc_ex.c ****   /* Process Locked */
1737:Drivers/STM32F4xx_HAL_Driver/Src/stm32f4xx_hal_rtc_ex.c ****   __HAL_LOCK(hrtc);
 3220              		.loc 1 1737 3 view .LVU1228
 3221              		.loc 1 1737 3 view .LVU1229
 3222 0000 027F     		ldrb	r2, [r0, #28]	@ zero_extendqisi2
 3223 0002 012A     		cmp	r2, #1
1735:Drivers/STM32F4xx_HAL_Driver/Src/stm32f4xx_hal_rtc_ex.c ****   /* Process Locked */
 3224              		.loc 1 1735 1 is_stmt 0 view .LVU1230
 3225 0004 0346     		mov	r3, r0
 3226              		.loc 1 1737 3 view .LVU1231
 3227 0006 16D0     		beq	.L247
 3228              		.loc 1 1737 3 is_stmt 1 discriminator 2 view .LVU1232
 3229              		.loc 1 1737 3 discriminator 2 view .LVU1233
1738:Drivers/STM32F4xx_HAL_Driver/Src/stm32f4xx_hal_rtc_ex.c **** 
1739:Drivers/STM32F4xx_HAL_Driver/Src/stm32f4xx_hal_rtc_ex.c ****   hrtc->State = HAL_RTC_STATE_BUSY;
 3230              		.loc 1 1739 3 view .LVU1234
1740:Drivers/STM32F4xx_HAL_Driver/Src/stm32f4xx_hal_rtc_ex.c **** 
1741:Drivers/STM32F4xx_HAL_Driver/Src/stm32f4xx_hal_rtc_ex.c ****   /* Disable the write protection for RTC registers */
1742:Drivers/STM32F4xx_HAL_Driver/Src/stm32f4xx_hal_rtc_ex.c ****   __HAL_RTC_WRITEPROTECTION_DISABLE(hrtc);
 3231              		.loc 1 1742 3 is_stmt 0 view .LVU1235
 3232 0008 0268     		ldr	r2, [r0]
1739:Drivers/STM32F4xx_HAL_Driver/Src/stm32f4xx_hal_rtc_ex.c **** 
 3233              		.loc 1 1739 15 view .LVU1236
 3234 000a 4FF0020C 		mov	ip, #2
ARM GAS  C:\Users\Konrad\AppData\Local\Temp\ccbXyGXO.s 			page 97


 3235              		.loc 1 1742 3 view .LVU1237
 3236 000e CA20     		movs	r0, #202
 3237              	.LVL215:
 3238              		.loc 1 1742 3 view .LVU1238
 3239 0010 5321     		movs	r1, #83
1739:Drivers/STM32F4xx_HAL_Driver/Src/stm32f4xx_hal_rtc_ex.c **** 
 3240              		.loc 1 1739 15 view .LVU1239
 3241 0012 83F81DC0 		strb	ip, [r3, #29]
 3242              		.loc 1 1742 3 is_stmt 1 view .LVU1240
 3243              		.loc 1 1742 3 view .LVU1241
 3244 0016 5062     		str	r0, [r2, #36]
 3245              		.loc 1 1742 3 view .LVU1242
 3246 0018 5162     		str	r1, [r2, #36]
 3247              		.loc 1 1742 3 view .LVU1243
1743:Drivers/STM32F4xx_HAL_Driver/Src/stm32f4xx_hal_rtc_ex.c **** 
1744:Drivers/STM32F4xx_HAL_Driver/Src/stm32f4xx_hal_rtc_ex.c ****   /* Set the BYPSHAD bit */
1745:Drivers/STM32F4xx_HAL_Driver/Src/stm32f4xx_hal_rtc_ex.c ****   hrtc->Instance->CR |= (uint8_t)RTC_CR_BYPSHAD;
 3248              		.loc 1 1745 3 view .LVU1244
 3249              		.loc 1 1745 17 is_stmt 0 view .LVU1245
 3250 001a 9168     		ldr	r1, [r2, #8]
 3251              		.loc 1 1745 22 view .LVU1246
 3252 001c 41F02001 		orr	r1, r1, #32
 3253 0020 9160     		str	r1, [r2, #8]
1746:Drivers/STM32F4xx_HAL_Driver/Src/stm32f4xx_hal_rtc_ex.c **** 
1747:Drivers/STM32F4xx_HAL_Driver/Src/stm32f4xx_hal_rtc_ex.c ****   /* Enable the write protection for RTC registers */
1748:Drivers/STM32F4xx_HAL_Driver/Src/stm32f4xx_hal_rtc_ex.c ****   __HAL_RTC_WRITEPROTECTION_ENABLE(hrtc);
 3254              		.loc 1 1748 3 is_stmt 1 view .LVU1247
 3255              		.loc 1 1748 3 view .LVU1248
1749:Drivers/STM32F4xx_HAL_Driver/Src/stm32f4xx_hal_rtc_ex.c **** 
1750:Drivers/STM32F4xx_HAL_Driver/Src/stm32f4xx_hal_rtc_ex.c ****   /* Change RTC state */
1751:Drivers/STM32F4xx_HAL_Driver/Src/stm32f4xx_hal_rtc_ex.c ****   hrtc->State = HAL_RTC_STATE_READY;
1752:Drivers/STM32F4xx_HAL_Driver/Src/stm32f4xx_hal_rtc_ex.c **** 
1753:Drivers/STM32F4xx_HAL_Driver/Src/stm32f4xx_hal_rtc_ex.c ****   /* Process Unlocked */
1754:Drivers/STM32F4xx_HAL_Driver/Src/stm32f4xx_hal_rtc_ex.c ****   __HAL_UNLOCK(hrtc);
 3256              		.loc 1 1754 3 is_stmt 0 view .LVU1249
 3257 0022 4FF0000C 		mov	ip, #0
1748:Drivers/STM32F4xx_HAL_Driver/Src/stm32f4xx_hal_rtc_ex.c **** 
 3258              		.loc 1 1748 3 view .LVU1250
 3259 0026 FF20     		movs	r0, #255
1751:Drivers/STM32F4xx_HAL_Driver/Src/stm32f4xx_hal_rtc_ex.c **** 
 3260              		.loc 1 1751 15 view .LVU1251
 3261 0028 0121     		movs	r1, #1
1748:Drivers/STM32F4xx_HAL_Driver/Src/stm32f4xx_hal_rtc_ex.c **** 
 3262              		.loc 1 1748 3 view .LVU1252
 3263 002a 5062     		str	r0, [r2, #36]
1748:Drivers/STM32F4xx_HAL_Driver/Src/stm32f4xx_hal_rtc_ex.c **** 
 3264              		.loc 1 1748 3 is_stmt 1 view .LVU1253
1751:Drivers/STM32F4xx_HAL_Driver/Src/stm32f4xx_hal_rtc_ex.c **** 
 3265              		.loc 1 1751 3 view .LVU1254
1755:Drivers/STM32F4xx_HAL_Driver/Src/stm32f4xx_hal_rtc_ex.c **** 
1756:Drivers/STM32F4xx_HAL_Driver/Src/stm32f4xx_hal_rtc_ex.c ****   return HAL_OK;
 3266              		.loc 1 1756 10 is_stmt 0 view .LVU1255
 3267 002c 6046     		mov	r0, ip
1751:Drivers/STM32F4xx_HAL_Driver/Src/stm32f4xx_hal_rtc_ex.c **** 
 3268              		.loc 1 1751 15 view .LVU1256
 3269 002e 5977     		strb	r1, [r3, #29]
1754:Drivers/STM32F4xx_HAL_Driver/Src/stm32f4xx_hal_rtc_ex.c **** 
ARM GAS  C:\Users\Konrad\AppData\Local\Temp\ccbXyGXO.s 			page 98


 3270              		.loc 1 1754 3 is_stmt 1 view .LVU1257
1754:Drivers/STM32F4xx_HAL_Driver/Src/stm32f4xx_hal_rtc_ex.c **** 
 3271              		.loc 1 1754 3 view .LVU1258
 3272 0030 83F81CC0 		strb	ip, [r3, #28]
1754:Drivers/STM32F4xx_HAL_Driver/Src/stm32f4xx_hal_rtc_ex.c **** 
 3273              		.loc 1 1754 3 view .LVU1259
 3274              		.loc 1 1756 3 view .LVU1260
 3275              		.loc 1 1756 10 is_stmt 0 view .LVU1261
 3276 0034 7047     		bx	lr
 3277              	.LVL216:
 3278              	.L247:
1737:Drivers/STM32F4xx_HAL_Driver/Src/stm32f4xx_hal_rtc_ex.c **** 
 3279              		.loc 1 1737 3 discriminator 1 view .LVU1262
 3280 0036 0220     		movs	r0, #2
 3281              	.LVL217:
1757:Drivers/STM32F4xx_HAL_Driver/Src/stm32f4xx_hal_rtc_ex.c **** }
 3282              		.loc 1 1757 1 view .LVU1263
 3283 0038 7047     		bx	lr
 3284              		.cfi_endproc
 3285              	.LFE245:
 3287 003a 00BF     		.section	.text.HAL_RTCEx_DisableBypassShadow,"ax",%progbits
 3288              		.align	1
 3289              		.p2align 2,,3
 3290              		.global	HAL_RTCEx_DisableBypassShadow
 3291              		.syntax unified
 3292              		.thumb
 3293              		.thumb_func
 3295              	HAL_RTCEx_DisableBypassShadow:
 3296              	.LVL218:
 3297              	.LFB246:
1758:Drivers/STM32F4xx_HAL_Driver/Src/stm32f4xx_hal_rtc_ex.c **** 
1759:Drivers/STM32F4xx_HAL_Driver/Src/stm32f4xx_hal_rtc_ex.c **** /**
1760:Drivers/STM32F4xx_HAL_Driver/Src/stm32f4xx_hal_rtc_ex.c ****   * @brief  Disables the Bypass Shadow feature.
1761:Drivers/STM32F4xx_HAL_Driver/Src/stm32f4xx_hal_rtc_ex.c ****   * @param  hrtc pointer to a RTC_HandleTypeDef structure that contains
1762:Drivers/STM32F4xx_HAL_Driver/Src/stm32f4xx_hal_rtc_ex.c ****   *                the configuration information for RTC.
1763:Drivers/STM32F4xx_HAL_Driver/Src/stm32f4xx_hal_rtc_ex.c ****   * @note   When the Bypass Shadow is enabled the calendar value are taken
1764:Drivers/STM32F4xx_HAL_Driver/Src/stm32f4xx_hal_rtc_ex.c ****   *         directly from the Calendar counter.
1765:Drivers/STM32F4xx_HAL_Driver/Src/stm32f4xx_hal_rtc_ex.c ****   * @retval HAL status
1766:Drivers/STM32F4xx_HAL_Driver/Src/stm32f4xx_hal_rtc_ex.c ****   */
1767:Drivers/STM32F4xx_HAL_Driver/Src/stm32f4xx_hal_rtc_ex.c **** HAL_StatusTypeDef HAL_RTCEx_DisableBypassShadow(RTC_HandleTypeDef *hrtc)
1768:Drivers/STM32F4xx_HAL_Driver/Src/stm32f4xx_hal_rtc_ex.c **** {
 3298              		.loc 1 1768 1 is_stmt 1 view -0
 3299              		.cfi_startproc
 3300              		@ args = 0, pretend = 0, frame = 0
 3301              		@ frame_needed = 0, uses_anonymous_args = 0
 3302              		@ link register save eliminated.
1769:Drivers/STM32F4xx_HAL_Driver/Src/stm32f4xx_hal_rtc_ex.c ****   /* Process Locked */
1770:Drivers/STM32F4xx_HAL_Driver/Src/stm32f4xx_hal_rtc_ex.c ****   __HAL_LOCK(hrtc);
 3303              		.loc 1 1770 3 view .LVU1265
 3304              		.loc 1 1770 3 view .LVU1266
 3305 0000 027F     		ldrb	r2, [r0, #28]	@ zero_extendqisi2
 3306 0002 012A     		cmp	r2, #1
1768:Drivers/STM32F4xx_HAL_Driver/Src/stm32f4xx_hal_rtc_ex.c ****   /* Process Locked */
 3307              		.loc 1 1768 1 is_stmt 0 view .LVU1267
 3308 0004 0346     		mov	r3, r0
 3309              		.loc 1 1770 3 view .LVU1268
 3310 0006 16D0     		beq	.L250
ARM GAS  C:\Users\Konrad\AppData\Local\Temp\ccbXyGXO.s 			page 99


 3311              		.loc 1 1770 3 is_stmt 1 discriminator 2 view .LVU1269
 3312              		.loc 1 1770 3 discriminator 2 view .LVU1270
1771:Drivers/STM32F4xx_HAL_Driver/Src/stm32f4xx_hal_rtc_ex.c **** 
1772:Drivers/STM32F4xx_HAL_Driver/Src/stm32f4xx_hal_rtc_ex.c ****   hrtc->State = HAL_RTC_STATE_BUSY;
 3313              		.loc 1 1772 3 view .LVU1271
1773:Drivers/STM32F4xx_HAL_Driver/Src/stm32f4xx_hal_rtc_ex.c **** 
1774:Drivers/STM32F4xx_HAL_Driver/Src/stm32f4xx_hal_rtc_ex.c ****   /* Disable the write protection for RTC registers */
1775:Drivers/STM32F4xx_HAL_Driver/Src/stm32f4xx_hal_rtc_ex.c ****   __HAL_RTC_WRITEPROTECTION_DISABLE(hrtc);
 3314              		.loc 1 1775 3 is_stmt 0 view .LVU1272
 3315 0008 0268     		ldr	r2, [r0]
1772:Drivers/STM32F4xx_HAL_Driver/Src/stm32f4xx_hal_rtc_ex.c **** 
 3316              		.loc 1 1772 15 view .LVU1273
 3317 000a 4FF0020C 		mov	ip, #2
 3318              		.loc 1 1775 3 view .LVU1274
 3319 000e CA20     		movs	r0, #202
 3320              	.LVL219:
 3321              		.loc 1 1775 3 view .LVU1275
 3322 0010 5321     		movs	r1, #83
1772:Drivers/STM32F4xx_HAL_Driver/Src/stm32f4xx_hal_rtc_ex.c **** 
 3323              		.loc 1 1772 15 view .LVU1276
 3324 0012 83F81DC0 		strb	ip, [r3, #29]
 3325              		.loc 1 1775 3 is_stmt 1 view .LVU1277
 3326              		.loc 1 1775 3 view .LVU1278
 3327 0016 5062     		str	r0, [r2, #36]
 3328              		.loc 1 1775 3 view .LVU1279
 3329 0018 5162     		str	r1, [r2, #36]
 3330              		.loc 1 1775 3 view .LVU1280
1776:Drivers/STM32F4xx_HAL_Driver/Src/stm32f4xx_hal_rtc_ex.c **** 
1777:Drivers/STM32F4xx_HAL_Driver/Src/stm32f4xx_hal_rtc_ex.c ****   /* Reset the BYPSHAD bit */
1778:Drivers/STM32F4xx_HAL_Driver/Src/stm32f4xx_hal_rtc_ex.c ****   hrtc->Instance->CR &= (uint8_t)~RTC_CR_BYPSHAD;
 3331              		.loc 1 1778 3 view .LVU1281
 3332              		.loc 1 1778 17 is_stmt 0 view .LVU1282
 3333 001a 9168     		ldr	r1, [r2, #8]
 3334              		.loc 1 1778 22 view .LVU1283
 3335 001c 01F0DF01 		and	r1, r1, #223
 3336 0020 9160     		str	r1, [r2, #8]
1779:Drivers/STM32F4xx_HAL_Driver/Src/stm32f4xx_hal_rtc_ex.c **** 
1780:Drivers/STM32F4xx_HAL_Driver/Src/stm32f4xx_hal_rtc_ex.c ****   /* Enable the write protection for RTC registers */
1781:Drivers/STM32F4xx_HAL_Driver/Src/stm32f4xx_hal_rtc_ex.c ****   __HAL_RTC_WRITEPROTECTION_ENABLE(hrtc);
 3337              		.loc 1 1781 3 is_stmt 1 view .LVU1284
 3338              		.loc 1 1781 3 view .LVU1285
1782:Drivers/STM32F4xx_HAL_Driver/Src/stm32f4xx_hal_rtc_ex.c **** 
1783:Drivers/STM32F4xx_HAL_Driver/Src/stm32f4xx_hal_rtc_ex.c ****   /* Change RTC state */
1784:Drivers/STM32F4xx_HAL_Driver/Src/stm32f4xx_hal_rtc_ex.c ****   hrtc->State = HAL_RTC_STATE_READY;
1785:Drivers/STM32F4xx_HAL_Driver/Src/stm32f4xx_hal_rtc_ex.c **** 
1786:Drivers/STM32F4xx_HAL_Driver/Src/stm32f4xx_hal_rtc_ex.c ****   /* Process Unlocked */
1787:Drivers/STM32F4xx_HAL_Driver/Src/stm32f4xx_hal_rtc_ex.c ****   __HAL_UNLOCK(hrtc);
 3339              		.loc 1 1787 3 is_stmt 0 view .LVU1286
 3340 0022 4FF0000C 		mov	ip, #0
1781:Drivers/STM32F4xx_HAL_Driver/Src/stm32f4xx_hal_rtc_ex.c **** 
 3341              		.loc 1 1781 3 view .LVU1287
 3342 0026 FF20     		movs	r0, #255
1784:Drivers/STM32F4xx_HAL_Driver/Src/stm32f4xx_hal_rtc_ex.c **** 
 3343              		.loc 1 1784 15 view .LVU1288
 3344 0028 0121     		movs	r1, #1
1781:Drivers/STM32F4xx_HAL_Driver/Src/stm32f4xx_hal_rtc_ex.c **** 
 3345              		.loc 1 1781 3 view .LVU1289
ARM GAS  C:\Users\Konrad\AppData\Local\Temp\ccbXyGXO.s 			page 100


 3346 002a 5062     		str	r0, [r2, #36]
1781:Drivers/STM32F4xx_HAL_Driver/Src/stm32f4xx_hal_rtc_ex.c **** 
 3347              		.loc 1 1781 3 is_stmt 1 view .LVU1290
1784:Drivers/STM32F4xx_HAL_Driver/Src/stm32f4xx_hal_rtc_ex.c **** 
 3348              		.loc 1 1784 3 view .LVU1291
1788:Drivers/STM32F4xx_HAL_Driver/Src/stm32f4xx_hal_rtc_ex.c **** 
1789:Drivers/STM32F4xx_HAL_Driver/Src/stm32f4xx_hal_rtc_ex.c ****   return HAL_OK;
 3349              		.loc 1 1789 10 is_stmt 0 view .LVU1292
 3350 002c 6046     		mov	r0, ip
1784:Drivers/STM32F4xx_HAL_Driver/Src/stm32f4xx_hal_rtc_ex.c **** 
 3351              		.loc 1 1784 15 view .LVU1293
 3352 002e 5977     		strb	r1, [r3, #29]
1787:Drivers/STM32F4xx_HAL_Driver/Src/stm32f4xx_hal_rtc_ex.c **** 
 3353              		.loc 1 1787 3 is_stmt 1 view .LVU1294
1787:Drivers/STM32F4xx_HAL_Driver/Src/stm32f4xx_hal_rtc_ex.c **** 
 3354              		.loc 1 1787 3 view .LVU1295
 3355 0030 83F81CC0 		strb	ip, [r3, #28]
1787:Drivers/STM32F4xx_HAL_Driver/Src/stm32f4xx_hal_rtc_ex.c **** 
 3356              		.loc 1 1787 3 view .LVU1296
 3357              		.loc 1 1789 3 view .LVU1297
 3358              		.loc 1 1789 10 is_stmt 0 view .LVU1298
 3359 0034 7047     		bx	lr
 3360              	.LVL220:
 3361              	.L250:
1770:Drivers/STM32F4xx_HAL_Driver/Src/stm32f4xx_hal_rtc_ex.c **** 
 3362              		.loc 1 1770 3 discriminator 1 view .LVU1299
 3363 0036 0220     		movs	r0, #2
 3364              	.LVL221:
1790:Drivers/STM32F4xx_HAL_Driver/Src/stm32f4xx_hal_rtc_ex.c **** }
 3365              		.loc 1 1790 1 view .LVU1300
 3366 0038 7047     		bx	lr
 3367              		.cfi_endproc
 3368              	.LFE246:
 3370 003a 00BF     		.section	.text.HAL_RTCEx_AlarmBEventCallback,"ax",%progbits
 3371              		.align	1
 3372              		.p2align 2,,3
 3373              		.weak	HAL_RTCEx_AlarmBEventCallback
 3374              		.syntax unified
 3375              		.thumb
 3376              		.thumb_func
 3378              	HAL_RTCEx_AlarmBEventCallback:
 3379              	.LFB254:
 3380              		.cfi_startproc
1791:Drivers/STM32F4xx_HAL_Driver/Src/stm32f4xx_hal_rtc_ex.c **** 
1792:Drivers/STM32F4xx_HAL_Driver/Src/stm32f4xx_hal_rtc_ex.c **** /**
1793:Drivers/STM32F4xx_HAL_Driver/Src/stm32f4xx_hal_rtc_ex.c ****   * @}
1794:Drivers/STM32F4xx_HAL_Driver/Src/stm32f4xx_hal_rtc_ex.c ****   */
1795:Drivers/STM32F4xx_HAL_Driver/Src/stm32f4xx_hal_rtc_ex.c **** 
1796:Drivers/STM32F4xx_HAL_Driver/Src/stm32f4xx_hal_rtc_ex.c **** /** @defgroup RTCEx_Exported_Functions_Group4 Extended features functions
1797:Drivers/STM32F4xx_HAL_Driver/Src/stm32f4xx_hal_rtc_ex.c ****   * @brief    Extended features functions
1798:Drivers/STM32F4xx_HAL_Driver/Src/stm32f4xx_hal_rtc_ex.c ****   *
1799:Drivers/STM32F4xx_HAL_Driver/Src/stm32f4xx_hal_rtc_ex.c **** @verbatim
1800:Drivers/STM32F4xx_HAL_Driver/Src/stm32f4xx_hal_rtc_ex.c ****  ===============================================================================
1801:Drivers/STM32F4xx_HAL_Driver/Src/stm32f4xx_hal_rtc_ex.c ****                  ##### Extended features functions #####
1802:Drivers/STM32F4xx_HAL_Driver/Src/stm32f4xx_hal_rtc_ex.c ****  ===============================================================================
1803:Drivers/STM32F4xx_HAL_Driver/Src/stm32f4xx_hal_rtc_ex.c ****     [..]  This section provides functions allowing to:
1804:Drivers/STM32F4xx_HAL_Driver/Src/stm32f4xx_hal_rtc_ex.c ****       (+) RTC Alarm B callback
ARM GAS  C:\Users\Konrad\AppData\Local\Temp\ccbXyGXO.s 			page 101


1805:Drivers/STM32F4xx_HAL_Driver/Src/stm32f4xx_hal_rtc_ex.c ****       (+) RTC Poll for Alarm B request
1806:Drivers/STM32F4xx_HAL_Driver/Src/stm32f4xx_hal_rtc_ex.c **** 
1807:Drivers/STM32F4xx_HAL_Driver/Src/stm32f4xx_hal_rtc_ex.c **** @endverbatim
1808:Drivers/STM32F4xx_HAL_Driver/Src/stm32f4xx_hal_rtc_ex.c ****   * @{
1809:Drivers/STM32F4xx_HAL_Driver/Src/stm32f4xx_hal_rtc_ex.c ****   */
1810:Drivers/STM32F4xx_HAL_Driver/Src/stm32f4xx_hal_rtc_ex.c **** 
1811:Drivers/STM32F4xx_HAL_Driver/Src/stm32f4xx_hal_rtc_ex.c **** /**
1812:Drivers/STM32F4xx_HAL_Driver/Src/stm32f4xx_hal_rtc_ex.c ****   * @brief  Alarm B callback.
1813:Drivers/STM32F4xx_HAL_Driver/Src/stm32f4xx_hal_rtc_ex.c ****   * @param  hrtc pointer to a RTC_HandleTypeDef structure that contains
1814:Drivers/STM32F4xx_HAL_Driver/Src/stm32f4xx_hal_rtc_ex.c ****   *                the configuration information for RTC.
1815:Drivers/STM32F4xx_HAL_Driver/Src/stm32f4xx_hal_rtc_ex.c ****   * @retval None
1816:Drivers/STM32F4xx_HAL_Driver/Src/stm32f4xx_hal_rtc_ex.c ****   */
1817:Drivers/STM32F4xx_HAL_Driver/Src/stm32f4xx_hal_rtc_ex.c **** __weak void HAL_RTCEx_AlarmBEventCallback(RTC_HandleTypeDef *hrtc)
 3381              		.loc 1 1817 13 is_stmt 1 view -0
 3382              		@ args = 0, pretend = 0, frame = 0
 3383              		@ frame_needed = 0, uses_anonymous_args = 0
 3384              		@ link register save eliminated.
 3385 0000 7047     		bx	lr
 3386              		.cfi_endproc
 3387              	.LFE254:
 3389 0002 00BF     		.section	.text.HAL_RTCEx_PollForAlarmBEvent,"ax",%progbits
 3390              		.align	1
 3391              		.p2align 2,,3
 3392              		.global	HAL_RTCEx_PollForAlarmBEvent
 3393              		.syntax unified
 3394              		.thumb
 3395              		.thumb_func
 3397              	HAL_RTCEx_PollForAlarmBEvent:
 3398              	.LVL222:
 3399              	.LFB248:
1818:Drivers/STM32F4xx_HAL_Driver/Src/stm32f4xx_hal_rtc_ex.c **** {
1819:Drivers/STM32F4xx_HAL_Driver/Src/stm32f4xx_hal_rtc_ex.c ****   /* Prevent unused argument(s) compilation warning */
1820:Drivers/STM32F4xx_HAL_Driver/Src/stm32f4xx_hal_rtc_ex.c ****   UNUSED(hrtc);
1821:Drivers/STM32F4xx_HAL_Driver/Src/stm32f4xx_hal_rtc_ex.c **** 
1822:Drivers/STM32F4xx_HAL_Driver/Src/stm32f4xx_hal_rtc_ex.c ****   /* NOTE: This function should not be modified, when the callback is needed,
1823:Drivers/STM32F4xx_HAL_Driver/Src/stm32f4xx_hal_rtc_ex.c ****            the HAL_RTCEx_AlarmBEventCallback could be implemented in the user file
1824:Drivers/STM32F4xx_HAL_Driver/Src/stm32f4xx_hal_rtc_ex.c ****    */
1825:Drivers/STM32F4xx_HAL_Driver/Src/stm32f4xx_hal_rtc_ex.c **** }
1826:Drivers/STM32F4xx_HAL_Driver/Src/stm32f4xx_hal_rtc_ex.c **** 
1827:Drivers/STM32F4xx_HAL_Driver/Src/stm32f4xx_hal_rtc_ex.c **** /**
1828:Drivers/STM32F4xx_HAL_Driver/Src/stm32f4xx_hal_rtc_ex.c ****   * @brief  Handles Alarm B Polling request.
1829:Drivers/STM32F4xx_HAL_Driver/Src/stm32f4xx_hal_rtc_ex.c ****   * @param  hrtc pointer to a RTC_HandleTypeDef structure that contains
1830:Drivers/STM32F4xx_HAL_Driver/Src/stm32f4xx_hal_rtc_ex.c ****   *                the configuration information for RTC.
1831:Drivers/STM32F4xx_HAL_Driver/Src/stm32f4xx_hal_rtc_ex.c ****   * @param  Timeout Timeout duration
1832:Drivers/STM32F4xx_HAL_Driver/Src/stm32f4xx_hal_rtc_ex.c ****   * @retval HAL status
1833:Drivers/STM32F4xx_HAL_Driver/Src/stm32f4xx_hal_rtc_ex.c ****   */
1834:Drivers/STM32F4xx_HAL_Driver/Src/stm32f4xx_hal_rtc_ex.c **** HAL_StatusTypeDef HAL_RTCEx_PollForAlarmBEvent(RTC_HandleTypeDef *hrtc, uint32_t Timeout)
1835:Drivers/STM32F4xx_HAL_Driver/Src/stm32f4xx_hal_rtc_ex.c **** {
 3400              		.loc 1 1835 1 view -0
 3401              		.cfi_startproc
 3402              		@ args = 0, pretend = 0, frame = 0
 3403              		@ frame_needed = 0, uses_anonymous_args = 0
1836:Drivers/STM32F4xx_HAL_Driver/Src/stm32f4xx_hal_rtc_ex.c ****   uint32_t tickstart = 0U;
 3404              		.loc 1 1836 3 view .LVU1303
1837:Drivers/STM32F4xx_HAL_Driver/Src/stm32f4xx_hal_rtc_ex.c **** 
1838:Drivers/STM32F4xx_HAL_Driver/Src/stm32f4xx_hal_rtc_ex.c ****   /* Get tick */
1839:Drivers/STM32F4xx_HAL_Driver/Src/stm32f4xx_hal_rtc_ex.c ****   tickstart = HAL_GetTick();
ARM GAS  C:\Users\Konrad\AppData\Local\Temp\ccbXyGXO.s 			page 102


 3405              		.loc 1 1839 3 view .LVU1304
1835:Drivers/STM32F4xx_HAL_Driver/Src/stm32f4xx_hal_rtc_ex.c ****   uint32_t tickstart = 0U;
 3406              		.loc 1 1835 1 is_stmt 0 view .LVU1305
 3407 0000 70B5     		push	{r4, r5, r6, lr}
 3408              		.cfi_def_cfa_offset 16
 3409              		.cfi_offset 4, -16
 3410              		.cfi_offset 5, -12
 3411              		.cfi_offset 6, -8
 3412              		.cfi_offset 14, -4
1835:Drivers/STM32F4xx_HAL_Driver/Src/stm32f4xx_hal_rtc_ex.c ****   uint32_t tickstart = 0U;
 3413              		.loc 1 1835 1 view .LVU1306
 3414 0002 0446     		mov	r4, r0
 3415 0004 0D46     		mov	r5, r1
 3416              		.loc 1 1839 15 view .LVU1307
 3417 0006 FFF7FEFF 		bl	HAL_GetTick
 3418              	.LVL223:
1840:Drivers/STM32F4xx_HAL_Driver/Src/stm32f4xx_hal_rtc_ex.c **** 
1841:Drivers/STM32F4xx_HAL_Driver/Src/stm32f4xx_hal_rtc_ex.c ****   /* Wait till RTC ALRBF flag is set and if timeout is reached exit */
1842:Drivers/STM32F4xx_HAL_Driver/Src/stm32f4xx_hal_rtc_ex.c ****   while (__HAL_RTC_ALARM_GET_FLAG(hrtc, RTC_FLAG_ALRBF) == 0U)
 3419              		.loc 1 1842 3 is_stmt 1 view .LVU1308
 3420 000a 6E1C     		adds	r6, r5, #1
 3421              		.loc 1 1842 10 is_stmt 0 view .LVU1309
 3422 000c 2268     		ldr	r2, [r4]
 3423 000e 0BD1     		bne	.L253
 3424              	.LVL224:
 3425              	.L254:
 3426              		.loc 1 1842 57 is_stmt 1 view .LVU1310
 3427              		.loc 1 1842 10 is_stmt 0 view .LVU1311
 3428 0010 D368     		ldr	r3, [r2, #12]
 3429              		.loc 1 1842 57 view .LVU1312
 3430 0012 9805     		lsls	r0, r3, #22
 3431 0014 FCD5     		bpl	.L254
 3432              	.L255:
1843:Drivers/STM32F4xx_HAL_Driver/Src/stm32f4xx_hal_rtc_ex.c ****   {
1844:Drivers/STM32F4xx_HAL_Driver/Src/stm32f4xx_hal_rtc_ex.c ****     if (Timeout != HAL_MAX_DELAY)
1845:Drivers/STM32F4xx_HAL_Driver/Src/stm32f4xx_hal_rtc_ex.c ****     {
1846:Drivers/STM32F4xx_HAL_Driver/Src/stm32f4xx_hal_rtc_ex.c ****       if ((Timeout == 0U) || ((HAL_GetTick() - tickstart) > Timeout))
1847:Drivers/STM32F4xx_HAL_Driver/Src/stm32f4xx_hal_rtc_ex.c ****       {
1848:Drivers/STM32F4xx_HAL_Driver/Src/stm32f4xx_hal_rtc_ex.c ****         hrtc->State = HAL_RTC_STATE_TIMEOUT;
1849:Drivers/STM32F4xx_HAL_Driver/Src/stm32f4xx_hal_rtc_ex.c ****         return HAL_TIMEOUT;
1850:Drivers/STM32F4xx_HAL_Driver/Src/stm32f4xx_hal_rtc_ex.c ****       }
1851:Drivers/STM32F4xx_HAL_Driver/Src/stm32f4xx_hal_rtc_ex.c ****     }
1852:Drivers/STM32F4xx_HAL_Driver/Src/stm32f4xx_hal_rtc_ex.c ****   }
1853:Drivers/STM32F4xx_HAL_Driver/Src/stm32f4xx_hal_rtc_ex.c **** 
1854:Drivers/STM32F4xx_HAL_Driver/Src/stm32f4xx_hal_rtc_ex.c ****   /* Clear the Alarm flag */
1855:Drivers/STM32F4xx_HAL_Driver/Src/stm32f4xx_hal_rtc_ex.c ****   __HAL_RTC_ALARM_CLEAR_FLAG(hrtc, RTC_FLAG_ALRBF);
 3433              		.loc 1 1855 3 is_stmt 1 view .LVU1313
 3434 0016 D368     		ldr	r3, [r2, #12]
 3435 0018 DBB2     		uxtb	r3, r3
1856:Drivers/STM32F4xx_HAL_Driver/Src/stm32f4xx_hal_rtc_ex.c **** 
1857:Drivers/STM32F4xx_HAL_Driver/Src/stm32f4xx_hal_rtc_ex.c ****   /* Change RTC state */
1858:Drivers/STM32F4xx_HAL_Driver/Src/stm32f4xx_hal_rtc_ex.c ****   hrtc->State = HAL_RTC_STATE_READY;
 3436              		.loc 1 1858 15 is_stmt 0 view .LVU1314
 3437 001a 0121     		movs	r1, #1
1855:Drivers/STM32F4xx_HAL_Driver/Src/stm32f4xx_hal_rtc_ex.c **** 
 3438              		.loc 1 1855 3 view .LVU1315
 3439 001c 63F42073 		orn	r3, r3, #640
ARM GAS  C:\Users\Konrad\AppData\Local\Temp\ccbXyGXO.s 			page 103


 3440 0020 D360     		str	r3, [r2, #12]
 3441              		.loc 1 1858 3 is_stmt 1 view .LVU1316
 3442              		.loc 1 1858 15 is_stmt 0 view .LVU1317
 3443 0022 6177     		strb	r1, [r4, #29]
1859:Drivers/STM32F4xx_HAL_Driver/Src/stm32f4xx_hal_rtc_ex.c **** 
1860:Drivers/STM32F4xx_HAL_Driver/Src/stm32f4xx_hal_rtc_ex.c ****   return HAL_OK;
 3444              		.loc 1 1860 3 is_stmt 1 view .LVU1318
 3445              		.loc 1 1860 10 is_stmt 0 view .LVU1319
 3446 0024 0020     		movs	r0, #0
1861:Drivers/STM32F4xx_HAL_Driver/Src/stm32f4xx_hal_rtc_ex.c **** }
 3447              		.loc 1 1861 1 view .LVU1320
 3448 0026 70BD     		pop	{r4, r5, r6, pc}
 3449              	.LVL225:
 3450              	.L253:
1842:Drivers/STM32F4xx_HAL_Driver/Src/stm32f4xx_hal_rtc_ex.c ****   {
 3451              		.loc 1 1842 57 is_stmt 1 view .LVU1321
1842:Drivers/STM32F4xx_HAL_Driver/Src/stm32f4xx_hal_rtc_ex.c ****   {
 3452              		.loc 1 1842 10 is_stmt 0 view .LVU1322
 3453 0028 D368     		ldr	r3, [r2, #12]
1842:Drivers/STM32F4xx_HAL_Driver/Src/stm32f4xx_hal_rtc_ex.c ****   {
 3454              		.loc 1 1842 57 view .LVU1323
 3455 002a 9B05     		lsls	r3, r3, #22
 3456 002c F3D4     		bmi	.L255
1844:Drivers/STM32F4xx_HAL_Driver/Src/stm32f4xx_hal_rtc_ex.c ****     {
 3457              		.loc 1 1844 5 is_stmt 1 view .LVU1324
1846:Drivers/STM32F4xx_HAL_Driver/Src/stm32f4xx_hal_rtc_ex.c ****       {
 3458              		.loc 1 1846 7 view .LVU1325
 3459 002e 0646     		mov	r6, r0
1846:Drivers/STM32F4xx_HAL_Driver/Src/stm32f4xx_hal_rtc_ex.c ****       {
 3460              		.loc 1 1846 10 is_stmt 0 view .LVU1326
 3461 0030 4DB1     		cbz	r5, .L258
 3462              	.LVL226:
 3463              	.L256:
1846:Drivers/STM32F4xx_HAL_Driver/Src/stm32f4xx_hal_rtc_ex.c ****       {
 3464              		.loc 1 1846 32 discriminator 1 view .LVU1327
 3465 0032 FFF7FEFF 		bl	HAL_GetTick
 3466              	.LVL227:
1846:Drivers/STM32F4xx_HAL_Driver/Src/stm32f4xx_hal_rtc_ex.c ****       {
 3467              		.loc 1 1846 46 discriminator 1 view .LVU1328
 3468 0036 831B     		subs	r3, r0, r6
1846:Drivers/STM32F4xx_HAL_Driver/Src/stm32f4xx_hal_rtc_ex.c ****       {
 3469              		.loc 1 1846 27 discriminator 1 view .LVU1329
 3470 0038 AB42     		cmp	r3, r5
 3471 003a 04D8     		bhi	.L258
1842:Drivers/STM32F4xx_HAL_Driver/Src/stm32f4xx_hal_rtc_ex.c ****   {
 3472              		.loc 1 1842 10 view .LVU1330
 3473 003c 2268     		ldr	r2, [r4]
1842:Drivers/STM32F4xx_HAL_Driver/Src/stm32f4xx_hal_rtc_ex.c ****   {
 3474              		.loc 1 1842 57 is_stmt 1 view .LVU1331
1842:Drivers/STM32F4xx_HAL_Driver/Src/stm32f4xx_hal_rtc_ex.c ****   {
 3475              		.loc 1 1842 10 is_stmt 0 view .LVU1332
 3476 003e D368     		ldr	r3, [r2, #12]
1842:Drivers/STM32F4xx_HAL_Driver/Src/stm32f4xx_hal_rtc_ex.c ****   {
 3477              		.loc 1 1842 57 view .LVU1333
 3478 0040 9905     		lsls	r1, r3, #22
 3479 0042 F6D5     		bpl	.L256
 3480 0044 E7E7     		b	.L255
ARM GAS  C:\Users\Konrad\AppData\Local\Temp\ccbXyGXO.s 			page 104


 3481              	.L258:
1848:Drivers/STM32F4xx_HAL_Driver/Src/stm32f4xx_hal_rtc_ex.c ****         return HAL_TIMEOUT;
 3482              		.loc 1 1848 9 is_stmt 1 view .LVU1334
1848:Drivers/STM32F4xx_HAL_Driver/Src/stm32f4xx_hal_rtc_ex.c ****         return HAL_TIMEOUT;
 3483              		.loc 1 1848 21 is_stmt 0 view .LVU1335
 3484 0046 0320     		movs	r0, #3
 3485 0048 6077     		strb	r0, [r4, #29]
1849:Drivers/STM32F4xx_HAL_Driver/Src/stm32f4xx_hal_rtc_ex.c ****       }
 3486              		.loc 1 1849 9 is_stmt 1 view .LVU1336
 3487              		.loc 1 1861 1 is_stmt 0 view .LVU1337
 3488 004a 70BD     		pop	{r4, r5, r6, pc}
 3489              		.loc 1 1861 1 view .LVU1338
 3490              		.cfi_endproc
 3491              	.LFE248:
 3493              		.text
 3494              	.Letext0:
 3495              		.file 2 "C:/Users/Konrad/AppData/Roaming/Code/User/globalStorage/bmd.stm32-for-vscode/@xpack-dev-t
 3496              		.file 3 "C:/Users/Konrad/AppData/Roaming/Code/User/globalStorage/bmd.stm32-for-vscode/@xpack-dev-t
 3497              		.file 4 "Drivers/CMSIS/Device/ST/STM32F4xx/Include/stm32f411xe.h"
 3498              		.file 5 "Drivers/STM32F4xx_HAL_Driver/Inc/stm32f4xx_hal_def.h"
 3499              		.file 6 "Drivers/STM32F4xx_HAL_Driver/Inc/stm32f4xx_hal_rtc.h"
 3500              		.file 7 "Drivers/STM32F4xx_HAL_Driver/Inc/stm32f4xx_hal_rtc_ex.h"
 3501              		.file 8 "Drivers/CMSIS/Device/ST/STM32F4xx/Include/system_stm32f4xx.h"
 3502              		.file 9 "Drivers/STM32F4xx_HAL_Driver/Inc/stm32f4xx_hal.h"
ARM GAS  C:\Users\Konrad\AppData\Local\Temp\ccbXyGXO.s 			page 105


DEFINED SYMBOLS
                            *ABS*:00000000 stm32f4xx_hal_rtc_ex.c
C:\Users\Konrad\AppData\Local\Temp\ccbXyGXO.s:19     .text.HAL_RTCEx_SetTimeStamp:00000000 $t
C:\Users\Konrad\AppData\Local\Temp\ccbXyGXO.s:26     .text.HAL_RTCEx_SetTimeStamp:00000000 HAL_RTCEx_SetTimeStamp
C:\Users\Konrad\AppData\Local\Temp\ccbXyGXO.s:144    .text.HAL_RTCEx_SetTimeStamp_IT:00000000 $t
C:\Users\Konrad\AppData\Local\Temp\ccbXyGXO.s:151    .text.HAL_RTCEx_SetTimeStamp_IT:00000000 HAL_RTCEx_SetTimeStamp_IT
C:\Users\Konrad\AppData\Local\Temp\ccbXyGXO.s:286    .text.HAL_RTCEx_SetTimeStamp_IT:00000088 $d
C:\Users\Konrad\AppData\Local\Temp\ccbXyGXO.s:291    .text.HAL_RTCEx_DeactivateTimeStamp:00000000 $t
C:\Users\Konrad\AppData\Local\Temp\ccbXyGXO.s:298    .text.HAL_RTCEx_DeactivateTimeStamp:00000000 HAL_RTCEx_DeactivateTimeStamp
C:\Users\Konrad\AppData\Local\Temp\ccbXyGXO.s:388    .text.HAL_RTCEx_GetTimeStamp:00000000 $t
C:\Users\Konrad\AppData\Local\Temp\ccbXyGXO.s:395    .text.HAL_RTCEx_GetTimeStamp:00000000 HAL_RTCEx_GetTimeStamp
C:\Users\Konrad\AppData\Local\Temp\ccbXyGXO.s:551    .text.HAL_RTCEx_SetTamper:00000000 $t
C:\Users\Konrad\AppData\Local\Temp\ccbXyGXO.s:558    .text.HAL_RTCEx_SetTamper:00000000 HAL_RTCEx_SetTamper
C:\Users\Konrad\AppData\Local\Temp\ccbXyGXO.s:686    .text.HAL_RTCEx_SetTamper_IT:00000000 $t
C:\Users\Konrad\AppData\Local\Temp\ccbXyGXO.s:693    .text.HAL_RTCEx_SetTamper_IT:00000000 HAL_RTCEx_SetTamper_IT
C:\Users\Konrad\AppData\Local\Temp\ccbXyGXO.s:834    .text.HAL_RTCEx_SetTamper_IT:00000070 $d
C:\Users\Konrad\AppData\Local\Temp\ccbXyGXO.s:839    .text.HAL_RTCEx_DeactivateTamper:00000000 $t
C:\Users\Konrad\AppData\Local\Temp\ccbXyGXO.s:846    .text.HAL_RTCEx_DeactivateTamper:00000000 HAL_RTCEx_DeactivateTamper
C:\Users\Konrad\AppData\Local\Temp\ccbXyGXO.s:907    .text.HAL_RTCEx_TimeStampEventCallback:00000000 $t
C:\Users\Konrad\AppData\Local\Temp\ccbXyGXO.s:914    .text.HAL_RTCEx_TimeStampEventCallback:00000000 HAL_RTCEx_TimeStampEventCallback
C:\Users\Konrad\AppData\Local\Temp\ccbXyGXO.s:926    .text.HAL_RTCEx_Tamper1EventCallback:00000000 $t
C:\Users\Konrad\AppData\Local\Temp\ccbXyGXO.s:933    .text.HAL_RTCEx_Tamper1EventCallback:00000000 HAL_RTCEx_Tamper1EventCallback
C:\Users\Konrad\AppData\Local\Temp\ccbXyGXO.s:948    .text.HAL_RTCEx_TamperTimeStampIRQHandler:00000000 $t
C:\Users\Konrad\AppData\Local\Temp\ccbXyGXO.s:955    .text.HAL_RTCEx_TamperTimeStampIRQHandler:00000000 HAL_RTCEx_TamperTimeStampIRQHandler
C:\Users\Konrad\AppData\Local\Temp\ccbXyGXO.s:1038   .text.HAL_RTCEx_TamperTimeStampIRQHandler:00000054 $d
C:\Users\Konrad\AppData\Local\Temp\ccbXyGXO.s:1043   .text.HAL_RTCEx_PollForTimeStampEvent:00000000 $t
C:\Users\Konrad\AppData\Local\Temp\ccbXyGXO.s:1050   .text.HAL_RTCEx_PollForTimeStampEvent:00000000 HAL_RTCEx_PollForTimeStampEvent
C:\Users\Konrad\AppData\Local\Temp\ccbXyGXO.s:1185   .text.HAL_RTCEx_PollForTamper1Event:00000000 $t
C:\Users\Konrad\AppData\Local\Temp\ccbXyGXO.s:1192   .text.HAL_RTCEx_PollForTamper1Event:00000000 HAL_RTCEx_PollForTamper1Event
C:\Users\Konrad\AppData\Local\Temp\ccbXyGXO.s:1289   .text.HAL_RTCEx_SetWakeUpTimer:00000000 $t
C:\Users\Konrad\AppData\Local\Temp\ccbXyGXO.s:1296   .text.HAL_RTCEx_SetWakeUpTimer:00000000 HAL_RTCEx_SetWakeUpTimer
C:\Users\Konrad\AppData\Local\Temp\ccbXyGXO.s:1498   .text.HAL_RTCEx_SetWakeUpTimer_IT:00000000 $t
C:\Users\Konrad\AppData\Local\Temp\ccbXyGXO.s:1505   .text.HAL_RTCEx_SetWakeUpTimer_IT:00000000 HAL_RTCEx_SetWakeUpTimer_IT
C:\Users\Konrad\AppData\Local\Temp\ccbXyGXO.s:1745   .text.HAL_RTCEx_SetWakeUpTimer_IT:000000dc $d
C:\Users\Konrad\AppData\Local\Temp\ccbXyGXO.s:1752   .text.HAL_RTCEx_DeactivateWakeUpTimer:00000000 $t
C:\Users\Konrad\AppData\Local\Temp\ccbXyGXO.s:1759   .text.HAL_RTCEx_DeactivateWakeUpTimer:00000000 HAL_RTCEx_DeactivateWakeUpTimer
C:\Users\Konrad\AppData\Local\Temp\ccbXyGXO.s:1900   .text.HAL_RTCEx_GetWakeUpTimer:00000000 $t
C:\Users\Konrad\AppData\Local\Temp\ccbXyGXO.s:1907   .text.HAL_RTCEx_GetWakeUpTimer:00000000 HAL_RTCEx_GetWakeUpTimer
C:\Users\Konrad\AppData\Local\Temp\ccbXyGXO.s:1928   .text.HAL_RTCEx_WakeUpTimerEventCallback:00000000 $t
C:\Users\Konrad\AppData\Local\Temp\ccbXyGXO.s:1935   .text.HAL_RTCEx_WakeUpTimerEventCallback:00000000 HAL_RTCEx_WakeUpTimerEventCallback
C:\Users\Konrad\AppData\Local\Temp\ccbXyGXO.s:1947   .text.HAL_RTCEx_WakeUpTimerIRQHandler:00000000 $t
C:\Users\Konrad\AppData\Local\Temp\ccbXyGXO.s:1954   .text.HAL_RTCEx_WakeUpTimerIRQHandler:00000000 HAL_RTCEx_WakeUpTimerIRQHandler
C:\Users\Konrad\AppData\Local\Temp\ccbXyGXO.s:2005   .text.HAL_RTCEx_WakeUpTimerIRQHandler:0000002c $d
C:\Users\Konrad\AppData\Local\Temp\ccbXyGXO.s:2010   .text.HAL_RTCEx_PollForWakeUpTimerEvent:00000000 $t
C:\Users\Konrad\AppData\Local\Temp\ccbXyGXO.s:2017   .text.HAL_RTCEx_PollForWakeUpTimerEvent:00000000 HAL_RTCEx_PollForWakeUpTimerEvent
C:\Users\Konrad\AppData\Local\Temp\ccbXyGXO.s:2114   .text.HAL_RTCEx_BKUPWrite:00000000 $t
C:\Users\Konrad\AppData\Local\Temp\ccbXyGXO.s:2121   .text.HAL_RTCEx_BKUPWrite:00000000 HAL_RTCEx_BKUPWrite
C:\Users\Konrad\AppData\Local\Temp\ccbXyGXO.s:2146   .text.HAL_RTCEx_BKUPRead:00000000 $t
C:\Users\Konrad\AppData\Local\Temp\ccbXyGXO.s:2153   .text.HAL_RTCEx_BKUPRead:00000000 HAL_RTCEx_BKUPRead
C:\Users\Konrad\AppData\Local\Temp\ccbXyGXO.s:2179   .text.HAL_RTCEx_SetCoarseCalib:00000000 $t
C:\Users\Konrad\AppData\Local\Temp\ccbXyGXO.s:2186   .text.HAL_RTCEx_SetCoarseCalib:00000000 HAL_RTCEx_SetCoarseCalib
C:\Users\Konrad\AppData\Local\Temp\ccbXyGXO.s:2302   .text.HAL_RTCEx_DeactivateCoarseCalib:00000000 $t
C:\Users\Konrad\AppData\Local\Temp\ccbXyGXO.s:2309   .text.HAL_RTCEx_DeactivateCoarseCalib:00000000 HAL_RTCEx_DeactivateCoarseCalib
C:\Users\Konrad\AppData\Local\Temp\ccbXyGXO.s:2411   .text.HAL_RTCEx_SetSmoothCalib:00000000 $t
C:\Users\Konrad\AppData\Local\Temp\ccbXyGXO.s:2418   .text.HAL_RTCEx_SetSmoothCalib:00000000 HAL_RTCEx_SetSmoothCalib
C:\Users\Konrad\AppData\Local\Temp\ccbXyGXO.s:2574   .text.HAL_RTCEx_SetSynchroShift:00000000 $t
C:\Users\Konrad\AppData\Local\Temp\ccbXyGXO.s:2581   .text.HAL_RTCEx_SetSynchroShift:00000000 HAL_RTCEx_SetSynchroShift
ARM GAS  C:\Users\Konrad\AppData\Local\Temp\ccbXyGXO.s 			page 106


C:\Users\Konrad\AppData\Local\Temp\ccbXyGXO.s:2809   .text.HAL_RTCEx_SetCalibrationOutPut:00000000 $t
C:\Users\Konrad\AppData\Local\Temp\ccbXyGXO.s:2816   .text.HAL_RTCEx_SetCalibrationOutPut:00000000 HAL_RTCEx_SetCalibrationOutPut
C:\Users\Konrad\AppData\Local\Temp\ccbXyGXO.s:2906   .text.HAL_RTCEx_DeactivateCalibrationOutPut:00000000 $t
C:\Users\Konrad\AppData\Local\Temp\ccbXyGXO.s:2913   .text.HAL_RTCEx_DeactivateCalibrationOutPut:00000000 HAL_RTCEx_DeactivateCalibrationOutPut
C:\Users\Konrad\AppData\Local\Temp\ccbXyGXO.s:2987   .text.HAL_RTCEx_SetRefClock:00000000 $t
C:\Users\Konrad\AppData\Local\Temp\ccbXyGXO.s:2994   .text.HAL_RTCEx_SetRefClock:00000000 HAL_RTCEx_SetRefClock
C:\Users\Konrad\AppData\Local\Temp\ccbXyGXO.s:3096   .text.HAL_RTCEx_DeactivateRefClock:00000000 $t
C:\Users\Konrad\AppData\Local\Temp\ccbXyGXO.s:3103   .text.HAL_RTCEx_DeactivateRefClock:00000000 HAL_RTCEx_DeactivateRefClock
C:\Users\Konrad\AppData\Local\Temp\ccbXyGXO.s:3205   .text.HAL_RTCEx_EnableBypassShadow:00000000 $t
C:\Users\Konrad\AppData\Local\Temp\ccbXyGXO.s:3212   .text.HAL_RTCEx_EnableBypassShadow:00000000 HAL_RTCEx_EnableBypassShadow
C:\Users\Konrad\AppData\Local\Temp\ccbXyGXO.s:3288   .text.HAL_RTCEx_DisableBypassShadow:00000000 $t
C:\Users\Konrad\AppData\Local\Temp\ccbXyGXO.s:3295   .text.HAL_RTCEx_DisableBypassShadow:00000000 HAL_RTCEx_DisableBypassShadow
C:\Users\Konrad\AppData\Local\Temp\ccbXyGXO.s:3371   .text.HAL_RTCEx_AlarmBEventCallback:00000000 $t
C:\Users\Konrad\AppData\Local\Temp\ccbXyGXO.s:3378   .text.HAL_RTCEx_AlarmBEventCallback:00000000 HAL_RTCEx_AlarmBEventCallback
C:\Users\Konrad\AppData\Local\Temp\ccbXyGXO.s:3390   .text.HAL_RTCEx_PollForAlarmBEvent:00000000 $t
C:\Users\Konrad\AppData\Local\Temp\ccbXyGXO.s:3397   .text.HAL_RTCEx_PollForAlarmBEvent:00000000 HAL_RTCEx_PollForAlarmBEvent

UNDEFINED SYMBOLS
RTC_Bcd2ToByte
HAL_GetTick
SystemCoreClock
RTC_EnterInitMode
RTC_ExitInitMode
HAL_RTC_WaitForSynchro
