ARM GAS  C:\Users\Konrad\AppData\Local\Temp\ccBcBO6H.s 			page 1


   1              		.cpu cortex-m4
   2              		.arch armv7e-m
   3              		.fpu fpv4-sp-d16
   4              		.eabi_attribute 27, 1
   5              		.eabi_attribute 28, 1
   6              		.eabi_attribute 23, 1
   7              		.eabi_attribute 24, 1
   8              		.eabi_attribute 25, 1
   9              		.eabi_attribute 26, 1
  10              		.eabi_attribute 30, 2
  11              		.eabi_attribute 34, 1
  12              		.eabi_attribute 18, 4
  13              		.file	"stm32f4xx_hal_uart.c"
  14              		.text
  15              	.Ltext0:
  16              		.cfi_sections	.debug_frame
  17              		.file 1 "Drivers/STM32F4xx_HAL_Driver/Src/stm32f4xx_hal_uart.c"
  18              		.section	.text.HAL_UART_MspInit,"ax",%progbits
  19              		.align	1
  20              		.p2align 2,,3
  21              		.weak	HAL_UART_MspInit
  22              		.syntax unified
  23              		.thumb
  24              		.thumb_func
  26              	HAL_UART_MspInit:
  27              	.LVL0:
  28              	.LFB221:
   1:Drivers/STM32F4xx_HAL_Driver/Src/stm32f4xx_hal_uart.c **** /**
   2:Drivers/STM32F4xx_HAL_Driver/Src/stm32f4xx_hal_uart.c ****   ******************************************************************************
   3:Drivers/STM32F4xx_HAL_Driver/Src/stm32f4xx_hal_uart.c ****   * @file    stm32f4xx_hal_uart.c
   4:Drivers/STM32F4xx_HAL_Driver/Src/stm32f4xx_hal_uart.c ****   * @author  MCD Application Team
   5:Drivers/STM32F4xx_HAL_Driver/Src/stm32f4xx_hal_uart.c ****   * @brief   UART HAL module driver.
   6:Drivers/STM32F4xx_HAL_Driver/Src/stm32f4xx_hal_uart.c ****   *          This file provides firmware functions to manage the following
   7:Drivers/STM32F4xx_HAL_Driver/Src/stm32f4xx_hal_uart.c ****   *          functionalities of the Universal Asynchronous Receiver Transmitter Peripheral (UART).
   8:Drivers/STM32F4xx_HAL_Driver/Src/stm32f4xx_hal_uart.c ****   *           + Initialization and de-initialization functions
   9:Drivers/STM32F4xx_HAL_Driver/Src/stm32f4xx_hal_uart.c ****   *           + IO operation functions
  10:Drivers/STM32F4xx_HAL_Driver/Src/stm32f4xx_hal_uart.c ****   *           + Peripheral Control functions
  11:Drivers/STM32F4xx_HAL_Driver/Src/stm32f4xx_hal_uart.c ****   *           + Peripheral State and Errors functions
  12:Drivers/STM32F4xx_HAL_Driver/Src/stm32f4xx_hal_uart.c ****   *
  13:Drivers/STM32F4xx_HAL_Driver/Src/stm32f4xx_hal_uart.c ****   ******************************************************************************
  14:Drivers/STM32F4xx_HAL_Driver/Src/stm32f4xx_hal_uart.c ****   * @attention
  15:Drivers/STM32F4xx_HAL_Driver/Src/stm32f4xx_hal_uart.c ****   *
  16:Drivers/STM32F4xx_HAL_Driver/Src/stm32f4xx_hal_uart.c ****   * Copyright (c) 2016 STMicroelectronics.
  17:Drivers/STM32F4xx_HAL_Driver/Src/stm32f4xx_hal_uart.c ****   * All rights reserved.
  18:Drivers/STM32F4xx_HAL_Driver/Src/stm32f4xx_hal_uart.c ****   *
  19:Drivers/STM32F4xx_HAL_Driver/Src/stm32f4xx_hal_uart.c ****   * This software is licensed under terms that can be found in the LICENSE file
  20:Drivers/STM32F4xx_HAL_Driver/Src/stm32f4xx_hal_uart.c ****   * in the root directory of this software component.
  21:Drivers/STM32F4xx_HAL_Driver/Src/stm32f4xx_hal_uart.c ****   * If no LICENSE file comes with this software, it is provided AS-IS.
  22:Drivers/STM32F4xx_HAL_Driver/Src/stm32f4xx_hal_uart.c ****   *
  23:Drivers/STM32F4xx_HAL_Driver/Src/stm32f4xx_hal_uart.c ****   ******************************************************************************
  24:Drivers/STM32F4xx_HAL_Driver/Src/stm32f4xx_hal_uart.c ****   @verbatim
  25:Drivers/STM32F4xx_HAL_Driver/Src/stm32f4xx_hal_uart.c ****   ==============================================================================
  26:Drivers/STM32F4xx_HAL_Driver/Src/stm32f4xx_hal_uart.c ****                         ##### How to use this driver #####
  27:Drivers/STM32F4xx_HAL_Driver/Src/stm32f4xx_hal_uart.c ****   ==============================================================================
  28:Drivers/STM32F4xx_HAL_Driver/Src/stm32f4xx_hal_uart.c ****   [..]
  29:Drivers/STM32F4xx_HAL_Driver/Src/stm32f4xx_hal_uart.c ****     The UART HAL driver can be used as follows:
  30:Drivers/STM32F4xx_HAL_Driver/Src/stm32f4xx_hal_uart.c **** 
ARM GAS  C:\Users\Konrad\AppData\Local\Temp\ccBcBO6H.s 			page 2


  31:Drivers/STM32F4xx_HAL_Driver/Src/stm32f4xx_hal_uart.c ****     (#) Declare a UART_HandleTypeDef handle structure (eg. UART_HandleTypeDef huart).
  32:Drivers/STM32F4xx_HAL_Driver/Src/stm32f4xx_hal_uart.c ****     (#) Initialize the UART low level resources by implementing the HAL_UART_MspInit() API:
  33:Drivers/STM32F4xx_HAL_Driver/Src/stm32f4xx_hal_uart.c ****         (##) Enable the USARTx interface clock.
  34:Drivers/STM32F4xx_HAL_Driver/Src/stm32f4xx_hal_uart.c ****         (##) UART pins configuration:
  35:Drivers/STM32F4xx_HAL_Driver/Src/stm32f4xx_hal_uart.c ****             (+++) Enable the clock for the UART GPIOs.
  36:Drivers/STM32F4xx_HAL_Driver/Src/stm32f4xx_hal_uart.c ****             (+++) Configure the UART TX/RX pins as alternate function pull-up.
  37:Drivers/STM32F4xx_HAL_Driver/Src/stm32f4xx_hal_uart.c ****         (##) NVIC configuration if you need to use interrupt process (HAL_UART_Transmit_IT()
  38:Drivers/STM32F4xx_HAL_Driver/Src/stm32f4xx_hal_uart.c ****              and HAL_UART_Receive_IT() APIs):
  39:Drivers/STM32F4xx_HAL_Driver/Src/stm32f4xx_hal_uart.c ****             (+++) Configure the USARTx interrupt priority.
  40:Drivers/STM32F4xx_HAL_Driver/Src/stm32f4xx_hal_uart.c ****             (+++) Enable the NVIC USART IRQ handle.
  41:Drivers/STM32F4xx_HAL_Driver/Src/stm32f4xx_hal_uart.c ****         (##) DMA Configuration if you need to use DMA process (HAL_UART_Transmit_DMA()
  42:Drivers/STM32F4xx_HAL_Driver/Src/stm32f4xx_hal_uart.c ****              and HAL_UART_Receive_DMA() APIs):
  43:Drivers/STM32F4xx_HAL_Driver/Src/stm32f4xx_hal_uart.c ****             (+++) Declare a DMA handle structure for the Tx/Rx stream.
  44:Drivers/STM32F4xx_HAL_Driver/Src/stm32f4xx_hal_uart.c ****             (+++) Enable the DMAx interface clock.
  45:Drivers/STM32F4xx_HAL_Driver/Src/stm32f4xx_hal_uart.c ****             (+++) Configure the declared DMA handle structure with the required
  46:Drivers/STM32F4xx_HAL_Driver/Src/stm32f4xx_hal_uart.c ****                   Tx/Rx parameters.
  47:Drivers/STM32F4xx_HAL_Driver/Src/stm32f4xx_hal_uart.c ****             (+++) Configure the DMA Tx/Rx stream.
  48:Drivers/STM32F4xx_HAL_Driver/Src/stm32f4xx_hal_uart.c ****             (+++) Associate the initialized DMA handle to the UART DMA Tx/Rx handle.
  49:Drivers/STM32F4xx_HAL_Driver/Src/stm32f4xx_hal_uart.c ****             (+++) Configure the priority and enable the NVIC for the transfer complete
  50:Drivers/STM32F4xx_HAL_Driver/Src/stm32f4xx_hal_uart.c ****                   interrupt on the DMA Tx/Rx stream.
  51:Drivers/STM32F4xx_HAL_Driver/Src/stm32f4xx_hal_uart.c ****             (+++) Configure the USARTx interrupt priority and enable the NVIC USART IRQ handle
  52:Drivers/STM32F4xx_HAL_Driver/Src/stm32f4xx_hal_uart.c ****                   (used for last byte sending completion detection in DMA non circular mode)
  53:Drivers/STM32F4xx_HAL_Driver/Src/stm32f4xx_hal_uart.c **** 
  54:Drivers/STM32F4xx_HAL_Driver/Src/stm32f4xx_hal_uart.c ****     (#) Program the Baud Rate, Word Length, Stop Bit, Parity, Hardware
  55:Drivers/STM32F4xx_HAL_Driver/Src/stm32f4xx_hal_uart.c ****         flow control and Mode(Receiver/Transmitter) in the huart Init structure.
  56:Drivers/STM32F4xx_HAL_Driver/Src/stm32f4xx_hal_uart.c **** 
  57:Drivers/STM32F4xx_HAL_Driver/Src/stm32f4xx_hal_uart.c ****     (#) For the UART asynchronous mode, initialize the UART registers by calling
  58:Drivers/STM32F4xx_HAL_Driver/Src/stm32f4xx_hal_uart.c ****         the HAL_UART_Init() API.
  59:Drivers/STM32F4xx_HAL_Driver/Src/stm32f4xx_hal_uart.c **** 
  60:Drivers/STM32F4xx_HAL_Driver/Src/stm32f4xx_hal_uart.c ****     (#) For the UART Half duplex mode, initialize the UART registers by calling
  61:Drivers/STM32F4xx_HAL_Driver/Src/stm32f4xx_hal_uart.c ****         the HAL_HalfDuplex_Init() API.
  62:Drivers/STM32F4xx_HAL_Driver/Src/stm32f4xx_hal_uart.c **** 
  63:Drivers/STM32F4xx_HAL_Driver/Src/stm32f4xx_hal_uart.c ****     (#) For the LIN mode, initialize the UART registers by calling the HAL_LIN_Init() API.
  64:Drivers/STM32F4xx_HAL_Driver/Src/stm32f4xx_hal_uart.c **** 
  65:Drivers/STM32F4xx_HAL_Driver/Src/stm32f4xx_hal_uart.c ****     (#) For the Multi-Processor mode, initialize the UART registers by calling
  66:Drivers/STM32F4xx_HAL_Driver/Src/stm32f4xx_hal_uart.c ****         the HAL_MultiProcessor_Init() API.
  67:Drivers/STM32F4xx_HAL_Driver/Src/stm32f4xx_hal_uart.c **** 
  68:Drivers/STM32F4xx_HAL_Driver/Src/stm32f4xx_hal_uart.c ****      [..]
  69:Drivers/STM32F4xx_HAL_Driver/Src/stm32f4xx_hal_uart.c ****        (@) The specific UART interrupts (Transmission complete interrupt,
  70:Drivers/STM32F4xx_HAL_Driver/Src/stm32f4xx_hal_uart.c ****             RXNE interrupt and Error Interrupts) will be managed using the macros
  71:Drivers/STM32F4xx_HAL_Driver/Src/stm32f4xx_hal_uart.c ****             __HAL_UART_ENABLE_IT() and __HAL_UART_DISABLE_IT() inside the transmit
  72:Drivers/STM32F4xx_HAL_Driver/Src/stm32f4xx_hal_uart.c ****             and receive process.
  73:Drivers/STM32F4xx_HAL_Driver/Src/stm32f4xx_hal_uart.c **** 
  74:Drivers/STM32F4xx_HAL_Driver/Src/stm32f4xx_hal_uart.c ****      [..]
  75:Drivers/STM32F4xx_HAL_Driver/Src/stm32f4xx_hal_uart.c ****        (@) These APIs (HAL_UART_Init() and HAL_HalfDuplex_Init()) configure also the
  76:Drivers/STM32F4xx_HAL_Driver/Src/stm32f4xx_hal_uart.c ****             low level Hardware GPIO, CLOCK, CORTEX...etc) by calling the customized
  77:Drivers/STM32F4xx_HAL_Driver/Src/stm32f4xx_hal_uart.c ****             HAL_UART_MspInit() API.
  78:Drivers/STM32F4xx_HAL_Driver/Src/stm32f4xx_hal_uart.c **** 
  79:Drivers/STM32F4xx_HAL_Driver/Src/stm32f4xx_hal_uart.c ****     ##### Callback registration #####
  80:Drivers/STM32F4xx_HAL_Driver/Src/stm32f4xx_hal_uart.c ****     ==================================
  81:Drivers/STM32F4xx_HAL_Driver/Src/stm32f4xx_hal_uart.c **** 
  82:Drivers/STM32F4xx_HAL_Driver/Src/stm32f4xx_hal_uart.c ****     [..]
  83:Drivers/STM32F4xx_HAL_Driver/Src/stm32f4xx_hal_uart.c ****     The compilation define USE_HAL_UART_REGISTER_CALLBACKS when set to 1
  84:Drivers/STM32F4xx_HAL_Driver/Src/stm32f4xx_hal_uart.c ****     allows the user to configure dynamically the driver callbacks.
  85:Drivers/STM32F4xx_HAL_Driver/Src/stm32f4xx_hal_uart.c **** 
  86:Drivers/STM32F4xx_HAL_Driver/Src/stm32f4xx_hal_uart.c ****     [..]
  87:Drivers/STM32F4xx_HAL_Driver/Src/stm32f4xx_hal_uart.c ****     Use Function HAL_UART_RegisterCallback() to register a user callback.
ARM GAS  C:\Users\Konrad\AppData\Local\Temp\ccBcBO6H.s 			page 3


  88:Drivers/STM32F4xx_HAL_Driver/Src/stm32f4xx_hal_uart.c ****     Function HAL_UART_RegisterCallback() allows to register following callbacks:
  89:Drivers/STM32F4xx_HAL_Driver/Src/stm32f4xx_hal_uart.c ****     (+) TxHalfCpltCallback        : Tx Half Complete Callback.
  90:Drivers/STM32F4xx_HAL_Driver/Src/stm32f4xx_hal_uart.c ****     (+) TxCpltCallback            : Tx Complete Callback.
  91:Drivers/STM32F4xx_HAL_Driver/Src/stm32f4xx_hal_uart.c ****     (+) RxHalfCpltCallback        : Rx Half Complete Callback.
  92:Drivers/STM32F4xx_HAL_Driver/Src/stm32f4xx_hal_uart.c ****     (+) RxCpltCallback            : Rx Complete Callback.
  93:Drivers/STM32F4xx_HAL_Driver/Src/stm32f4xx_hal_uart.c ****     (+) ErrorCallback             : Error Callback.
  94:Drivers/STM32F4xx_HAL_Driver/Src/stm32f4xx_hal_uart.c ****     (+) AbortCpltCallback         : Abort Complete Callback.
  95:Drivers/STM32F4xx_HAL_Driver/Src/stm32f4xx_hal_uart.c ****     (+) AbortTransmitCpltCallback : Abort Transmit Complete Callback.
  96:Drivers/STM32F4xx_HAL_Driver/Src/stm32f4xx_hal_uart.c ****     (+) AbortReceiveCpltCallback  : Abort Receive Complete Callback.
  97:Drivers/STM32F4xx_HAL_Driver/Src/stm32f4xx_hal_uart.c ****     (+) MspInitCallback           : UART MspInit.
  98:Drivers/STM32F4xx_HAL_Driver/Src/stm32f4xx_hal_uart.c ****     (+) MspDeInitCallback         : UART MspDeInit.
  99:Drivers/STM32F4xx_HAL_Driver/Src/stm32f4xx_hal_uart.c ****     This function takes as parameters the HAL peripheral handle, the Callback ID
 100:Drivers/STM32F4xx_HAL_Driver/Src/stm32f4xx_hal_uart.c ****     and a pointer to the user callback function.
 101:Drivers/STM32F4xx_HAL_Driver/Src/stm32f4xx_hal_uart.c **** 
 102:Drivers/STM32F4xx_HAL_Driver/Src/stm32f4xx_hal_uart.c ****     [..]
 103:Drivers/STM32F4xx_HAL_Driver/Src/stm32f4xx_hal_uart.c ****     Use function HAL_UART_UnRegisterCallback() to reset a callback to the default
 104:Drivers/STM32F4xx_HAL_Driver/Src/stm32f4xx_hal_uart.c ****     weak (surcharged) function.
 105:Drivers/STM32F4xx_HAL_Driver/Src/stm32f4xx_hal_uart.c ****     HAL_UART_UnRegisterCallback() takes as parameters the HAL peripheral handle,
 106:Drivers/STM32F4xx_HAL_Driver/Src/stm32f4xx_hal_uart.c ****     and the Callback ID.
 107:Drivers/STM32F4xx_HAL_Driver/Src/stm32f4xx_hal_uart.c ****     This function allows to reset following callbacks:
 108:Drivers/STM32F4xx_HAL_Driver/Src/stm32f4xx_hal_uart.c ****     (+) TxHalfCpltCallback        : Tx Half Complete Callback.
 109:Drivers/STM32F4xx_HAL_Driver/Src/stm32f4xx_hal_uart.c ****     (+) TxCpltCallback            : Tx Complete Callback.
 110:Drivers/STM32F4xx_HAL_Driver/Src/stm32f4xx_hal_uart.c ****     (+) RxHalfCpltCallback        : Rx Half Complete Callback.
 111:Drivers/STM32F4xx_HAL_Driver/Src/stm32f4xx_hal_uart.c ****     (+) RxCpltCallback            : Rx Complete Callback.
 112:Drivers/STM32F4xx_HAL_Driver/Src/stm32f4xx_hal_uart.c ****     (+) ErrorCallback             : Error Callback.
 113:Drivers/STM32F4xx_HAL_Driver/Src/stm32f4xx_hal_uart.c ****     (+) AbortCpltCallback         : Abort Complete Callback.
 114:Drivers/STM32F4xx_HAL_Driver/Src/stm32f4xx_hal_uart.c ****     (+) AbortTransmitCpltCallback : Abort Transmit Complete Callback.
 115:Drivers/STM32F4xx_HAL_Driver/Src/stm32f4xx_hal_uart.c ****     (+) AbortReceiveCpltCallback  : Abort Receive Complete Callback.
 116:Drivers/STM32F4xx_HAL_Driver/Src/stm32f4xx_hal_uart.c ****     (+) MspInitCallback           : UART MspInit.
 117:Drivers/STM32F4xx_HAL_Driver/Src/stm32f4xx_hal_uart.c ****     (+) MspDeInitCallback         : UART MspDeInit.
 118:Drivers/STM32F4xx_HAL_Driver/Src/stm32f4xx_hal_uart.c **** 
 119:Drivers/STM32F4xx_HAL_Driver/Src/stm32f4xx_hal_uart.c ****     [..]
 120:Drivers/STM32F4xx_HAL_Driver/Src/stm32f4xx_hal_uart.c ****     For specific callback RxEventCallback, use dedicated registration/reset functions:
 121:Drivers/STM32F4xx_HAL_Driver/Src/stm32f4xx_hal_uart.c ****     respectively HAL_UART_RegisterRxEventCallback() , HAL_UART_UnRegisterRxEventCallback().
 122:Drivers/STM32F4xx_HAL_Driver/Src/stm32f4xx_hal_uart.c **** 
 123:Drivers/STM32F4xx_HAL_Driver/Src/stm32f4xx_hal_uart.c ****     [..]
 124:Drivers/STM32F4xx_HAL_Driver/Src/stm32f4xx_hal_uart.c ****     By default, after the HAL_UART_Init() and when the state is HAL_UART_STATE_RESET
 125:Drivers/STM32F4xx_HAL_Driver/Src/stm32f4xx_hal_uart.c ****     all callbacks are set to the corresponding weak (surcharged) functions:
 126:Drivers/STM32F4xx_HAL_Driver/Src/stm32f4xx_hal_uart.c ****     examples HAL_UART_TxCpltCallback(), HAL_UART_RxHalfCpltCallback().
 127:Drivers/STM32F4xx_HAL_Driver/Src/stm32f4xx_hal_uart.c ****     Exception done for MspInit and MspDeInit functions that are respectively
 128:Drivers/STM32F4xx_HAL_Driver/Src/stm32f4xx_hal_uart.c ****     reset to the legacy weak (surcharged) functions in the HAL_UART_Init()
 129:Drivers/STM32F4xx_HAL_Driver/Src/stm32f4xx_hal_uart.c ****     and HAL_UART_DeInit() only when these callbacks are null (not registered beforehand).
 130:Drivers/STM32F4xx_HAL_Driver/Src/stm32f4xx_hal_uart.c ****     If not, MspInit or MspDeInit are not null, the HAL_UART_Init() and HAL_UART_DeInit()
 131:Drivers/STM32F4xx_HAL_Driver/Src/stm32f4xx_hal_uart.c ****     keep and use the user MspInit/MspDeInit callbacks (registered beforehand).
 132:Drivers/STM32F4xx_HAL_Driver/Src/stm32f4xx_hal_uart.c **** 
 133:Drivers/STM32F4xx_HAL_Driver/Src/stm32f4xx_hal_uart.c ****     [..]
 134:Drivers/STM32F4xx_HAL_Driver/Src/stm32f4xx_hal_uart.c ****     Callbacks can be registered/unregistered in HAL_UART_STATE_READY state only.
 135:Drivers/STM32F4xx_HAL_Driver/Src/stm32f4xx_hal_uart.c ****     Exception done MspInit/MspDeInit that can be registered/unregistered
 136:Drivers/STM32F4xx_HAL_Driver/Src/stm32f4xx_hal_uart.c ****     in HAL_UART_STATE_READY or HAL_UART_STATE_RESET state, thus registered (user)
 137:Drivers/STM32F4xx_HAL_Driver/Src/stm32f4xx_hal_uart.c ****     MspInit/DeInit callbacks can be used during the Init/DeInit.
 138:Drivers/STM32F4xx_HAL_Driver/Src/stm32f4xx_hal_uart.c ****     In that case first register the MspInit/MspDeInit user callbacks
 139:Drivers/STM32F4xx_HAL_Driver/Src/stm32f4xx_hal_uart.c ****     using HAL_UART_RegisterCallback() before calling HAL_UART_DeInit()
 140:Drivers/STM32F4xx_HAL_Driver/Src/stm32f4xx_hal_uart.c ****     or HAL_UART_Init() function.
 141:Drivers/STM32F4xx_HAL_Driver/Src/stm32f4xx_hal_uart.c **** 
 142:Drivers/STM32F4xx_HAL_Driver/Src/stm32f4xx_hal_uart.c ****     [..]
 143:Drivers/STM32F4xx_HAL_Driver/Src/stm32f4xx_hal_uart.c ****     When The compilation define USE_HAL_UART_REGISTER_CALLBACKS is set to 0 or
 144:Drivers/STM32F4xx_HAL_Driver/Src/stm32f4xx_hal_uart.c ****     not defined, the callback registration feature is not available
ARM GAS  C:\Users\Konrad\AppData\Local\Temp\ccBcBO6H.s 			page 4


 145:Drivers/STM32F4xx_HAL_Driver/Src/stm32f4xx_hal_uart.c ****     and weak (surcharged) callbacks are used.
 146:Drivers/STM32F4xx_HAL_Driver/Src/stm32f4xx_hal_uart.c **** 
 147:Drivers/STM32F4xx_HAL_Driver/Src/stm32f4xx_hal_uart.c ****      [..]
 148:Drivers/STM32F4xx_HAL_Driver/Src/stm32f4xx_hal_uart.c ****         Three operation modes are available within this driver :
 149:Drivers/STM32F4xx_HAL_Driver/Src/stm32f4xx_hal_uart.c **** 
 150:Drivers/STM32F4xx_HAL_Driver/Src/stm32f4xx_hal_uart.c ****      *** Polling mode IO operation ***
 151:Drivers/STM32F4xx_HAL_Driver/Src/stm32f4xx_hal_uart.c ****      =================================
 152:Drivers/STM32F4xx_HAL_Driver/Src/stm32f4xx_hal_uart.c ****      [..]
 153:Drivers/STM32F4xx_HAL_Driver/Src/stm32f4xx_hal_uart.c ****        (+) Send an amount of data in blocking mode using HAL_UART_Transmit()
 154:Drivers/STM32F4xx_HAL_Driver/Src/stm32f4xx_hal_uart.c ****        (+) Receive an amount of data in blocking mode using HAL_UART_Receive()
 155:Drivers/STM32F4xx_HAL_Driver/Src/stm32f4xx_hal_uart.c **** 
 156:Drivers/STM32F4xx_HAL_Driver/Src/stm32f4xx_hal_uart.c ****      *** Interrupt mode IO operation ***
 157:Drivers/STM32F4xx_HAL_Driver/Src/stm32f4xx_hal_uart.c ****      ===================================
 158:Drivers/STM32F4xx_HAL_Driver/Src/stm32f4xx_hal_uart.c ****      [..]
 159:Drivers/STM32F4xx_HAL_Driver/Src/stm32f4xx_hal_uart.c ****        (+) Send an amount of data in non blocking mode using HAL_UART_Transmit_IT()
 160:Drivers/STM32F4xx_HAL_Driver/Src/stm32f4xx_hal_uart.c ****        (+) At transmission end of transfer HAL_UART_TxCpltCallback is executed and user can
 161:Drivers/STM32F4xx_HAL_Driver/Src/stm32f4xx_hal_uart.c ****             add his own code by customization of function pointer HAL_UART_TxCpltCallback
 162:Drivers/STM32F4xx_HAL_Driver/Src/stm32f4xx_hal_uart.c ****        (+) Receive an amount of data in non blocking mode using HAL_UART_Receive_IT()
 163:Drivers/STM32F4xx_HAL_Driver/Src/stm32f4xx_hal_uart.c ****        (+) At reception end of transfer HAL_UART_RxCpltCallback is executed and user can
 164:Drivers/STM32F4xx_HAL_Driver/Src/stm32f4xx_hal_uart.c ****             add his own code by customization of function pointer HAL_UART_RxCpltCallback
 165:Drivers/STM32F4xx_HAL_Driver/Src/stm32f4xx_hal_uart.c ****        (+) In case of transfer Error, HAL_UART_ErrorCallback() function is executed and user can
 166:Drivers/STM32F4xx_HAL_Driver/Src/stm32f4xx_hal_uart.c ****             add his own code by customization of function pointer HAL_UART_ErrorCallback
 167:Drivers/STM32F4xx_HAL_Driver/Src/stm32f4xx_hal_uart.c **** 
 168:Drivers/STM32F4xx_HAL_Driver/Src/stm32f4xx_hal_uart.c ****      *** DMA mode IO operation ***
 169:Drivers/STM32F4xx_HAL_Driver/Src/stm32f4xx_hal_uart.c ****      ==============================
 170:Drivers/STM32F4xx_HAL_Driver/Src/stm32f4xx_hal_uart.c ****      [..]
 171:Drivers/STM32F4xx_HAL_Driver/Src/stm32f4xx_hal_uart.c ****        (+) Send an amount of data in non blocking mode (DMA) using HAL_UART_Transmit_DMA()
 172:Drivers/STM32F4xx_HAL_Driver/Src/stm32f4xx_hal_uart.c ****        (+) At transmission end of half transfer HAL_UART_TxHalfCpltCallback is executed and user ca
 173:Drivers/STM32F4xx_HAL_Driver/Src/stm32f4xx_hal_uart.c ****             add his own code by customization of function pointer HAL_UART_TxHalfCpltCallback
 174:Drivers/STM32F4xx_HAL_Driver/Src/stm32f4xx_hal_uart.c ****        (+) At transmission end of transfer HAL_UART_TxCpltCallback is executed and user can
 175:Drivers/STM32F4xx_HAL_Driver/Src/stm32f4xx_hal_uart.c ****             add his own code by customization of function pointer HAL_UART_TxCpltCallback
 176:Drivers/STM32F4xx_HAL_Driver/Src/stm32f4xx_hal_uart.c ****        (+) Receive an amount of data in non blocking mode (DMA) using HAL_UART_Receive_DMA()
 177:Drivers/STM32F4xx_HAL_Driver/Src/stm32f4xx_hal_uart.c ****        (+) At reception end of half transfer HAL_UART_RxHalfCpltCallback is executed and user can
 178:Drivers/STM32F4xx_HAL_Driver/Src/stm32f4xx_hal_uart.c ****             add his own code by customization of function pointer HAL_UART_RxHalfCpltCallback
 179:Drivers/STM32F4xx_HAL_Driver/Src/stm32f4xx_hal_uart.c ****        (+) At reception end of transfer HAL_UART_RxCpltCallback is executed and user can
 180:Drivers/STM32F4xx_HAL_Driver/Src/stm32f4xx_hal_uart.c ****             add his own code by customization of function pointer HAL_UART_RxCpltCallback
 181:Drivers/STM32F4xx_HAL_Driver/Src/stm32f4xx_hal_uart.c ****        (+) In case of transfer Error, HAL_UART_ErrorCallback() function is executed and user can
 182:Drivers/STM32F4xx_HAL_Driver/Src/stm32f4xx_hal_uart.c ****             add his own code by customization of function pointer HAL_UART_ErrorCallback
 183:Drivers/STM32F4xx_HAL_Driver/Src/stm32f4xx_hal_uart.c ****        (+) Pause the DMA Transfer using HAL_UART_DMAPause()
 184:Drivers/STM32F4xx_HAL_Driver/Src/stm32f4xx_hal_uart.c ****        (+) Resume the DMA Transfer using HAL_UART_DMAResume()
 185:Drivers/STM32F4xx_HAL_Driver/Src/stm32f4xx_hal_uart.c ****        (+) Stop the DMA Transfer using HAL_UART_DMAStop()
 186:Drivers/STM32F4xx_HAL_Driver/Src/stm32f4xx_hal_uart.c **** 
 187:Drivers/STM32F4xx_HAL_Driver/Src/stm32f4xx_hal_uart.c **** 
 188:Drivers/STM32F4xx_HAL_Driver/Src/stm32f4xx_hal_uart.c ****     [..] This subsection also provides a set of additional functions providing enhanced reception
 189:Drivers/STM32F4xx_HAL_Driver/Src/stm32f4xx_hal_uart.c ****     services to user. (For example, these functions allow application to handle use cases
 190:Drivers/STM32F4xx_HAL_Driver/Src/stm32f4xx_hal_uart.c ****     where number of data to be received is unknown).
 191:Drivers/STM32F4xx_HAL_Driver/Src/stm32f4xx_hal_uart.c **** 
 192:Drivers/STM32F4xx_HAL_Driver/Src/stm32f4xx_hal_uart.c ****     (#) Compared to standard reception services which only consider number of received
 193:Drivers/STM32F4xx_HAL_Driver/Src/stm32f4xx_hal_uart.c ****         data elements as reception completion criteria, these functions also consider additional ev
 194:Drivers/STM32F4xx_HAL_Driver/Src/stm32f4xx_hal_uart.c ****         as triggers for updating reception status to caller :
 195:Drivers/STM32F4xx_HAL_Driver/Src/stm32f4xx_hal_uart.c ****        (+) Detection of inactivity period (RX line has not been active for a given period).
 196:Drivers/STM32F4xx_HAL_Driver/Src/stm32f4xx_hal_uart.c ****           (++) RX inactivity detected by IDLE event, i.e. RX line has been in idle state (normally 
 197:Drivers/STM32F4xx_HAL_Driver/Src/stm32f4xx_hal_uart.c ****                for 1 frame time, after last received byte.
 198:Drivers/STM32F4xx_HAL_Driver/Src/stm32f4xx_hal_uart.c **** 
 199:Drivers/STM32F4xx_HAL_Driver/Src/stm32f4xx_hal_uart.c ****     (#) There are two mode of transfer:
 200:Drivers/STM32F4xx_HAL_Driver/Src/stm32f4xx_hal_uart.c ****        (+) Blocking mode: The reception is performed in polling mode, until either expected number 
 201:Drivers/STM32F4xx_HAL_Driver/Src/stm32f4xx_hal_uart.c ****            or till IDLE event occurs. Reception is handled only during function execution.
ARM GAS  C:\Users\Konrad\AppData\Local\Temp\ccBcBO6H.s 			page 5


 202:Drivers/STM32F4xx_HAL_Driver/Src/stm32f4xx_hal_uart.c ****            When function exits, no data reception could occur. HAL status and number of actually re
 203:Drivers/STM32F4xx_HAL_Driver/Src/stm32f4xx_hal_uart.c ****            are returned by function after finishing transfer.
 204:Drivers/STM32F4xx_HAL_Driver/Src/stm32f4xx_hal_uart.c ****        (+) Non-Blocking mode: The reception is performed using Interrupts or DMA.
 205:Drivers/STM32F4xx_HAL_Driver/Src/stm32f4xx_hal_uart.c ****            These API's return the HAL status.
 206:Drivers/STM32F4xx_HAL_Driver/Src/stm32f4xx_hal_uart.c ****            The end of the data processing will be indicated through the
 207:Drivers/STM32F4xx_HAL_Driver/Src/stm32f4xx_hal_uart.c ****            dedicated UART IRQ when using Interrupt mode or the DMA IRQ when using DMA mode.
 208:Drivers/STM32F4xx_HAL_Driver/Src/stm32f4xx_hal_uart.c ****            The HAL_UARTEx_RxEventCallback() user callback will be executed during Receive process
 209:Drivers/STM32F4xx_HAL_Driver/Src/stm32f4xx_hal_uart.c ****            The HAL_UART_ErrorCallback()user callback will be executed when a reception error is det
 210:Drivers/STM32F4xx_HAL_Driver/Src/stm32f4xx_hal_uart.c **** 
 211:Drivers/STM32F4xx_HAL_Driver/Src/stm32f4xx_hal_uart.c ****     (#) Blocking mode API:
 212:Drivers/STM32F4xx_HAL_Driver/Src/stm32f4xx_hal_uart.c ****         (+) HAL_UARTEx_ReceiveToIdle()
 213:Drivers/STM32F4xx_HAL_Driver/Src/stm32f4xx_hal_uart.c **** 
 214:Drivers/STM32F4xx_HAL_Driver/Src/stm32f4xx_hal_uart.c ****     (#) Non-Blocking mode API with Interrupt:
 215:Drivers/STM32F4xx_HAL_Driver/Src/stm32f4xx_hal_uart.c ****         (+) HAL_UARTEx_ReceiveToIdle_IT()
 216:Drivers/STM32F4xx_HAL_Driver/Src/stm32f4xx_hal_uart.c **** 
 217:Drivers/STM32F4xx_HAL_Driver/Src/stm32f4xx_hal_uart.c ****     (#) Non-Blocking mode API with DMA:
 218:Drivers/STM32F4xx_HAL_Driver/Src/stm32f4xx_hal_uart.c ****         (+) HAL_UARTEx_ReceiveToIdle_DMA()
 219:Drivers/STM32F4xx_HAL_Driver/Src/stm32f4xx_hal_uart.c **** 
 220:Drivers/STM32F4xx_HAL_Driver/Src/stm32f4xx_hal_uart.c **** 
 221:Drivers/STM32F4xx_HAL_Driver/Src/stm32f4xx_hal_uart.c ****      *** UART HAL driver macros list ***
 222:Drivers/STM32F4xx_HAL_Driver/Src/stm32f4xx_hal_uart.c ****      =============================================
 223:Drivers/STM32F4xx_HAL_Driver/Src/stm32f4xx_hal_uart.c ****      [..]
 224:Drivers/STM32F4xx_HAL_Driver/Src/stm32f4xx_hal_uart.c ****        Below the list of most used macros in UART HAL driver.
 225:Drivers/STM32F4xx_HAL_Driver/Src/stm32f4xx_hal_uart.c **** 
 226:Drivers/STM32F4xx_HAL_Driver/Src/stm32f4xx_hal_uart.c ****       (+) __HAL_UART_ENABLE: Enable the UART peripheral
 227:Drivers/STM32F4xx_HAL_Driver/Src/stm32f4xx_hal_uart.c ****       (+) __HAL_UART_DISABLE: Disable the UART peripheral
 228:Drivers/STM32F4xx_HAL_Driver/Src/stm32f4xx_hal_uart.c ****       (+) __HAL_UART_GET_FLAG : Check whether the specified UART flag is set or not
 229:Drivers/STM32F4xx_HAL_Driver/Src/stm32f4xx_hal_uart.c ****       (+) __HAL_UART_CLEAR_FLAG : Clear the specified UART pending flag
 230:Drivers/STM32F4xx_HAL_Driver/Src/stm32f4xx_hal_uart.c ****       (+) __HAL_UART_ENABLE_IT: Enable the specified UART interrupt
 231:Drivers/STM32F4xx_HAL_Driver/Src/stm32f4xx_hal_uart.c ****       (+) __HAL_UART_DISABLE_IT: Disable the specified UART interrupt
 232:Drivers/STM32F4xx_HAL_Driver/Src/stm32f4xx_hal_uart.c ****       (+) __HAL_UART_GET_IT_SOURCE: Check whether the specified UART interrupt has occurred or not
 233:Drivers/STM32F4xx_HAL_Driver/Src/stm32f4xx_hal_uart.c **** 
 234:Drivers/STM32F4xx_HAL_Driver/Src/stm32f4xx_hal_uart.c ****      [..]
 235:Drivers/STM32F4xx_HAL_Driver/Src/stm32f4xx_hal_uart.c ****        (@) You can refer to the UART HAL driver header file for more useful macros
 236:Drivers/STM32F4xx_HAL_Driver/Src/stm32f4xx_hal_uart.c **** 
 237:Drivers/STM32F4xx_HAL_Driver/Src/stm32f4xx_hal_uart.c ****   @endverbatim
 238:Drivers/STM32F4xx_HAL_Driver/Src/stm32f4xx_hal_uart.c ****      [..]
 239:Drivers/STM32F4xx_HAL_Driver/Src/stm32f4xx_hal_uart.c ****        (@) Additional remark: If the parity is enabled, then the MSB bit of the data written
 240:Drivers/STM32F4xx_HAL_Driver/Src/stm32f4xx_hal_uart.c ****            in the data register is transmitted but is changed by the parity bit.
 241:Drivers/STM32F4xx_HAL_Driver/Src/stm32f4xx_hal_uart.c ****            Depending on the frame length defined by the M bit (8-bits or 9-bits),
 242:Drivers/STM32F4xx_HAL_Driver/Src/stm32f4xx_hal_uart.c ****            the possible UART frame formats are as listed in the following table:
 243:Drivers/STM32F4xx_HAL_Driver/Src/stm32f4xx_hal_uart.c ****     +-------------------------------------------------------------+
 244:Drivers/STM32F4xx_HAL_Driver/Src/stm32f4xx_hal_uart.c ****     |   M bit |  PCE bit  |            UART frame                 |
 245:Drivers/STM32F4xx_HAL_Driver/Src/stm32f4xx_hal_uart.c ****     |---------------------|---------------------------------------|
 246:Drivers/STM32F4xx_HAL_Driver/Src/stm32f4xx_hal_uart.c ****     |    0    |    0      |    | SB | 8 bit data | STB |          |
 247:Drivers/STM32F4xx_HAL_Driver/Src/stm32f4xx_hal_uart.c ****     |---------|-----------|---------------------------------------|
 248:Drivers/STM32F4xx_HAL_Driver/Src/stm32f4xx_hal_uart.c ****     |    0    |    1      |    | SB | 7 bit data | PB | STB |     |
 249:Drivers/STM32F4xx_HAL_Driver/Src/stm32f4xx_hal_uart.c ****     |---------|-----------|---------------------------------------|
 250:Drivers/STM32F4xx_HAL_Driver/Src/stm32f4xx_hal_uart.c ****     |    1    |    0      |    | SB | 9 bit data | STB |          |
 251:Drivers/STM32F4xx_HAL_Driver/Src/stm32f4xx_hal_uart.c ****     |---------|-----------|---------------------------------------|
 252:Drivers/STM32F4xx_HAL_Driver/Src/stm32f4xx_hal_uart.c ****     |    1    |    1      |    | SB | 8 bit data | PB | STB |     |
 253:Drivers/STM32F4xx_HAL_Driver/Src/stm32f4xx_hal_uart.c ****     +-------------------------------------------------------------+
 254:Drivers/STM32F4xx_HAL_Driver/Src/stm32f4xx_hal_uart.c ****   ******************************************************************************
 255:Drivers/STM32F4xx_HAL_Driver/Src/stm32f4xx_hal_uart.c ****   */
 256:Drivers/STM32F4xx_HAL_Driver/Src/stm32f4xx_hal_uart.c **** 
 257:Drivers/STM32F4xx_HAL_Driver/Src/stm32f4xx_hal_uart.c **** /* Includes ------------------------------------------------------------------*/
 258:Drivers/STM32F4xx_HAL_Driver/Src/stm32f4xx_hal_uart.c **** #include "stm32f4xx_hal.h"
ARM GAS  C:\Users\Konrad\AppData\Local\Temp\ccBcBO6H.s 			page 6


 259:Drivers/STM32F4xx_HAL_Driver/Src/stm32f4xx_hal_uart.c **** 
 260:Drivers/STM32F4xx_HAL_Driver/Src/stm32f4xx_hal_uart.c **** /** @addtogroup STM32F4xx_HAL_Driver
 261:Drivers/STM32F4xx_HAL_Driver/Src/stm32f4xx_hal_uart.c ****   * @{
 262:Drivers/STM32F4xx_HAL_Driver/Src/stm32f4xx_hal_uart.c ****   */
 263:Drivers/STM32F4xx_HAL_Driver/Src/stm32f4xx_hal_uart.c **** 
 264:Drivers/STM32F4xx_HAL_Driver/Src/stm32f4xx_hal_uart.c **** /** @defgroup UART UART
 265:Drivers/STM32F4xx_HAL_Driver/Src/stm32f4xx_hal_uart.c ****   * @brief HAL UART module driver
 266:Drivers/STM32F4xx_HAL_Driver/Src/stm32f4xx_hal_uart.c ****   * @{
 267:Drivers/STM32F4xx_HAL_Driver/Src/stm32f4xx_hal_uart.c ****   */
 268:Drivers/STM32F4xx_HAL_Driver/Src/stm32f4xx_hal_uart.c **** #ifdef HAL_UART_MODULE_ENABLED
 269:Drivers/STM32F4xx_HAL_Driver/Src/stm32f4xx_hal_uart.c **** 
 270:Drivers/STM32F4xx_HAL_Driver/Src/stm32f4xx_hal_uart.c **** /* Private typedef -----------------------------------------------------------*/
 271:Drivers/STM32F4xx_HAL_Driver/Src/stm32f4xx_hal_uart.c **** /* Private define ------------------------------------------------------------*/
 272:Drivers/STM32F4xx_HAL_Driver/Src/stm32f4xx_hal_uart.c **** /** @addtogroup UART_Private_Constants
 273:Drivers/STM32F4xx_HAL_Driver/Src/stm32f4xx_hal_uart.c ****   * @{
 274:Drivers/STM32F4xx_HAL_Driver/Src/stm32f4xx_hal_uart.c ****   */
 275:Drivers/STM32F4xx_HAL_Driver/Src/stm32f4xx_hal_uart.c **** /**
 276:Drivers/STM32F4xx_HAL_Driver/Src/stm32f4xx_hal_uart.c ****   * @}
 277:Drivers/STM32F4xx_HAL_Driver/Src/stm32f4xx_hal_uart.c ****   */
 278:Drivers/STM32F4xx_HAL_Driver/Src/stm32f4xx_hal_uart.c **** /* Private macro -------------------------------------------------------------*/
 279:Drivers/STM32F4xx_HAL_Driver/Src/stm32f4xx_hal_uart.c **** /* Private variables ---------------------------------------------------------*/
 280:Drivers/STM32F4xx_HAL_Driver/Src/stm32f4xx_hal_uart.c **** /* Private function prototypes -----------------------------------------------*/
 281:Drivers/STM32F4xx_HAL_Driver/Src/stm32f4xx_hal_uart.c **** /** @addtogroup UART_Private_Functions  UART Private Functions
 282:Drivers/STM32F4xx_HAL_Driver/Src/stm32f4xx_hal_uart.c ****   * @{
 283:Drivers/STM32F4xx_HAL_Driver/Src/stm32f4xx_hal_uart.c ****   */
 284:Drivers/STM32F4xx_HAL_Driver/Src/stm32f4xx_hal_uart.c **** 
 285:Drivers/STM32F4xx_HAL_Driver/Src/stm32f4xx_hal_uart.c **** #if (USE_HAL_UART_REGISTER_CALLBACKS == 1)
 286:Drivers/STM32F4xx_HAL_Driver/Src/stm32f4xx_hal_uart.c **** void UART_InitCallbacksToDefault(UART_HandleTypeDef *huart);
 287:Drivers/STM32F4xx_HAL_Driver/Src/stm32f4xx_hal_uart.c **** #endif /* USE_HAL_UART_REGISTER_CALLBACKS */
 288:Drivers/STM32F4xx_HAL_Driver/Src/stm32f4xx_hal_uart.c **** static void UART_EndTxTransfer(UART_HandleTypeDef *huart);
 289:Drivers/STM32F4xx_HAL_Driver/Src/stm32f4xx_hal_uart.c **** static void UART_EndRxTransfer(UART_HandleTypeDef *huart);
 290:Drivers/STM32F4xx_HAL_Driver/Src/stm32f4xx_hal_uart.c **** static void UART_DMATransmitCplt(DMA_HandleTypeDef *hdma);
 291:Drivers/STM32F4xx_HAL_Driver/Src/stm32f4xx_hal_uart.c **** static void UART_DMAReceiveCplt(DMA_HandleTypeDef *hdma);
 292:Drivers/STM32F4xx_HAL_Driver/Src/stm32f4xx_hal_uart.c **** static void UART_DMATxHalfCplt(DMA_HandleTypeDef *hdma);
 293:Drivers/STM32F4xx_HAL_Driver/Src/stm32f4xx_hal_uart.c **** static void UART_DMARxHalfCplt(DMA_HandleTypeDef *hdma);
 294:Drivers/STM32F4xx_HAL_Driver/Src/stm32f4xx_hal_uart.c **** static void UART_DMAError(DMA_HandleTypeDef *hdma);
 295:Drivers/STM32F4xx_HAL_Driver/Src/stm32f4xx_hal_uart.c **** static void UART_DMAAbortOnError(DMA_HandleTypeDef *hdma);
 296:Drivers/STM32F4xx_HAL_Driver/Src/stm32f4xx_hal_uart.c **** static void UART_DMATxAbortCallback(DMA_HandleTypeDef *hdma);
 297:Drivers/STM32F4xx_HAL_Driver/Src/stm32f4xx_hal_uart.c **** static void UART_DMARxAbortCallback(DMA_HandleTypeDef *hdma);
 298:Drivers/STM32F4xx_HAL_Driver/Src/stm32f4xx_hal_uart.c **** static void UART_DMATxOnlyAbortCallback(DMA_HandleTypeDef *hdma);
 299:Drivers/STM32F4xx_HAL_Driver/Src/stm32f4xx_hal_uart.c **** static void UART_DMARxOnlyAbortCallback(DMA_HandleTypeDef *hdma);
 300:Drivers/STM32F4xx_HAL_Driver/Src/stm32f4xx_hal_uart.c **** static HAL_StatusTypeDef UART_Transmit_IT(UART_HandleTypeDef *huart);
 301:Drivers/STM32F4xx_HAL_Driver/Src/stm32f4xx_hal_uart.c **** static HAL_StatusTypeDef UART_EndTransmit_IT(UART_HandleTypeDef *huart);
 302:Drivers/STM32F4xx_HAL_Driver/Src/stm32f4xx_hal_uart.c **** static HAL_StatusTypeDef UART_Receive_IT(UART_HandleTypeDef *huart);
 303:Drivers/STM32F4xx_HAL_Driver/Src/stm32f4xx_hal_uart.c **** static HAL_StatusTypeDef UART_WaitOnFlagUntilTimeout(UART_HandleTypeDef *huart, uint32_t Flag, Flag
 304:Drivers/STM32F4xx_HAL_Driver/Src/stm32f4xx_hal_uart.c ****                                                      uint32_t Tickstart, uint32_t Timeout);
 305:Drivers/STM32F4xx_HAL_Driver/Src/stm32f4xx_hal_uart.c **** static void UART_SetConfig(UART_HandleTypeDef *huart);
 306:Drivers/STM32F4xx_HAL_Driver/Src/stm32f4xx_hal_uart.c **** 
 307:Drivers/STM32F4xx_HAL_Driver/Src/stm32f4xx_hal_uart.c **** /**
 308:Drivers/STM32F4xx_HAL_Driver/Src/stm32f4xx_hal_uart.c ****   * @}
 309:Drivers/STM32F4xx_HAL_Driver/Src/stm32f4xx_hal_uart.c ****   */
 310:Drivers/STM32F4xx_HAL_Driver/Src/stm32f4xx_hal_uart.c **** 
 311:Drivers/STM32F4xx_HAL_Driver/Src/stm32f4xx_hal_uart.c **** /* Exported functions ---------------------------------------------------------*/
 312:Drivers/STM32F4xx_HAL_Driver/Src/stm32f4xx_hal_uart.c **** /** @defgroup UART_Exported_Functions UART Exported Functions
 313:Drivers/STM32F4xx_HAL_Driver/Src/stm32f4xx_hal_uart.c ****   * @{
 314:Drivers/STM32F4xx_HAL_Driver/Src/stm32f4xx_hal_uart.c ****   */
 315:Drivers/STM32F4xx_HAL_Driver/Src/stm32f4xx_hal_uart.c **** 
ARM GAS  C:\Users\Konrad\AppData\Local\Temp\ccBcBO6H.s 			page 7


 316:Drivers/STM32F4xx_HAL_Driver/Src/stm32f4xx_hal_uart.c **** /** @defgroup UART_Exported_Functions_Group1 Initialization and de-initialization functions
 317:Drivers/STM32F4xx_HAL_Driver/Src/stm32f4xx_hal_uart.c ****   *  @brief    Initialization and Configuration functions
 318:Drivers/STM32F4xx_HAL_Driver/Src/stm32f4xx_hal_uart.c ****   *
 319:Drivers/STM32F4xx_HAL_Driver/Src/stm32f4xx_hal_uart.c **** @verbatim
 320:Drivers/STM32F4xx_HAL_Driver/Src/stm32f4xx_hal_uart.c ****  ===============================================================================
 321:Drivers/STM32F4xx_HAL_Driver/Src/stm32f4xx_hal_uart.c ****             ##### Initialization and Configuration functions #####
 322:Drivers/STM32F4xx_HAL_Driver/Src/stm32f4xx_hal_uart.c ****  ===============================================================================
 323:Drivers/STM32F4xx_HAL_Driver/Src/stm32f4xx_hal_uart.c ****     [..]
 324:Drivers/STM32F4xx_HAL_Driver/Src/stm32f4xx_hal_uart.c ****     This subsection provides a set of functions allowing to initialize the USARTx or the UARTy
 325:Drivers/STM32F4xx_HAL_Driver/Src/stm32f4xx_hal_uart.c ****     in asynchronous mode.
 326:Drivers/STM32F4xx_HAL_Driver/Src/stm32f4xx_hal_uart.c ****       (+) For the asynchronous mode only these parameters can be configured:
 327:Drivers/STM32F4xx_HAL_Driver/Src/stm32f4xx_hal_uart.c ****         (++) Baud Rate
 328:Drivers/STM32F4xx_HAL_Driver/Src/stm32f4xx_hal_uart.c ****         (++) Word Length
 329:Drivers/STM32F4xx_HAL_Driver/Src/stm32f4xx_hal_uart.c ****         (++) Stop Bit
 330:Drivers/STM32F4xx_HAL_Driver/Src/stm32f4xx_hal_uart.c ****         (++) Parity: If the parity is enabled, then the MSB bit of the data written
 331:Drivers/STM32F4xx_HAL_Driver/Src/stm32f4xx_hal_uart.c ****              in the data register is transmitted but is changed by the parity bit.
 332:Drivers/STM32F4xx_HAL_Driver/Src/stm32f4xx_hal_uart.c ****              Depending on the frame length defined by the M bit (8-bits or 9-bits),
 333:Drivers/STM32F4xx_HAL_Driver/Src/stm32f4xx_hal_uart.c ****              please refer to Reference manual for possible UART frame formats.
 334:Drivers/STM32F4xx_HAL_Driver/Src/stm32f4xx_hal_uart.c ****         (++) Hardware flow control
 335:Drivers/STM32F4xx_HAL_Driver/Src/stm32f4xx_hal_uart.c ****         (++) Receiver/transmitter modes
 336:Drivers/STM32F4xx_HAL_Driver/Src/stm32f4xx_hal_uart.c ****         (++) Over Sampling Method
 337:Drivers/STM32F4xx_HAL_Driver/Src/stm32f4xx_hal_uart.c ****     [..]
 338:Drivers/STM32F4xx_HAL_Driver/Src/stm32f4xx_hal_uart.c ****     The HAL_UART_Init(), HAL_HalfDuplex_Init(), HAL_LIN_Init() and HAL_MultiProcessor_Init() APIs
 339:Drivers/STM32F4xx_HAL_Driver/Src/stm32f4xx_hal_uart.c ****     follow respectively the UART asynchronous, UART Half duplex, LIN and Multi-Processor configurat
 340:Drivers/STM32F4xx_HAL_Driver/Src/stm32f4xx_hal_uart.c ****     procedures (details for the procedures are available in reference manual
 341:Drivers/STM32F4xx_HAL_Driver/Src/stm32f4xx_hal_uart.c ****     (RM0430 for STM32F4X3xx MCUs and RM0402 for STM32F412xx MCUs
 342:Drivers/STM32F4xx_HAL_Driver/Src/stm32f4xx_hal_uart.c ****      RM0383 for STM32F411xC/E MCUs and RM0401 for STM32F410xx MCUs
 343:Drivers/STM32F4xx_HAL_Driver/Src/stm32f4xx_hal_uart.c ****      RM0090 for STM32F4X5xx/STM32F4X7xx/STM32F429xx/STM32F439xx MCUs
 344:Drivers/STM32F4xx_HAL_Driver/Src/stm32f4xx_hal_uart.c ****      RM0390 for STM32F446xx MCUs and RM0386 for STM32F469xx/STM32F479xx MCUs)).
 345:Drivers/STM32F4xx_HAL_Driver/Src/stm32f4xx_hal_uart.c **** 
 346:Drivers/STM32F4xx_HAL_Driver/Src/stm32f4xx_hal_uart.c **** @endverbatim
 347:Drivers/STM32F4xx_HAL_Driver/Src/stm32f4xx_hal_uart.c ****   * @{
 348:Drivers/STM32F4xx_HAL_Driver/Src/stm32f4xx_hal_uart.c ****   */
 349:Drivers/STM32F4xx_HAL_Driver/Src/stm32f4xx_hal_uart.c **** 
 350:Drivers/STM32F4xx_HAL_Driver/Src/stm32f4xx_hal_uart.c **** /**
 351:Drivers/STM32F4xx_HAL_Driver/Src/stm32f4xx_hal_uart.c ****   * @brief  Initializes the UART mode according to the specified parameters in
 352:Drivers/STM32F4xx_HAL_Driver/Src/stm32f4xx_hal_uart.c ****   *         the UART_InitTypeDef and create the associated handle.
 353:Drivers/STM32F4xx_HAL_Driver/Src/stm32f4xx_hal_uart.c ****   * @param  huart  Pointer to a UART_HandleTypeDef structure that contains
 354:Drivers/STM32F4xx_HAL_Driver/Src/stm32f4xx_hal_uart.c ****   *                the configuration information for the specified UART module.
 355:Drivers/STM32F4xx_HAL_Driver/Src/stm32f4xx_hal_uart.c ****   * @retval HAL status
 356:Drivers/STM32F4xx_HAL_Driver/Src/stm32f4xx_hal_uart.c ****   */
 357:Drivers/STM32F4xx_HAL_Driver/Src/stm32f4xx_hal_uart.c **** HAL_StatusTypeDef HAL_UART_Init(UART_HandleTypeDef *huart)
 358:Drivers/STM32F4xx_HAL_Driver/Src/stm32f4xx_hal_uart.c **** {
 359:Drivers/STM32F4xx_HAL_Driver/Src/stm32f4xx_hal_uart.c ****   /* Check the UART handle allocation */
 360:Drivers/STM32F4xx_HAL_Driver/Src/stm32f4xx_hal_uart.c ****   if (huart == NULL)
 361:Drivers/STM32F4xx_HAL_Driver/Src/stm32f4xx_hal_uart.c ****   {
 362:Drivers/STM32F4xx_HAL_Driver/Src/stm32f4xx_hal_uart.c ****     return HAL_ERROR;
 363:Drivers/STM32F4xx_HAL_Driver/Src/stm32f4xx_hal_uart.c ****   }
 364:Drivers/STM32F4xx_HAL_Driver/Src/stm32f4xx_hal_uart.c **** 
 365:Drivers/STM32F4xx_HAL_Driver/Src/stm32f4xx_hal_uart.c ****   /* Check the parameters */
 366:Drivers/STM32F4xx_HAL_Driver/Src/stm32f4xx_hal_uart.c ****   if (huart->Init.HwFlowCtl != UART_HWCONTROL_NONE)
 367:Drivers/STM32F4xx_HAL_Driver/Src/stm32f4xx_hal_uart.c ****   {
 368:Drivers/STM32F4xx_HAL_Driver/Src/stm32f4xx_hal_uart.c ****     /* The hardware flow control is available only for USART1, USART2, USART3 and USART6.
 369:Drivers/STM32F4xx_HAL_Driver/Src/stm32f4xx_hal_uart.c ****        Except for STM32F446xx devices, that is available for USART1, USART2, USART3, USART6, UART4 
 370:Drivers/STM32F4xx_HAL_Driver/Src/stm32f4xx_hal_uart.c ****     */
 371:Drivers/STM32F4xx_HAL_Driver/Src/stm32f4xx_hal_uart.c ****     assert_param(IS_UART_HWFLOW_INSTANCE(huart->Instance));
 372:Drivers/STM32F4xx_HAL_Driver/Src/stm32f4xx_hal_uart.c ****     assert_param(IS_UART_HARDWARE_FLOW_CONTROL(huart->Init.HwFlowCtl));
ARM GAS  C:\Users\Konrad\AppData\Local\Temp\ccBcBO6H.s 			page 8


 373:Drivers/STM32F4xx_HAL_Driver/Src/stm32f4xx_hal_uart.c ****   }
 374:Drivers/STM32F4xx_HAL_Driver/Src/stm32f4xx_hal_uart.c ****   else
 375:Drivers/STM32F4xx_HAL_Driver/Src/stm32f4xx_hal_uart.c ****   {
 376:Drivers/STM32F4xx_HAL_Driver/Src/stm32f4xx_hal_uart.c ****     assert_param(IS_UART_INSTANCE(huart->Instance));
 377:Drivers/STM32F4xx_HAL_Driver/Src/stm32f4xx_hal_uart.c ****   }
 378:Drivers/STM32F4xx_HAL_Driver/Src/stm32f4xx_hal_uart.c ****   assert_param(IS_UART_WORD_LENGTH(huart->Init.WordLength));
 379:Drivers/STM32F4xx_HAL_Driver/Src/stm32f4xx_hal_uart.c ****   assert_param(IS_UART_OVERSAMPLING(huart->Init.OverSampling));
 380:Drivers/STM32F4xx_HAL_Driver/Src/stm32f4xx_hal_uart.c **** 
 381:Drivers/STM32F4xx_HAL_Driver/Src/stm32f4xx_hal_uart.c ****   if (huart->gState == HAL_UART_STATE_RESET)
 382:Drivers/STM32F4xx_HAL_Driver/Src/stm32f4xx_hal_uart.c ****   {
 383:Drivers/STM32F4xx_HAL_Driver/Src/stm32f4xx_hal_uart.c ****     /* Allocate lock resource and initialize it */
 384:Drivers/STM32F4xx_HAL_Driver/Src/stm32f4xx_hal_uart.c ****     huart->Lock = HAL_UNLOCKED;
 385:Drivers/STM32F4xx_HAL_Driver/Src/stm32f4xx_hal_uart.c **** 
 386:Drivers/STM32F4xx_HAL_Driver/Src/stm32f4xx_hal_uart.c **** #if (USE_HAL_UART_REGISTER_CALLBACKS == 1)
 387:Drivers/STM32F4xx_HAL_Driver/Src/stm32f4xx_hal_uart.c ****     UART_InitCallbacksToDefault(huart);
 388:Drivers/STM32F4xx_HAL_Driver/Src/stm32f4xx_hal_uart.c **** 
 389:Drivers/STM32F4xx_HAL_Driver/Src/stm32f4xx_hal_uart.c ****     if (huart->MspInitCallback == NULL)
 390:Drivers/STM32F4xx_HAL_Driver/Src/stm32f4xx_hal_uart.c ****     {
 391:Drivers/STM32F4xx_HAL_Driver/Src/stm32f4xx_hal_uart.c ****       huart->MspInitCallback = HAL_UART_MspInit;
 392:Drivers/STM32F4xx_HAL_Driver/Src/stm32f4xx_hal_uart.c ****     }
 393:Drivers/STM32F4xx_HAL_Driver/Src/stm32f4xx_hal_uart.c **** 
 394:Drivers/STM32F4xx_HAL_Driver/Src/stm32f4xx_hal_uart.c ****     /* Init the low level hardware */
 395:Drivers/STM32F4xx_HAL_Driver/Src/stm32f4xx_hal_uart.c ****     huart->MspInitCallback(huart);
 396:Drivers/STM32F4xx_HAL_Driver/Src/stm32f4xx_hal_uart.c **** #else
 397:Drivers/STM32F4xx_HAL_Driver/Src/stm32f4xx_hal_uart.c ****     /* Init the low level hardware : GPIO, CLOCK */
 398:Drivers/STM32F4xx_HAL_Driver/Src/stm32f4xx_hal_uart.c ****     HAL_UART_MspInit(huart);
 399:Drivers/STM32F4xx_HAL_Driver/Src/stm32f4xx_hal_uart.c **** #endif /* (USE_HAL_UART_REGISTER_CALLBACKS) */
 400:Drivers/STM32F4xx_HAL_Driver/Src/stm32f4xx_hal_uart.c ****   }
 401:Drivers/STM32F4xx_HAL_Driver/Src/stm32f4xx_hal_uart.c **** 
 402:Drivers/STM32F4xx_HAL_Driver/Src/stm32f4xx_hal_uart.c ****   huart->gState = HAL_UART_STATE_BUSY;
 403:Drivers/STM32F4xx_HAL_Driver/Src/stm32f4xx_hal_uart.c **** 
 404:Drivers/STM32F4xx_HAL_Driver/Src/stm32f4xx_hal_uart.c ****   /* Disable the peripheral */
 405:Drivers/STM32F4xx_HAL_Driver/Src/stm32f4xx_hal_uart.c ****   __HAL_UART_DISABLE(huart);
 406:Drivers/STM32F4xx_HAL_Driver/Src/stm32f4xx_hal_uart.c **** 
 407:Drivers/STM32F4xx_HAL_Driver/Src/stm32f4xx_hal_uart.c ****   /* Set the UART Communication parameters */
 408:Drivers/STM32F4xx_HAL_Driver/Src/stm32f4xx_hal_uart.c ****   UART_SetConfig(huart);
 409:Drivers/STM32F4xx_HAL_Driver/Src/stm32f4xx_hal_uart.c **** 
 410:Drivers/STM32F4xx_HAL_Driver/Src/stm32f4xx_hal_uart.c ****   /* In asynchronous mode, the following bits must be kept cleared:
 411:Drivers/STM32F4xx_HAL_Driver/Src/stm32f4xx_hal_uart.c ****      - LINEN and CLKEN bits in the USART_CR2 register,
 412:Drivers/STM32F4xx_HAL_Driver/Src/stm32f4xx_hal_uart.c ****      - SCEN, HDSEL and IREN  bits in the USART_CR3 register.*/
 413:Drivers/STM32F4xx_HAL_Driver/Src/stm32f4xx_hal_uart.c ****   CLEAR_BIT(huart->Instance->CR2, (USART_CR2_LINEN | USART_CR2_CLKEN));
 414:Drivers/STM32F4xx_HAL_Driver/Src/stm32f4xx_hal_uart.c ****   CLEAR_BIT(huart->Instance->CR3, (USART_CR3_SCEN | USART_CR3_HDSEL | USART_CR3_IREN));
 415:Drivers/STM32F4xx_HAL_Driver/Src/stm32f4xx_hal_uart.c **** 
 416:Drivers/STM32F4xx_HAL_Driver/Src/stm32f4xx_hal_uart.c ****   /* Enable the peripheral */
 417:Drivers/STM32F4xx_HAL_Driver/Src/stm32f4xx_hal_uart.c ****   __HAL_UART_ENABLE(huart);
 418:Drivers/STM32F4xx_HAL_Driver/Src/stm32f4xx_hal_uart.c **** 
 419:Drivers/STM32F4xx_HAL_Driver/Src/stm32f4xx_hal_uart.c ****   /* Initialize the UART state */
 420:Drivers/STM32F4xx_HAL_Driver/Src/stm32f4xx_hal_uart.c ****   huart->ErrorCode = HAL_UART_ERROR_NONE;
 421:Drivers/STM32F4xx_HAL_Driver/Src/stm32f4xx_hal_uart.c ****   huart->gState = HAL_UART_STATE_READY;
 422:Drivers/STM32F4xx_HAL_Driver/Src/stm32f4xx_hal_uart.c ****   huart->RxState = HAL_UART_STATE_READY;
 423:Drivers/STM32F4xx_HAL_Driver/Src/stm32f4xx_hal_uart.c **** 
 424:Drivers/STM32F4xx_HAL_Driver/Src/stm32f4xx_hal_uart.c ****   return HAL_OK;
 425:Drivers/STM32F4xx_HAL_Driver/Src/stm32f4xx_hal_uart.c **** }
 426:Drivers/STM32F4xx_HAL_Driver/Src/stm32f4xx_hal_uart.c **** 
 427:Drivers/STM32F4xx_HAL_Driver/Src/stm32f4xx_hal_uart.c **** /**
 428:Drivers/STM32F4xx_HAL_Driver/Src/stm32f4xx_hal_uart.c ****   * @brief  Initializes the half-duplex mode according to the specified
 429:Drivers/STM32F4xx_HAL_Driver/Src/stm32f4xx_hal_uart.c ****   *         parameters in the UART_InitTypeDef and create the associated handle.
ARM GAS  C:\Users\Konrad\AppData\Local\Temp\ccBcBO6H.s 			page 9


 430:Drivers/STM32F4xx_HAL_Driver/Src/stm32f4xx_hal_uart.c ****   * @param  huart  Pointer to a UART_HandleTypeDef structure that contains
 431:Drivers/STM32F4xx_HAL_Driver/Src/stm32f4xx_hal_uart.c ****   *                the configuration information for the specified UART module.
 432:Drivers/STM32F4xx_HAL_Driver/Src/stm32f4xx_hal_uart.c ****   * @retval HAL status
 433:Drivers/STM32F4xx_HAL_Driver/Src/stm32f4xx_hal_uart.c ****   */
 434:Drivers/STM32F4xx_HAL_Driver/Src/stm32f4xx_hal_uart.c **** HAL_StatusTypeDef HAL_HalfDuplex_Init(UART_HandleTypeDef *huart)
 435:Drivers/STM32F4xx_HAL_Driver/Src/stm32f4xx_hal_uart.c **** {
 436:Drivers/STM32F4xx_HAL_Driver/Src/stm32f4xx_hal_uart.c ****   /* Check the UART handle allocation */
 437:Drivers/STM32F4xx_HAL_Driver/Src/stm32f4xx_hal_uart.c ****   if (huart == NULL)
 438:Drivers/STM32F4xx_HAL_Driver/Src/stm32f4xx_hal_uart.c ****   {
 439:Drivers/STM32F4xx_HAL_Driver/Src/stm32f4xx_hal_uart.c ****     return HAL_ERROR;
 440:Drivers/STM32F4xx_HAL_Driver/Src/stm32f4xx_hal_uart.c ****   }
 441:Drivers/STM32F4xx_HAL_Driver/Src/stm32f4xx_hal_uart.c **** 
 442:Drivers/STM32F4xx_HAL_Driver/Src/stm32f4xx_hal_uart.c ****   /* Check the parameters */
 443:Drivers/STM32F4xx_HAL_Driver/Src/stm32f4xx_hal_uart.c ****   assert_param(IS_UART_HALFDUPLEX_INSTANCE(huart->Instance));
 444:Drivers/STM32F4xx_HAL_Driver/Src/stm32f4xx_hal_uart.c ****   assert_param(IS_UART_WORD_LENGTH(huart->Init.WordLength));
 445:Drivers/STM32F4xx_HAL_Driver/Src/stm32f4xx_hal_uart.c ****   assert_param(IS_UART_OVERSAMPLING(huart->Init.OverSampling));
 446:Drivers/STM32F4xx_HAL_Driver/Src/stm32f4xx_hal_uart.c **** 
 447:Drivers/STM32F4xx_HAL_Driver/Src/stm32f4xx_hal_uart.c ****   if (huart->gState == HAL_UART_STATE_RESET)
 448:Drivers/STM32F4xx_HAL_Driver/Src/stm32f4xx_hal_uart.c ****   {
 449:Drivers/STM32F4xx_HAL_Driver/Src/stm32f4xx_hal_uart.c ****     /* Allocate lock resource and initialize it */
 450:Drivers/STM32F4xx_HAL_Driver/Src/stm32f4xx_hal_uart.c ****     huart->Lock = HAL_UNLOCKED;
 451:Drivers/STM32F4xx_HAL_Driver/Src/stm32f4xx_hal_uart.c **** 
 452:Drivers/STM32F4xx_HAL_Driver/Src/stm32f4xx_hal_uart.c **** #if (USE_HAL_UART_REGISTER_CALLBACKS == 1)
 453:Drivers/STM32F4xx_HAL_Driver/Src/stm32f4xx_hal_uart.c ****     UART_InitCallbacksToDefault(huart);
 454:Drivers/STM32F4xx_HAL_Driver/Src/stm32f4xx_hal_uart.c **** 
 455:Drivers/STM32F4xx_HAL_Driver/Src/stm32f4xx_hal_uart.c ****     if (huart->MspInitCallback == NULL)
 456:Drivers/STM32F4xx_HAL_Driver/Src/stm32f4xx_hal_uart.c ****     {
 457:Drivers/STM32F4xx_HAL_Driver/Src/stm32f4xx_hal_uart.c ****       huart->MspInitCallback = HAL_UART_MspInit;
 458:Drivers/STM32F4xx_HAL_Driver/Src/stm32f4xx_hal_uart.c ****     }
 459:Drivers/STM32F4xx_HAL_Driver/Src/stm32f4xx_hal_uart.c **** 
 460:Drivers/STM32F4xx_HAL_Driver/Src/stm32f4xx_hal_uart.c ****     /* Init the low level hardware */
 461:Drivers/STM32F4xx_HAL_Driver/Src/stm32f4xx_hal_uart.c ****     huart->MspInitCallback(huart);
 462:Drivers/STM32F4xx_HAL_Driver/Src/stm32f4xx_hal_uart.c **** #else
 463:Drivers/STM32F4xx_HAL_Driver/Src/stm32f4xx_hal_uart.c ****     /* Init the low level hardware : GPIO, CLOCK */
 464:Drivers/STM32F4xx_HAL_Driver/Src/stm32f4xx_hal_uart.c ****     HAL_UART_MspInit(huart);
 465:Drivers/STM32F4xx_HAL_Driver/Src/stm32f4xx_hal_uart.c **** #endif /* (USE_HAL_UART_REGISTER_CALLBACKS) */
 466:Drivers/STM32F4xx_HAL_Driver/Src/stm32f4xx_hal_uart.c ****   }
 467:Drivers/STM32F4xx_HAL_Driver/Src/stm32f4xx_hal_uart.c **** 
 468:Drivers/STM32F4xx_HAL_Driver/Src/stm32f4xx_hal_uart.c ****   huart->gState = HAL_UART_STATE_BUSY;
 469:Drivers/STM32F4xx_HAL_Driver/Src/stm32f4xx_hal_uart.c **** 
 470:Drivers/STM32F4xx_HAL_Driver/Src/stm32f4xx_hal_uart.c ****   /* Disable the peripheral */
 471:Drivers/STM32F4xx_HAL_Driver/Src/stm32f4xx_hal_uart.c ****   __HAL_UART_DISABLE(huart);
 472:Drivers/STM32F4xx_HAL_Driver/Src/stm32f4xx_hal_uart.c **** 
 473:Drivers/STM32F4xx_HAL_Driver/Src/stm32f4xx_hal_uart.c ****   /* Set the UART Communication parameters */
 474:Drivers/STM32F4xx_HAL_Driver/Src/stm32f4xx_hal_uart.c ****   UART_SetConfig(huart);
 475:Drivers/STM32F4xx_HAL_Driver/Src/stm32f4xx_hal_uart.c **** 
 476:Drivers/STM32F4xx_HAL_Driver/Src/stm32f4xx_hal_uart.c ****   /* In half-duplex mode, the following bits must be kept cleared:
 477:Drivers/STM32F4xx_HAL_Driver/Src/stm32f4xx_hal_uart.c ****      - LINEN and CLKEN bits in the USART_CR2 register,
 478:Drivers/STM32F4xx_HAL_Driver/Src/stm32f4xx_hal_uart.c ****      - SCEN and IREN bits in the USART_CR3 register.*/
 479:Drivers/STM32F4xx_HAL_Driver/Src/stm32f4xx_hal_uart.c ****   CLEAR_BIT(huart->Instance->CR2, (USART_CR2_LINEN | USART_CR2_CLKEN));
 480:Drivers/STM32F4xx_HAL_Driver/Src/stm32f4xx_hal_uart.c ****   CLEAR_BIT(huart->Instance->CR3, (USART_CR3_IREN | USART_CR3_SCEN));
 481:Drivers/STM32F4xx_HAL_Driver/Src/stm32f4xx_hal_uart.c **** 
 482:Drivers/STM32F4xx_HAL_Driver/Src/stm32f4xx_hal_uart.c ****   /* Enable the Half-Duplex mode by setting the HDSEL bit in the CR3 register */
 483:Drivers/STM32F4xx_HAL_Driver/Src/stm32f4xx_hal_uart.c ****   SET_BIT(huart->Instance->CR3, USART_CR3_HDSEL);
 484:Drivers/STM32F4xx_HAL_Driver/Src/stm32f4xx_hal_uart.c **** 
 485:Drivers/STM32F4xx_HAL_Driver/Src/stm32f4xx_hal_uart.c ****   /* Enable the peripheral */
 486:Drivers/STM32F4xx_HAL_Driver/Src/stm32f4xx_hal_uart.c ****   __HAL_UART_ENABLE(huart);
ARM GAS  C:\Users\Konrad\AppData\Local\Temp\ccBcBO6H.s 			page 10


 487:Drivers/STM32F4xx_HAL_Driver/Src/stm32f4xx_hal_uart.c **** 
 488:Drivers/STM32F4xx_HAL_Driver/Src/stm32f4xx_hal_uart.c ****   /* Initialize the UART state*/
 489:Drivers/STM32F4xx_HAL_Driver/Src/stm32f4xx_hal_uart.c ****   huart->ErrorCode = HAL_UART_ERROR_NONE;
 490:Drivers/STM32F4xx_HAL_Driver/Src/stm32f4xx_hal_uart.c ****   huart->gState = HAL_UART_STATE_READY;
 491:Drivers/STM32F4xx_HAL_Driver/Src/stm32f4xx_hal_uart.c ****   huart->RxState = HAL_UART_STATE_READY;
 492:Drivers/STM32F4xx_HAL_Driver/Src/stm32f4xx_hal_uart.c **** 
 493:Drivers/STM32F4xx_HAL_Driver/Src/stm32f4xx_hal_uart.c ****   return HAL_OK;
 494:Drivers/STM32F4xx_HAL_Driver/Src/stm32f4xx_hal_uart.c **** }
 495:Drivers/STM32F4xx_HAL_Driver/Src/stm32f4xx_hal_uart.c **** 
 496:Drivers/STM32F4xx_HAL_Driver/Src/stm32f4xx_hal_uart.c **** /**
 497:Drivers/STM32F4xx_HAL_Driver/Src/stm32f4xx_hal_uart.c ****   * @brief  Initializes the LIN mode according to the specified
 498:Drivers/STM32F4xx_HAL_Driver/Src/stm32f4xx_hal_uart.c ****   *         parameters in the UART_InitTypeDef and create the associated handle.
 499:Drivers/STM32F4xx_HAL_Driver/Src/stm32f4xx_hal_uart.c ****   * @param  huart  Pointer to a UART_HandleTypeDef structure that contains
 500:Drivers/STM32F4xx_HAL_Driver/Src/stm32f4xx_hal_uart.c ****   *                the configuration information for the specified UART module.
 501:Drivers/STM32F4xx_HAL_Driver/Src/stm32f4xx_hal_uart.c ****   * @param  BreakDetectLength Specifies the LIN break detection length.
 502:Drivers/STM32F4xx_HAL_Driver/Src/stm32f4xx_hal_uart.c ****   *         This parameter can be one of the following values:
 503:Drivers/STM32F4xx_HAL_Driver/Src/stm32f4xx_hal_uart.c ****   *            @arg UART_LINBREAKDETECTLENGTH_10B: 10-bit break detection
 504:Drivers/STM32F4xx_HAL_Driver/Src/stm32f4xx_hal_uart.c ****   *            @arg UART_LINBREAKDETECTLENGTH_11B: 11-bit break detection
 505:Drivers/STM32F4xx_HAL_Driver/Src/stm32f4xx_hal_uart.c ****   * @retval HAL status
 506:Drivers/STM32F4xx_HAL_Driver/Src/stm32f4xx_hal_uart.c ****   */
 507:Drivers/STM32F4xx_HAL_Driver/Src/stm32f4xx_hal_uart.c **** HAL_StatusTypeDef HAL_LIN_Init(UART_HandleTypeDef *huart, uint32_t BreakDetectLength)
 508:Drivers/STM32F4xx_HAL_Driver/Src/stm32f4xx_hal_uart.c **** {
 509:Drivers/STM32F4xx_HAL_Driver/Src/stm32f4xx_hal_uart.c ****   /* Check the UART handle allocation */
 510:Drivers/STM32F4xx_HAL_Driver/Src/stm32f4xx_hal_uart.c ****   if (huart == NULL)
 511:Drivers/STM32F4xx_HAL_Driver/Src/stm32f4xx_hal_uart.c ****   {
 512:Drivers/STM32F4xx_HAL_Driver/Src/stm32f4xx_hal_uart.c ****     return HAL_ERROR;
 513:Drivers/STM32F4xx_HAL_Driver/Src/stm32f4xx_hal_uart.c ****   }
 514:Drivers/STM32F4xx_HAL_Driver/Src/stm32f4xx_hal_uart.c **** 
 515:Drivers/STM32F4xx_HAL_Driver/Src/stm32f4xx_hal_uart.c ****   /* Check the LIN UART instance */
 516:Drivers/STM32F4xx_HAL_Driver/Src/stm32f4xx_hal_uart.c ****   assert_param(IS_UART_LIN_INSTANCE(huart->Instance));
 517:Drivers/STM32F4xx_HAL_Driver/Src/stm32f4xx_hal_uart.c **** 
 518:Drivers/STM32F4xx_HAL_Driver/Src/stm32f4xx_hal_uart.c ****   /* Check the Break detection length parameter */
 519:Drivers/STM32F4xx_HAL_Driver/Src/stm32f4xx_hal_uart.c ****   assert_param(IS_UART_LIN_BREAK_DETECT_LENGTH(BreakDetectLength));
 520:Drivers/STM32F4xx_HAL_Driver/Src/stm32f4xx_hal_uart.c ****   assert_param(IS_UART_LIN_WORD_LENGTH(huart->Init.WordLength));
 521:Drivers/STM32F4xx_HAL_Driver/Src/stm32f4xx_hal_uart.c ****   assert_param(IS_UART_LIN_OVERSAMPLING(huart->Init.OverSampling));
 522:Drivers/STM32F4xx_HAL_Driver/Src/stm32f4xx_hal_uart.c **** 
 523:Drivers/STM32F4xx_HAL_Driver/Src/stm32f4xx_hal_uart.c ****   if (huart->gState == HAL_UART_STATE_RESET)
 524:Drivers/STM32F4xx_HAL_Driver/Src/stm32f4xx_hal_uart.c ****   {
 525:Drivers/STM32F4xx_HAL_Driver/Src/stm32f4xx_hal_uart.c ****     /* Allocate lock resource and initialize it */
 526:Drivers/STM32F4xx_HAL_Driver/Src/stm32f4xx_hal_uart.c ****     huart->Lock = HAL_UNLOCKED;
 527:Drivers/STM32F4xx_HAL_Driver/Src/stm32f4xx_hal_uart.c **** 
 528:Drivers/STM32F4xx_HAL_Driver/Src/stm32f4xx_hal_uart.c **** #if (USE_HAL_UART_REGISTER_CALLBACKS == 1)
 529:Drivers/STM32F4xx_HAL_Driver/Src/stm32f4xx_hal_uart.c ****     UART_InitCallbacksToDefault(huart);
 530:Drivers/STM32F4xx_HAL_Driver/Src/stm32f4xx_hal_uart.c **** 
 531:Drivers/STM32F4xx_HAL_Driver/Src/stm32f4xx_hal_uart.c ****     if (huart->MspInitCallback == NULL)
 532:Drivers/STM32F4xx_HAL_Driver/Src/stm32f4xx_hal_uart.c ****     {
 533:Drivers/STM32F4xx_HAL_Driver/Src/stm32f4xx_hal_uart.c ****       huart->MspInitCallback = HAL_UART_MspInit;
 534:Drivers/STM32F4xx_HAL_Driver/Src/stm32f4xx_hal_uart.c ****     }
 535:Drivers/STM32F4xx_HAL_Driver/Src/stm32f4xx_hal_uart.c **** 
 536:Drivers/STM32F4xx_HAL_Driver/Src/stm32f4xx_hal_uart.c ****     /* Init the low level hardware */
 537:Drivers/STM32F4xx_HAL_Driver/Src/stm32f4xx_hal_uart.c ****     huart->MspInitCallback(huart);
 538:Drivers/STM32F4xx_HAL_Driver/Src/stm32f4xx_hal_uart.c **** #else
 539:Drivers/STM32F4xx_HAL_Driver/Src/stm32f4xx_hal_uart.c ****     /* Init the low level hardware : GPIO, CLOCK */
 540:Drivers/STM32F4xx_HAL_Driver/Src/stm32f4xx_hal_uart.c ****     HAL_UART_MspInit(huart);
 541:Drivers/STM32F4xx_HAL_Driver/Src/stm32f4xx_hal_uart.c **** #endif /* (USE_HAL_UART_REGISTER_CALLBACKS) */
 542:Drivers/STM32F4xx_HAL_Driver/Src/stm32f4xx_hal_uart.c ****   }
 543:Drivers/STM32F4xx_HAL_Driver/Src/stm32f4xx_hal_uart.c **** 
ARM GAS  C:\Users\Konrad\AppData\Local\Temp\ccBcBO6H.s 			page 11


 544:Drivers/STM32F4xx_HAL_Driver/Src/stm32f4xx_hal_uart.c ****   huart->gState = HAL_UART_STATE_BUSY;
 545:Drivers/STM32F4xx_HAL_Driver/Src/stm32f4xx_hal_uart.c **** 
 546:Drivers/STM32F4xx_HAL_Driver/Src/stm32f4xx_hal_uart.c ****   /* Disable the peripheral */
 547:Drivers/STM32F4xx_HAL_Driver/Src/stm32f4xx_hal_uart.c ****   __HAL_UART_DISABLE(huart);
 548:Drivers/STM32F4xx_HAL_Driver/Src/stm32f4xx_hal_uart.c **** 
 549:Drivers/STM32F4xx_HAL_Driver/Src/stm32f4xx_hal_uart.c ****   /* Set the UART Communication parameters */
 550:Drivers/STM32F4xx_HAL_Driver/Src/stm32f4xx_hal_uart.c ****   UART_SetConfig(huart);
 551:Drivers/STM32F4xx_HAL_Driver/Src/stm32f4xx_hal_uart.c **** 
 552:Drivers/STM32F4xx_HAL_Driver/Src/stm32f4xx_hal_uart.c ****   /* In LIN mode, the following bits must be kept cleared:
 553:Drivers/STM32F4xx_HAL_Driver/Src/stm32f4xx_hal_uart.c ****      - CLKEN bits in the USART_CR2 register,
 554:Drivers/STM32F4xx_HAL_Driver/Src/stm32f4xx_hal_uart.c ****      - SCEN, HDSEL and IREN bits in the USART_CR3 register.*/
 555:Drivers/STM32F4xx_HAL_Driver/Src/stm32f4xx_hal_uart.c ****   CLEAR_BIT(huart->Instance->CR2, (USART_CR2_CLKEN));
 556:Drivers/STM32F4xx_HAL_Driver/Src/stm32f4xx_hal_uart.c ****   CLEAR_BIT(huart->Instance->CR3, (USART_CR3_HDSEL | USART_CR3_IREN | USART_CR3_SCEN));
 557:Drivers/STM32F4xx_HAL_Driver/Src/stm32f4xx_hal_uart.c **** 
 558:Drivers/STM32F4xx_HAL_Driver/Src/stm32f4xx_hal_uart.c ****   /* Enable the LIN mode by setting the LINEN bit in the CR2 register */
 559:Drivers/STM32F4xx_HAL_Driver/Src/stm32f4xx_hal_uart.c ****   SET_BIT(huart->Instance->CR2, USART_CR2_LINEN);
 560:Drivers/STM32F4xx_HAL_Driver/Src/stm32f4xx_hal_uart.c **** 
 561:Drivers/STM32F4xx_HAL_Driver/Src/stm32f4xx_hal_uart.c ****   /* Set the USART LIN Break detection length. */
 562:Drivers/STM32F4xx_HAL_Driver/Src/stm32f4xx_hal_uart.c ****   CLEAR_BIT(huart->Instance->CR2, USART_CR2_LBDL);
 563:Drivers/STM32F4xx_HAL_Driver/Src/stm32f4xx_hal_uart.c ****   SET_BIT(huart->Instance->CR2, BreakDetectLength);
 564:Drivers/STM32F4xx_HAL_Driver/Src/stm32f4xx_hal_uart.c **** 
 565:Drivers/STM32F4xx_HAL_Driver/Src/stm32f4xx_hal_uart.c ****   /* Enable the peripheral */
 566:Drivers/STM32F4xx_HAL_Driver/Src/stm32f4xx_hal_uart.c ****   __HAL_UART_ENABLE(huart);
 567:Drivers/STM32F4xx_HAL_Driver/Src/stm32f4xx_hal_uart.c **** 
 568:Drivers/STM32F4xx_HAL_Driver/Src/stm32f4xx_hal_uart.c ****   /* Initialize the UART state*/
 569:Drivers/STM32F4xx_HAL_Driver/Src/stm32f4xx_hal_uart.c ****   huart->ErrorCode = HAL_UART_ERROR_NONE;
 570:Drivers/STM32F4xx_HAL_Driver/Src/stm32f4xx_hal_uart.c ****   huart->gState = HAL_UART_STATE_READY;
 571:Drivers/STM32F4xx_HAL_Driver/Src/stm32f4xx_hal_uart.c ****   huart->RxState = HAL_UART_STATE_READY;
 572:Drivers/STM32F4xx_HAL_Driver/Src/stm32f4xx_hal_uart.c **** 
 573:Drivers/STM32F4xx_HAL_Driver/Src/stm32f4xx_hal_uart.c ****   return HAL_OK;
 574:Drivers/STM32F4xx_HAL_Driver/Src/stm32f4xx_hal_uart.c **** }
 575:Drivers/STM32F4xx_HAL_Driver/Src/stm32f4xx_hal_uart.c **** 
 576:Drivers/STM32F4xx_HAL_Driver/Src/stm32f4xx_hal_uart.c **** /**
 577:Drivers/STM32F4xx_HAL_Driver/Src/stm32f4xx_hal_uart.c ****   * @brief  Initializes the Multi-Processor mode according to the specified
 578:Drivers/STM32F4xx_HAL_Driver/Src/stm32f4xx_hal_uart.c ****   *         parameters in the UART_InitTypeDef and create the associated handle.
 579:Drivers/STM32F4xx_HAL_Driver/Src/stm32f4xx_hal_uart.c ****   * @param  huart  Pointer to a UART_HandleTypeDef structure that contains
 580:Drivers/STM32F4xx_HAL_Driver/Src/stm32f4xx_hal_uart.c ****   *                the configuration information for the specified UART module.
 581:Drivers/STM32F4xx_HAL_Driver/Src/stm32f4xx_hal_uart.c ****   * @param  Address USART address
 582:Drivers/STM32F4xx_HAL_Driver/Src/stm32f4xx_hal_uart.c ****   * @param  WakeUpMethod specifies the USART wake-up method.
 583:Drivers/STM32F4xx_HAL_Driver/Src/stm32f4xx_hal_uart.c ****   *         This parameter can be one of the following values:
 584:Drivers/STM32F4xx_HAL_Driver/Src/stm32f4xx_hal_uart.c ****   *            @arg UART_WAKEUPMETHOD_IDLELINE: Wake-up by an idle line detection
 585:Drivers/STM32F4xx_HAL_Driver/Src/stm32f4xx_hal_uart.c ****   *            @arg UART_WAKEUPMETHOD_ADDRESSMARK: Wake-up by an address mark
 586:Drivers/STM32F4xx_HAL_Driver/Src/stm32f4xx_hal_uart.c ****   * @retval HAL status
 587:Drivers/STM32F4xx_HAL_Driver/Src/stm32f4xx_hal_uart.c ****   */
 588:Drivers/STM32F4xx_HAL_Driver/Src/stm32f4xx_hal_uart.c **** HAL_StatusTypeDef HAL_MultiProcessor_Init(UART_HandleTypeDef *huart, uint8_t Address, uint32_t Wake
 589:Drivers/STM32F4xx_HAL_Driver/Src/stm32f4xx_hal_uart.c **** {
 590:Drivers/STM32F4xx_HAL_Driver/Src/stm32f4xx_hal_uart.c ****   /* Check the UART handle allocation */
 591:Drivers/STM32F4xx_HAL_Driver/Src/stm32f4xx_hal_uart.c ****   if (huart == NULL)
 592:Drivers/STM32F4xx_HAL_Driver/Src/stm32f4xx_hal_uart.c ****   {
 593:Drivers/STM32F4xx_HAL_Driver/Src/stm32f4xx_hal_uart.c ****     return HAL_ERROR;
 594:Drivers/STM32F4xx_HAL_Driver/Src/stm32f4xx_hal_uart.c ****   }
 595:Drivers/STM32F4xx_HAL_Driver/Src/stm32f4xx_hal_uart.c **** 
 596:Drivers/STM32F4xx_HAL_Driver/Src/stm32f4xx_hal_uart.c ****   /* Check the parameters */
 597:Drivers/STM32F4xx_HAL_Driver/Src/stm32f4xx_hal_uart.c ****   assert_param(IS_UART_INSTANCE(huart->Instance));
 598:Drivers/STM32F4xx_HAL_Driver/Src/stm32f4xx_hal_uart.c **** 
 599:Drivers/STM32F4xx_HAL_Driver/Src/stm32f4xx_hal_uart.c ****   /* Check the Address & wake up method parameters */
 600:Drivers/STM32F4xx_HAL_Driver/Src/stm32f4xx_hal_uart.c ****   assert_param(IS_UART_WAKEUPMETHOD(WakeUpMethod));
ARM GAS  C:\Users\Konrad\AppData\Local\Temp\ccBcBO6H.s 			page 12


 601:Drivers/STM32F4xx_HAL_Driver/Src/stm32f4xx_hal_uart.c ****   assert_param(IS_UART_ADDRESS(Address));
 602:Drivers/STM32F4xx_HAL_Driver/Src/stm32f4xx_hal_uart.c ****   assert_param(IS_UART_WORD_LENGTH(huart->Init.WordLength));
 603:Drivers/STM32F4xx_HAL_Driver/Src/stm32f4xx_hal_uart.c ****   assert_param(IS_UART_OVERSAMPLING(huart->Init.OverSampling));
 604:Drivers/STM32F4xx_HAL_Driver/Src/stm32f4xx_hal_uart.c **** 
 605:Drivers/STM32F4xx_HAL_Driver/Src/stm32f4xx_hal_uart.c ****   if (huart->gState == HAL_UART_STATE_RESET)
 606:Drivers/STM32F4xx_HAL_Driver/Src/stm32f4xx_hal_uart.c ****   {
 607:Drivers/STM32F4xx_HAL_Driver/Src/stm32f4xx_hal_uart.c ****     /* Allocate lock resource and initialize it */
 608:Drivers/STM32F4xx_HAL_Driver/Src/stm32f4xx_hal_uart.c ****     huart->Lock = HAL_UNLOCKED;
 609:Drivers/STM32F4xx_HAL_Driver/Src/stm32f4xx_hal_uart.c **** 
 610:Drivers/STM32F4xx_HAL_Driver/Src/stm32f4xx_hal_uart.c **** #if (USE_HAL_UART_REGISTER_CALLBACKS == 1)
 611:Drivers/STM32F4xx_HAL_Driver/Src/stm32f4xx_hal_uart.c ****     UART_InitCallbacksToDefault(huart);
 612:Drivers/STM32F4xx_HAL_Driver/Src/stm32f4xx_hal_uart.c **** 
 613:Drivers/STM32F4xx_HAL_Driver/Src/stm32f4xx_hal_uart.c ****     if (huart->MspInitCallback == NULL)
 614:Drivers/STM32F4xx_HAL_Driver/Src/stm32f4xx_hal_uart.c ****     {
 615:Drivers/STM32F4xx_HAL_Driver/Src/stm32f4xx_hal_uart.c ****       huart->MspInitCallback = HAL_UART_MspInit;
 616:Drivers/STM32F4xx_HAL_Driver/Src/stm32f4xx_hal_uart.c ****     }
 617:Drivers/STM32F4xx_HAL_Driver/Src/stm32f4xx_hal_uart.c **** 
 618:Drivers/STM32F4xx_HAL_Driver/Src/stm32f4xx_hal_uart.c ****     /* Init the low level hardware */
 619:Drivers/STM32F4xx_HAL_Driver/Src/stm32f4xx_hal_uart.c ****     huart->MspInitCallback(huart);
 620:Drivers/STM32F4xx_HAL_Driver/Src/stm32f4xx_hal_uart.c **** #else
 621:Drivers/STM32F4xx_HAL_Driver/Src/stm32f4xx_hal_uart.c ****     /* Init the low level hardware : GPIO, CLOCK */
 622:Drivers/STM32F4xx_HAL_Driver/Src/stm32f4xx_hal_uart.c ****     HAL_UART_MspInit(huart);
 623:Drivers/STM32F4xx_HAL_Driver/Src/stm32f4xx_hal_uart.c **** #endif /* (USE_HAL_UART_REGISTER_CALLBACKS) */
 624:Drivers/STM32F4xx_HAL_Driver/Src/stm32f4xx_hal_uart.c ****   }
 625:Drivers/STM32F4xx_HAL_Driver/Src/stm32f4xx_hal_uart.c **** 
 626:Drivers/STM32F4xx_HAL_Driver/Src/stm32f4xx_hal_uart.c ****   huart->gState = HAL_UART_STATE_BUSY;
 627:Drivers/STM32F4xx_HAL_Driver/Src/stm32f4xx_hal_uart.c **** 
 628:Drivers/STM32F4xx_HAL_Driver/Src/stm32f4xx_hal_uart.c ****   /* Disable the peripheral */
 629:Drivers/STM32F4xx_HAL_Driver/Src/stm32f4xx_hal_uart.c ****   __HAL_UART_DISABLE(huart);
 630:Drivers/STM32F4xx_HAL_Driver/Src/stm32f4xx_hal_uart.c **** 
 631:Drivers/STM32F4xx_HAL_Driver/Src/stm32f4xx_hal_uart.c ****   /* Set the UART Communication parameters */
 632:Drivers/STM32F4xx_HAL_Driver/Src/stm32f4xx_hal_uart.c ****   UART_SetConfig(huart);
 633:Drivers/STM32F4xx_HAL_Driver/Src/stm32f4xx_hal_uart.c **** 
 634:Drivers/STM32F4xx_HAL_Driver/Src/stm32f4xx_hal_uart.c ****   /* In Multi-Processor mode, the following bits must be kept cleared:
 635:Drivers/STM32F4xx_HAL_Driver/Src/stm32f4xx_hal_uart.c ****      - LINEN and CLKEN bits in the USART_CR2 register,
 636:Drivers/STM32F4xx_HAL_Driver/Src/stm32f4xx_hal_uart.c ****      - SCEN, HDSEL and IREN  bits in the USART_CR3 register */
 637:Drivers/STM32F4xx_HAL_Driver/Src/stm32f4xx_hal_uart.c ****   CLEAR_BIT(huart->Instance->CR2, (USART_CR2_LINEN | USART_CR2_CLKEN));
 638:Drivers/STM32F4xx_HAL_Driver/Src/stm32f4xx_hal_uart.c ****   CLEAR_BIT(huart->Instance->CR3, (USART_CR3_SCEN | USART_CR3_HDSEL | USART_CR3_IREN));
 639:Drivers/STM32F4xx_HAL_Driver/Src/stm32f4xx_hal_uart.c **** 
 640:Drivers/STM32F4xx_HAL_Driver/Src/stm32f4xx_hal_uart.c ****   /* Set the USART address node */
 641:Drivers/STM32F4xx_HAL_Driver/Src/stm32f4xx_hal_uart.c ****   CLEAR_BIT(huart->Instance->CR2, USART_CR2_ADD);
 642:Drivers/STM32F4xx_HAL_Driver/Src/stm32f4xx_hal_uart.c ****   SET_BIT(huart->Instance->CR2, Address);
 643:Drivers/STM32F4xx_HAL_Driver/Src/stm32f4xx_hal_uart.c **** 
 644:Drivers/STM32F4xx_HAL_Driver/Src/stm32f4xx_hal_uart.c ****   /* Set the wake up method by setting the WAKE bit in the CR1 register */
 645:Drivers/STM32F4xx_HAL_Driver/Src/stm32f4xx_hal_uart.c ****   CLEAR_BIT(huart->Instance->CR1, USART_CR1_WAKE);
 646:Drivers/STM32F4xx_HAL_Driver/Src/stm32f4xx_hal_uart.c ****   SET_BIT(huart->Instance->CR1, WakeUpMethod);
 647:Drivers/STM32F4xx_HAL_Driver/Src/stm32f4xx_hal_uart.c **** 
 648:Drivers/STM32F4xx_HAL_Driver/Src/stm32f4xx_hal_uart.c ****   /* Enable the peripheral */
 649:Drivers/STM32F4xx_HAL_Driver/Src/stm32f4xx_hal_uart.c ****   __HAL_UART_ENABLE(huart);
 650:Drivers/STM32F4xx_HAL_Driver/Src/stm32f4xx_hal_uart.c **** 
 651:Drivers/STM32F4xx_HAL_Driver/Src/stm32f4xx_hal_uart.c ****   /* Initialize the UART state */
 652:Drivers/STM32F4xx_HAL_Driver/Src/stm32f4xx_hal_uart.c ****   huart->ErrorCode = HAL_UART_ERROR_NONE;
 653:Drivers/STM32F4xx_HAL_Driver/Src/stm32f4xx_hal_uart.c ****   huart->gState = HAL_UART_STATE_READY;
 654:Drivers/STM32F4xx_HAL_Driver/Src/stm32f4xx_hal_uart.c ****   huart->RxState = HAL_UART_STATE_READY;
 655:Drivers/STM32F4xx_HAL_Driver/Src/stm32f4xx_hal_uart.c **** 
 656:Drivers/STM32F4xx_HAL_Driver/Src/stm32f4xx_hal_uart.c ****   return HAL_OK;
 657:Drivers/STM32F4xx_HAL_Driver/Src/stm32f4xx_hal_uart.c **** }
ARM GAS  C:\Users\Konrad\AppData\Local\Temp\ccBcBO6H.s 			page 13


 658:Drivers/STM32F4xx_HAL_Driver/Src/stm32f4xx_hal_uart.c **** 
 659:Drivers/STM32F4xx_HAL_Driver/Src/stm32f4xx_hal_uart.c **** /**
 660:Drivers/STM32F4xx_HAL_Driver/Src/stm32f4xx_hal_uart.c ****   * @brief  DeInitializes the UART peripheral.
 661:Drivers/STM32F4xx_HAL_Driver/Src/stm32f4xx_hal_uart.c ****   * @param  huart  Pointer to a UART_HandleTypeDef structure that contains
 662:Drivers/STM32F4xx_HAL_Driver/Src/stm32f4xx_hal_uart.c ****   *                the configuration information for the specified UART module.
 663:Drivers/STM32F4xx_HAL_Driver/Src/stm32f4xx_hal_uart.c ****   * @retval HAL status
 664:Drivers/STM32F4xx_HAL_Driver/Src/stm32f4xx_hal_uart.c ****   */
 665:Drivers/STM32F4xx_HAL_Driver/Src/stm32f4xx_hal_uart.c **** HAL_StatusTypeDef HAL_UART_DeInit(UART_HandleTypeDef *huart)
 666:Drivers/STM32F4xx_HAL_Driver/Src/stm32f4xx_hal_uart.c **** {
 667:Drivers/STM32F4xx_HAL_Driver/Src/stm32f4xx_hal_uart.c ****   /* Check the UART handle allocation */
 668:Drivers/STM32F4xx_HAL_Driver/Src/stm32f4xx_hal_uart.c ****   if (huart == NULL)
 669:Drivers/STM32F4xx_HAL_Driver/Src/stm32f4xx_hal_uart.c ****   {
 670:Drivers/STM32F4xx_HAL_Driver/Src/stm32f4xx_hal_uart.c ****     return HAL_ERROR;
 671:Drivers/STM32F4xx_HAL_Driver/Src/stm32f4xx_hal_uart.c ****   }
 672:Drivers/STM32F4xx_HAL_Driver/Src/stm32f4xx_hal_uart.c **** 
 673:Drivers/STM32F4xx_HAL_Driver/Src/stm32f4xx_hal_uart.c ****   /* Check the parameters */
 674:Drivers/STM32F4xx_HAL_Driver/Src/stm32f4xx_hal_uart.c ****   assert_param(IS_UART_INSTANCE(huart->Instance));
 675:Drivers/STM32F4xx_HAL_Driver/Src/stm32f4xx_hal_uart.c **** 
 676:Drivers/STM32F4xx_HAL_Driver/Src/stm32f4xx_hal_uart.c ****   huart->gState = HAL_UART_STATE_BUSY;
 677:Drivers/STM32F4xx_HAL_Driver/Src/stm32f4xx_hal_uart.c **** 
 678:Drivers/STM32F4xx_HAL_Driver/Src/stm32f4xx_hal_uart.c ****   /* Disable the Peripheral */
 679:Drivers/STM32F4xx_HAL_Driver/Src/stm32f4xx_hal_uart.c ****   __HAL_UART_DISABLE(huart);
 680:Drivers/STM32F4xx_HAL_Driver/Src/stm32f4xx_hal_uart.c **** 
 681:Drivers/STM32F4xx_HAL_Driver/Src/stm32f4xx_hal_uart.c **** #if (USE_HAL_UART_REGISTER_CALLBACKS == 1)
 682:Drivers/STM32F4xx_HAL_Driver/Src/stm32f4xx_hal_uart.c ****   if (huart->MspDeInitCallback == NULL)
 683:Drivers/STM32F4xx_HAL_Driver/Src/stm32f4xx_hal_uart.c ****   {
 684:Drivers/STM32F4xx_HAL_Driver/Src/stm32f4xx_hal_uart.c ****     huart->MspDeInitCallback = HAL_UART_MspDeInit;
 685:Drivers/STM32F4xx_HAL_Driver/Src/stm32f4xx_hal_uart.c ****   }
 686:Drivers/STM32F4xx_HAL_Driver/Src/stm32f4xx_hal_uart.c ****   /* DeInit the low level hardware */
 687:Drivers/STM32F4xx_HAL_Driver/Src/stm32f4xx_hal_uart.c ****   huart->MspDeInitCallback(huart);
 688:Drivers/STM32F4xx_HAL_Driver/Src/stm32f4xx_hal_uart.c **** #else
 689:Drivers/STM32F4xx_HAL_Driver/Src/stm32f4xx_hal_uart.c ****   /* DeInit the low level hardware */
 690:Drivers/STM32F4xx_HAL_Driver/Src/stm32f4xx_hal_uart.c ****   HAL_UART_MspDeInit(huart);
 691:Drivers/STM32F4xx_HAL_Driver/Src/stm32f4xx_hal_uart.c **** #endif /* (USE_HAL_UART_REGISTER_CALLBACKS) */
 692:Drivers/STM32F4xx_HAL_Driver/Src/stm32f4xx_hal_uart.c **** 
 693:Drivers/STM32F4xx_HAL_Driver/Src/stm32f4xx_hal_uart.c ****   huart->ErrorCode = HAL_UART_ERROR_NONE;
 694:Drivers/STM32F4xx_HAL_Driver/Src/stm32f4xx_hal_uart.c ****   huart->gState = HAL_UART_STATE_RESET;
 695:Drivers/STM32F4xx_HAL_Driver/Src/stm32f4xx_hal_uart.c ****   huart->RxState = HAL_UART_STATE_RESET;
 696:Drivers/STM32F4xx_HAL_Driver/Src/stm32f4xx_hal_uart.c ****   huart->ReceptionType = HAL_UART_RECEPTION_STANDARD;
 697:Drivers/STM32F4xx_HAL_Driver/Src/stm32f4xx_hal_uart.c **** 
 698:Drivers/STM32F4xx_HAL_Driver/Src/stm32f4xx_hal_uart.c ****   /* Process Unlock */
 699:Drivers/STM32F4xx_HAL_Driver/Src/stm32f4xx_hal_uart.c ****   __HAL_UNLOCK(huart);
 700:Drivers/STM32F4xx_HAL_Driver/Src/stm32f4xx_hal_uart.c **** 
 701:Drivers/STM32F4xx_HAL_Driver/Src/stm32f4xx_hal_uart.c ****   return HAL_OK;
 702:Drivers/STM32F4xx_HAL_Driver/Src/stm32f4xx_hal_uart.c **** }
 703:Drivers/STM32F4xx_HAL_Driver/Src/stm32f4xx_hal_uart.c **** 
 704:Drivers/STM32F4xx_HAL_Driver/Src/stm32f4xx_hal_uart.c **** /**
 705:Drivers/STM32F4xx_HAL_Driver/Src/stm32f4xx_hal_uart.c ****   * @brief  UART MSP Init.
 706:Drivers/STM32F4xx_HAL_Driver/Src/stm32f4xx_hal_uart.c ****   * @param  huart  Pointer to a UART_HandleTypeDef structure that contains
 707:Drivers/STM32F4xx_HAL_Driver/Src/stm32f4xx_hal_uart.c ****   *                the configuration information for the specified UART module.
 708:Drivers/STM32F4xx_HAL_Driver/Src/stm32f4xx_hal_uart.c ****   * @retval None
 709:Drivers/STM32F4xx_HAL_Driver/Src/stm32f4xx_hal_uart.c ****   */
 710:Drivers/STM32F4xx_HAL_Driver/Src/stm32f4xx_hal_uart.c **** __weak void HAL_UART_MspInit(UART_HandleTypeDef *huart)
 711:Drivers/STM32F4xx_HAL_Driver/Src/stm32f4xx_hal_uart.c **** {
  29              		.loc 1 711 1 view -0
  30              		.cfi_startproc
  31              		@ args = 0, pretend = 0, frame = 0
ARM GAS  C:\Users\Konrad\AppData\Local\Temp\ccBcBO6H.s 			page 14


  32              		@ frame_needed = 0, uses_anonymous_args = 0
  33              		@ link register save eliminated.
 712:Drivers/STM32F4xx_HAL_Driver/Src/stm32f4xx_hal_uart.c ****   /* Prevent unused argument(s) compilation warning */
 713:Drivers/STM32F4xx_HAL_Driver/Src/stm32f4xx_hal_uart.c ****   UNUSED(huart);
  34              		.loc 1 713 3 view .LVU1
 714:Drivers/STM32F4xx_HAL_Driver/Src/stm32f4xx_hal_uart.c ****   /* NOTE: This function should not be modified, when the callback is needed,
 715:Drivers/STM32F4xx_HAL_Driver/Src/stm32f4xx_hal_uart.c ****            the HAL_UART_MspInit could be implemented in the user file
 716:Drivers/STM32F4xx_HAL_Driver/Src/stm32f4xx_hal_uart.c ****    */
 717:Drivers/STM32F4xx_HAL_Driver/Src/stm32f4xx_hal_uart.c **** }
  35              		.loc 1 717 1 is_stmt 0 view .LVU2
  36 0000 7047     		bx	lr
  37              		.cfi_endproc
  38              	.LFE221:
  40              		.global	__aeabi_uldivmod
  41              		.global	__aeabi_ldivmod
  42 0002 00BF     		.section	.text.HAL_UART_Init,"ax",%progbits
  43              		.align	1
  44              		.p2align 2,,3
  45              		.global	HAL_UART_Init
  46              		.syntax unified
  47              		.thumb
  48              		.thumb_func
  50              	HAL_UART_Init:
  51              	.LVL1:
  52              	.LFB216:
 358:Drivers/STM32F4xx_HAL_Driver/Src/stm32f4xx_hal_uart.c ****   /* Check the UART handle allocation */
  53              		.loc 1 358 1 is_stmt 1 view -0
  54              		.cfi_startproc
  55              		@ args = 0, pretend = 0, frame = 0
  56              		@ frame_needed = 0, uses_anonymous_args = 0
 360:Drivers/STM32F4xx_HAL_Driver/Src/stm32f4xx_hal_uart.c ****   {
  57              		.loc 1 360 3 view .LVU4
 360:Drivers/STM32F4xx_HAL_Driver/Src/stm32f4xx_hal_uart.c ****   {
  58              		.loc 1 360 6 is_stmt 0 view .LVU5
  59 0000 0028     		cmp	r0, #0
  60 0002 00F08680 		beq	.L11
 366:Drivers/STM32F4xx_HAL_Driver/Src/stm32f4xx_hal_uart.c ****   {
  61              		.loc 1 366 3 is_stmt 1 view .LVU6
 371:Drivers/STM32F4xx_HAL_Driver/Src/stm32f4xx_hal_uart.c ****     assert_param(IS_UART_HARDWARE_FLOW_CONTROL(huart->Init.HwFlowCtl));
  62              		.loc 1 371 5 view .LVU7
 372:Drivers/STM32F4xx_HAL_Driver/Src/stm32f4xx_hal_uart.c ****   }
  63              		.loc 1 372 5 view .LVU8
 376:Drivers/STM32F4xx_HAL_Driver/Src/stm32f4xx_hal_uart.c ****   }
  64              		.loc 1 376 5 view .LVU9
 378:Drivers/STM32F4xx_HAL_Driver/Src/stm32f4xx_hal_uart.c ****   assert_param(IS_UART_OVERSAMPLING(huart->Init.OverSampling));
  65              		.loc 1 378 3 view .LVU10
 379:Drivers/STM32F4xx_HAL_Driver/Src/stm32f4xx_hal_uart.c **** 
  66              		.loc 1 379 3 view .LVU11
 381:Drivers/STM32F4xx_HAL_Driver/Src/stm32f4xx_hal_uart.c ****   {
  67              		.loc 1 381 3 view .LVU12
 358:Drivers/STM32F4xx_HAL_Driver/Src/stm32f4xx_hal_uart.c ****   /* Check the UART handle allocation */
  68              		.loc 1 358 1 is_stmt 0 view .LVU13
  69 0006 38B5     		push	{r3, r4, r5, lr}
  70              		.cfi_def_cfa_offset 16
  71              		.cfi_offset 3, -16
  72              		.cfi_offset 4, -12
  73              		.cfi_offset 5, -8
ARM GAS  C:\Users\Konrad\AppData\Local\Temp\ccBcBO6H.s 			page 15


  74              		.cfi_offset 14, -4
 381:Drivers/STM32F4xx_HAL_Driver/Src/stm32f4xx_hal_uart.c ****   {
  75              		.loc 1 381 12 view .LVU14
  76 0008 90F83D30 		ldrb	r3, [r0, #61]	@ zero_extendqisi2
  77 000c 0446     		mov	r4, r0
 381:Drivers/STM32F4xx_HAL_Driver/Src/stm32f4xx_hal_uart.c ****   {
  78              		.loc 1 381 6 view .LVU15
  79 000e 03F0FF02 		and	r2, r3, #255
  80 0012 002B     		cmp	r3, #0
  81 0014 78D0     		beq	.L16
  82              	.LVL2:
  83              	.L5:
 402:Drivers/STM32F4xx_HAL_Driver/Src/stm32f4xx_hal_uart.c **** 
  84              		.loc 1 402 3 is_stmt 1 view .LVU16
 405:Drivers/STM32F4xx_HAL_Driver/Src/stm32f4xx_hal_uart.c **** 
  85              		.loc 1 405 3 is_stmt 0 view .LVU17
  86 0016 2368     		ldr	r3, [r4]
  87              	.LBB421:
  88              	.LBB422:
 718:Drivers/STM32F4xx_HAL_Driver/Src/stm32f4xx_hal_uart.c **** 
 719:Drivers/STM32F4xx_HAL_Driver/Src/stm32f4xx_hal_uart.c **** /**
 720:Drivers/STM32F4xx_HAL_Driver/Src/stm32f4xx_hal_uart.c ****   * @brief  UART MSP DeInit.
 721:Drivers/STM32F4xx_HAL_Driver/Src/stm32f4xx_hal_uart.c ****   * @param  huart  Pointer to a UART_HandleTypeDef structure that contains
 722:Drivers/STM32F4xx_HAL_Driver/Src/stm32f4xx_hal_uart.c ****   *                the configuration information for the specified UART module.
 723:Drivers/STM32F4xx_HAL_Driver/Src/stm32f4xx_hal_uart.c ****   * @retval None
 724:Drivers/STM32F4xx_HAL_Driver/Src/stm32f4xx_hal_uart.c ****   */
 725:Drivers/STM32F4xx_HAL_Driver/Src/stm32f4xx_hal_uart.c **** __weak void HAL_UART_MspDeInit(UART_HandleTypeDef *huart)
 726:Drivers/STM32F4xx_HAL_Driver/Src/stm32f4xx_hal_uart.c **** {
 727:Drivers/STM32F4xx_HAL_Driver/Src/stm32f4xx_hal_uart.c ****   /* Prevent unused argument(s) compilation warning */
 728:Drivers/STM32F4xx_HAL_Driver/Src/stm32f4xx_hal_uart.c ****   UNUSED(huart);
 729:Drivers/STM32F4xx_HAL_Driver/Src/stm32f4xx_hal_uart.c ****   /* NOTE: This function should not be modified, when the callback is needed,
 730:Drivers/STM32F4xx_HAL_Driver/Src/stm32f4xx_hal_uart.c ****            the HAL_UART_MspDeInit could be implemented in the user file
 731:Drivers/STM32F4xx_HAL_Driver/Src/stm32f4xx_hal_uart.c ****    */
 732:Drivers/STM32F4xx_HAL_Driver/Src/stm32f4xx_hal_uart.c **** }
 733:Drivers/STM32F4xx_HAL_Driver/Src/stm32f4xx_hal_uart.c **** 
 734:Drivers/STM32F4xx_HAL_Driver/Src/stm32f4xx_hal_uart.c **** #if (USE_HAL_UART_REGISTER_CALLBACKS == 1)
 735:Drivers/STM32F4xx_HAL_Driver/Src/stm32f4xx_hal_uart.c **** /**
 736:Drivers/STM32F4xx_HAL_Driver/Src/stm32f4xx_hal_uart.c ****   * @brief  Register a User UART Callback
 737:Drivers/STM32F4xx_HAL_Driver/Src/stm32f4xx_hal_uart.c ****   *         To be used instead of the weak predefined callback
 738:Drivers/STM32F4xx_HAL_Driver/Src/stm32f4xx_hal_uart.c ****   * @param  huart uart handle
 739:Drivers/STM32F4xx_HAL_Driver/Src/stm32f4xx_hal_uart.c ****   * @param  CallbackID ID of the callback to be registered
 740:Drivers/STM32F4xx_HAL_Driver/Src/stm32f4xx_hal_uart.c ****   *         This parameter can be one of the following values:
 741:Drivers/STM32F4xx_HAL_Driver/Src/stm32f4xx_hal_uart.c ****   *           @arg @ref HAL_UART_TX_HALFCOMPLETE_CB_ID Tx Half Complete Callback ID
 742:Drivers/STM32F4xx_HAL_Driver/Src/stm32f4xx_hal_uart.c ****   *           @arg @ref HAL_UART_TX_COMPLETE_CB_ID Tx Complete Callback ID
 743:Drivers/STM32F4xx_HAL_Driver/Src/stm32f4xx_hal_uart.c ****   *           @arg @ref HAL_UART_RX_HALFCOMPLETE_CB_ID Rx Half Complete Callback ID
 744:Drivers/STM32F4xx_HAL_Driver/Src/stm32f4xx_hal_uart.c ****   *           @arg @ref HAL_UART_RX_COMPLETE_CB_ID Rx Complete Callback ID
 745:Drivers/STM32F4xx_HAL_Driver/Src/stm32f4xx_hal_uart.c ****   *           @arg @ref HAL_UART_ERROR_CB_ID Error Callback ID
 746:Drivers/STM32F4xx_HAL_Driver/Src/stm32f4xx_hal_uart.c ****   *           @arg @ref HAL_UART_ABORT_COMPLETE_CB_ID Abort Complete Callback ID
 747:Drivers/STM32F4xx_HAL_Driver/Src/stm32f4xx_hal_uart.c ****   *           @arg @ref HAL_UART_ABORT_TRANSMIT_COMPLETE_CB_ID Abort Transmit Complete Callback ID
 748:Drivers/STM32F4xx_HAL_Driver/Src/stm32f4xx_hal_uart.c ****   *           @arg @ref HAL_UART_ABORT_RECEIVE_COMPLETE_CB_ID Abort Receive Complete Callback ID
 749:Drivers/STM32F4xx_HAL_Driver/Src/stm32f4xx_hal_uart.c ****   *           @arg @ref HAL_UART_MSPINIT_CB_ID MspInit Callback ID
 750:Drivers/STM32F4xx_HAL_Driver/Src/stm32f4xx_hal_uart.c ****   *           @arg @ref HAL_UART_MSPDEINIT_CB_ID MspDeInit Callback ID
 751:Drivers/STM32F4xx_HAL_Driver/Src/stm32f4xx_hal_uart.c ****   * @param  pCallback pointer to the Callback function
 752:Drivers/STM32F4xx_HAL_Driver/Src/stm32f4xx_hal_uart.c ****   * @retval HAL status
 753:Drivers/STM32F4xx_HAL_Driver/Src/stm32f4xx_hal_uart.c ****   */
 754:Drivers/STM32F4xx_HAL_Driver/Src/stm32f4xx_hal_uart.c **** HAL_StatusTypeDef HAL_UART_RegisterCallback(UART_HandleTypeDef *huart, HAL_UART_CallbackIDTypeDef C
 755:Drivers/STM32F4xx_HAL_Driver/Src/stm32f4xx_hal_uart.c ****                                             pUART_CallbackTypeDef pCallback)
ARM GAS  C:\Users\Konrad\AppData\Local\Temp\ccBcBO6H.s 			page 16


 756:Drivers/STM32F4xx_HAL_Driver/Src/stm32f4xx_hal_uart.c **** {
 757:Drivers/STM32F4xx_HAL_Driver/Src/stm32f4xx_hal_uart.c ****   HAL_StatusTypeDef status = HAL_OK;
 758:Drivers/STM32F4xx_HAL_Driver/Src/stm32f4xx_hal_uart.c **** 
 759:Drivers/STM32F4xx_HAL_Driver/Src/stm32f4xx_hal_uart.c ****   if (pCallback == NULL)
 760:Drivers/STM32F4xx_HAL_Driver/Src/stm32f4xx_hal_uart.c ****   {
 761:Drivers/STM32F4xx_HAL_Driver/Src/stm32f4xx_hal_uart.c ****     /* Update the error code */
 762:Drivers/STM32F4xx_HAL_Driver/Src/stm32f4xx_hal_uart.c ****     huart->ErrorCode |= HAL_UART_ERROR_INVALID_CALLBACK;
 763:Drivers/STM32F4xx_HAL_Driver/Src/stm32f4xx_hal_uart.c **** 
 764:Drivers/STM32F4xx_HAL_Driver/Src/stm32f4xx_hal_uart.c ****     return HAL_ERROR;
 765:Drivers/STM32F4xx_HAL_Driver/Src/stm32f4xx_hal_uart.c ****   }
 766:Drivers/STM32F4xx_HAL_Driver/Src/stm32f4xx_hal_uart.c ****   /* Process locked */
 767:Drivers/STM32F4xx_HAL_Driver/Src/stm32f4xx_hal_uart.c ****   __HAL_LOCK(huart);
 768:Drivers/STM32F4xx_HAL_Driver/Src/stm32f4xx_hal_uart.c **** 
 769:Drivers/STM32F4xx_HAL_Driver/Src/stm32f4xx_hal_uart.c ****   if (huart->gState == HAL_UART_STATE_READY)
 770:Drivers/STM32F4xx_HAL_Driver/Src/stm32f4xx_hal_uart.c ****   {
 771:Drivers/STM32F4xx_HAL_Driver/Src/stm32f4xx_hal_uart.c ****     switch (CallbackID)
 772:Drivers/STM32F4xx_HAL_Driver/Src/stm32f4xx_hal_uart.c ****     {
 773:Drivers/STM32F4xx_HAL_Driver/Src/stm32f4xx_hal_uart.c ****       case HAL_UART_TX_HALFCOMPLETE_CB_ID :
 774:Drivers/STM32F4xx_HAL_Driver/Src/stm32f4xx_hal_uart.c ****         huart->TxHalfCpltCallback = pCallback;
 775:Drivers/STM32F4xx_HAL_Driver/Src/stm32f4xx_hal_uart.c ****         break;
 776:Drivers/STM32F4xx_HAL_Driver/Src/stm32f4xx_hal_uart.c **** 
 777:Drivers/STM32F4xx_HAL_Driver/Src/stm32f4xx_hal_uart.c ****       case HAL_UART_TX_COMPLETE_CB_ID :
 778:Drivers/STM32F4xx_HAL_Driver/Src/stm32f4xx_hal_uart.c ****         huart->TxCpltCallback = pCallback;
 779:Drivers/STM32F4xx_HAL_Driver/Src/stm32f4xx_hal_uart.c ****         break;
 780:Drivers/STM32F4xx_HAL_Driver/Src/stm32f4xx_hal_uart.c **** 
 781:Drivers/STM32F4xx_HAL_Driver/Src/stm32f4xx_hal_uart.c ****       case HAL_UART_RX_HALFCOMPLETE_CB_ID :
 782:Drivers/STM32F4xx_HAL_Driver/Src/stm32f4xx_hal_uart.c ****         huart->RxHalfCpltCallback = pCallback;
 783:Drivers/STM32F4xx_HAL_Driver/Src/stm32f4xx_hal_uart.c ****         break;
 784:Drivers/STM32F4xx_HAL_Driver/Src/stm32f4xx_hal_uart.c **** 
 785:Drivers/STM32F4xx_HAL_Driver/Src/stm32f4xx_hal_uart.c ****       case HAL_UART_RX_COMPLETE_CB_ID :
 786:Drivers/STM32F4xx_HAL_Driver/Src/stm32f4xx_hal_uart.c ****         huart->RxCpltCallback = pCallback;
 787:Drivers/STM32F4xx_HAL_Driver/Src/stm32f4xx_hal_uart.c ****         break;
 788:Drivers/STM32F4xx_HAL_Driver/Src/stm32f4xx_hal_uart.c **** 
 789:Drivers/STM32F4xx_HAL_Driver/Src/stm32f4xx_hal_uart.c ****       case HAL_UART_ERROR_CB_ID :
 790:Drivers/STM32F4xx_HAL_Driver/Src/stm32f4xx_hal_uart.c ****         huart->ErrorCallback = pCallback;
 791:Drivers/STM32F4xx_HAL_Driver/Src/stm32f4xx_hal_uart.c ****         break;
 792:Drivers/STM32F4xx_HAL_Driver/Src/stm32f4xx_hal_uart.c **** 
 793:Drivers/STM32F4xx_HAL_Driver/Src/stm32f4xx_hal_uart.c ****       case HAL_UART_ABORT_COMPLETE_CB_ID :
 794:Drivers/STM32F4xx_HAL_Driver/Src/stm32f4xx_hal_uart.c ****         huart->AbortCpltCallback = pCallback;
 795:Drivers/STM32F4xx_HAL_Driver/Src/stm32f4xx_hal_uart.c ****         break;
 796:Drivers/STM32F4xx_HAL_Driver/Src/stm32f4xx_hal_uart.c **** 
 797:Drivers/STM32F4xx_HAL_Driver/Src/stm32f4xx_hal_uart.c ****       case HAL_UART_ABORT_TRANSMIT_COMPLETE_CB_ID :
 798:Drivers/STM32F4xx_HAL_Driver/Src/stm32f4xx_hal_uart.c ****         huart->AbortTransmitCpltCallback = pCallback;
 799:Drivers/STM32F4xx_HAL_Driver/Src/stm32f4xx_hal_uart.c ****         break;
 800:Drivers/STM32F4xx_HAL_Driver/Src/stm32f4xx_hal_uart.c **** 
 801:Drivers/STM32F4xx_HAL_Driver/Src/stm32f4xx_hal_uart.c ****       case HAL_UART_ABORT_RECEIVE_COMPLETE_CB_ID :
 802:Drivers/STM32F4xx_HAL_Driver/Src/stm32f4xx_hal_uart.c ****         huart->AbortReceiveCpltCallback = pCallback;
 803:Drivers/STM32F4xx_HAL_Driver/Src/stm32f4xx_hal_uart.c ****         break;
 804:Drivers/STM32F4xx_HAL_Driver/Src/stm32f4xx_hal_uart.c **** 
 805:Drivers/STM32F4xx_HAL_Driver/Src/stm32f4xx_hal_uart.c ****       case HAL_UART_MSPINIT_CB_ID :
 806:Drivers/STM32F4xx_HAL_Driver/Src/stm32f4xx_hal_uart.c ****         huart->MspInitCallback = pCallback;
 807:Drivers/STM32F4xx_HAL_Driver/Src/stm32f4xx_hal_uart.c ****         break;
 808:Drivers/STM32F4xx_HAL_Driver/Src/stm32f4xx_hal_uart.c **** 
 809:Drivers/STM32F4xx_HAL_Driver/Src/stm32f4xx_hal_uart.c ****       case HAL_UART_MSPDEINIT_CB_ID :
 810:Drivers/STM32F4xx_HAL_Driver/Src/stm32f4xx_hal_uart.c ****         huart->MspDeInitCallback = pCallback;
 811:Drivers/STM32F4xx_HAL_Driver/Src/stm32f4xx_hal_uart.c ****         break;
 812:Drivers/STM32F4xx_HAL_Driver/Src/stm32f4xx_hal_uart.c **** 
ARM GAS  C:\Users\Konrad\AppData\Local\Temp\ccBcBO6H.s 			page 17


 813:Drivers/STM32F4xx_HAL_Driver/Src/stm32f4xx_hal_uart.c ****       default :
 814:Drivers/STM32F4xx_HAL_Driver/Src/stm32f4xx_hal_uart.c ****         /* Update the error code */
 815:Drivers/STM32F4xx_HAL_Driver/Src/stm32f4xx_hal_uart.c ****         huart->ErrorCode |= HAL_UART_ERROR_INVALID_CALLBACK;
 816:Drivers/STM32F4xx_HAL_Driver/Src/stm32f4xx_hal_uart.c **** 
 817:Drivers/STM32F4xx_HAL_Driver/Src/stm32f4xx_hal_uart.c ****         /* Return error status */
 818:Drivers/STM32F4xx_HAL_Driver/Src/stm32f4xx_hal_uart.c ****         status =  HAL_ERROR;
 819:Drivers/STM32F4xx_HAL_Driver/Src/stm32f4xx_hal_uart.c ****         break;
 820:Drivers/STM32F4xx_HAL_Driver/Src/stm32f4xx_hal_uart.c ****     }
 821:Drivers/STM32F4xx_HAL_Driver/Src/stm32f4xx_hal_uart.c ****   }
 822:Drivers/STM32F4xx_HAL_Driver/Src/stm32f4xx_hal_uart.c ****   else if (huart->gState == HAL_UART_STATE_RESET)
 823:Drivers/STM32F4xx_HAL_Driver/Src/stm32f4xx_hal_uart.c ****   {
 824:Drivers/STM32F4xx_HAL_Driver/Src/stm32f4xx_hal_uart.c ****     switch (CallbackID)
 825:Drivers/STM32F4xx_HAL_Driver/Src/stm32f4xx_hal_uart.c ****     {
 826:Drivers/STM32F4xx_HAL_Driver/Src/stm32f4xx_hal_uart.c ****       case HAL_UART_MSPINIT_CB_ID :
 827:Drivers/STM32F4xx_HAL_Driver/Src/stm32f4xx_hal_uart.c ****         huart->MspInitCallback = pCallback;
 828:Drivers/STM32F4xx_HAL_Driver/Src/stm32f4xx_hal_uart.c ****         break;
 829:Drivers/STM32F4xx_HAL_Driver/Src/stm32f4xx_hal_uart.c **** 
 830:Drivers/STM32F4xx_HAL_Driver/Src/stm32f4xx_hal_uart.c ****       case HAL_UART_MSPDEINIT_CB_ID :
 831:Drivers/STM32F4xx_HAL_Driver/Src/stm32f4xx_hal_uart.c ****         huart->MspDeInitCallback = pCallback;
 832:Drivers/STM32F4xx_HAL_Driver/Src/stm32f4xx_hal_uart.c ****         break;
 833:Drivers/STM32F4xx_HAL_Driver/Src/stm32f4xx_hal_uart.c **** 
 834:Drivers/STM32F4xx_HAL_Driver/Src/stm32f4xx_hal_uart.c ****       default :
 835:Drivers/STM32F4xx_HAL_Driver/Src/stm32f4xx_hal_uart.c ****         /* Update the error code */
 836:Drivers/STM32F4xx_HAL_Driver/Src/stm32f4xx_hal_uart.c ****         huart->ErrorCode |= HAL_UART_ERROR_INVALID_CALLBACK;
 837:Drivers/STM32F4xx_HAL_Driver/Src/stm32f4xx_hal_uart.c **** 
 838:Drivers/STM32F4xx_HAL_Driver/Src/stm32f4xx_hal_uart.c ****         /* Return error status */
 839:Drivers/STM32F4xx_HAL_Driver/Src/stm32f4xx_hal_uart.c ****         status =  HAL_ERROR;
 840:Drivers/STM32F4xx_HAL_Driver/Src/stm32f4xx_hal_uart.c ****         break;
 841:Drivers/STM32F4xx_HAL_Driver/Src/stm32f4xx_hal_uart.c ****     }
 842:Drivers/STM32F4xx_HAL_Driver/Src/stm32f4xx_hal_uart.c ****   }
 843:Drivers/STM32F4xx_HAL_Driver/Src/stm32f4xx_hal_uart.c ****   else
 844:Drivers/STM32F4xx_HAL_Driver/Src/stm32f4xx_hal_uart.c ****   {
 845:Drivers/STM32F4xx_HAL_Driver/Src/stm32f4xx_hal_uart.c ****     /* Update the error code */
 846:Drivers/STM32F4xx_HAL_Driver/Src/stm32f4xx_hal_uart.c ****     huart->ErrorCode |= HAL_UART_ERROR_INVALID_CALLBACK;
 847:Drivers/STM32F4xx_HAL_Driver/Src/stm32f4xx_hal_uart.c **** 
 848:Drivers/STM32F4xx_HAL_Driver/Src/stm32f4xx_hal_uart.c ****     /* Return error status */
 849:Drivers/STM32F4xx_HAL_Driver/Src/stm32f4xx_hal_uart.c ****     status =  HAL_ERROR;
 850:Drivers/STM32F4xx_HAL_Driver/Src/stm32f4xx_hal_uart.c ****   }
 851:Drivers/STM32F4xx_HAL_Driver/Src/stm32f4xx_hal_uart.c **** 
 852:Drivers/STM32F4xx_HAL_Driver/Src/stm32f4xx_hal_uart.c ****   /* Release Lock */
 853:Drivers/STM32F4xx_HAL_Driver/Src/stm32f4xx_hal_uart.c ****   __HAL_UNLOCK(huart);
 854:Drivers/STM32F4xx_HAL_Driver/Src/stm32f4xx_hal_uart.c **** 
 855:Drivers/STM32F4xx_HAL_Driver/Src/stm32f4xx_hal_uart.c ****   return status;
 856:Drivers/STM32F4xx_HAL_Driver/Src/stm32f4xx_hal_uart.c **** }
 857:Drivers/STM32F4xx_HAL_Driver/Src/stm32f4xx_hal_uart.c **** 
 858:Drivers/STM32F4xx_HAL_Driver/Src/stm32f4xx_hal_uart.c **** /**
 859:Drivers/STM32F4xx_HAL_Driver/Src/stm32f4xx_hal_uart.c ****   * @brief  Unregister an UART Callback
 860:Drivers/STM32F4xx_HAL_Driver/Src/stm32f4xx_hal_uart.c ****   *         UART callaback is redirected to the weak predefined callback
 861:Drivers/STM32F4xx_HAL_Driver/Src/stm32f4xx_hal_uart.c ****   * @param  huart uart handle
 862:Drivers/STM32F4xx_HAL_Driver/Src/stm32f4xx_hal_uart.c ****   * @param  CallbackID ID of the callback to be unregistered
 863:Drivers/STM32F4xx_HAL_Driver/Src/stm32f4xx_hal_uart.c ****   *         This parameter can be one of the following values:
 864:Drivers/STM32F4xx_HAL_Driver/Src/stm32f4xx_hal_uart.c ****   *           @arg @ref HAL_UART_TX_HALFCOMPLETE_CB_ID Tx Half Complete Callback ID
 865:Drivers/STM32F4xx_HAL_Driver/Src/stm32f4xx_hal_uart.c ****   *           @arg @ref HAL_UART_TX_COMPLETE_CB_ID Tx Complete Callback ID
 866:Drivers/STM32F4xx_HAL_Driver/Src/stm32f4xx_hal_uart.c ****   *           @arg @ref HAL_UART_RX_HALFCOMPLETE_CB_ID Rx Half Complete Callback ID
 867:Drivers/STM32F4xx_HAL_Driver/Src/stm32f4xx_hal_uart.c ****   *           @arg @ref HAL_UART_RX_COMPLETE_CB_ID Rx Complete Callback ID
 868:Drivers/STM32F4xx_HAL_Driver/Src/stm32f4xx_hal_uart.c ****   *           @arg @ref HAL_UART_ERROR_CB_ID Error Callback ID
 869:Drivers/STM32F4xx_HAL_Driver/Src/stm32f4xx_hal_uart.c ****   *           @arg @ref HAL_UART_ABORT_COMPLETE_CB_ID Abort Complete Callback ID
ARM GAS  C:\Users\Konrad\AppData\Local\Temp\ccBcBO6H.s 			page 18


 870:Drivers/STM32F4xx_HAL_Driver/Src/stm32f4xx_hal_uart.c ****   *           @arg @ref HAL_UART_ABORT_TRANSMIT_COMPLETE_CB_ID Abort Transmit Complete Callback ID
 871:Drivers/STM32F4xx_HAL_Driver/Src/stm32f4xx_hal_uart.c ****   *           @arg @ref HAL_UART_ABORT_RECEIVE_COMPLETE_CB_ID Abort Receive Complete Callback ID
 872:Drivers/STM32F4xx_HAL_Driver/Src/stm32f4xx_hal_uart.c ****   *           @arg @ref HAL_UART_MSPINIT_CB_ID MspInit Callback ID
 873:Drivers/STM32F4xx_HAL_Driver/Src/stm32f4xx_hal_uart.c ****   *           @arg @ref HAL_UART_MSPDEINIT_CB_ID MspDeInit Callback ID
 874:Drivers/STM32F4xx_HAL_Driver/Src/stm32f4xx_hal_uart.c ****   * @retval HAL status
 875:Drivers/STM32F4xx_HAL_Driver/Src/stm32f4xx_hal_uart.c ****   */
 876:Drivers/STM32F4xx_HAL_Driver/Src/stm32f4xx_hal_uart.c **** HAL_StatusTypeDef HAL_UART_UnRegisterCallback(UART_HandleTypeDef *huart, HAL_UART_CallbackIDTypeDef
 877:Drivers/STM32F4xx_HAL_Driver/Src/stm32f4xx_hal_uart.c **** {
 878:Drivers/STM32F4xx_HAL_Driver/Src/stm32f4xx_hal_uart.c ****   HAL_StatusTypeDef status = HAL_OK;
 879:Drivers/STM32F4xx_HAL_Driver/Src/stm32f4xx_hal_uart.c **** 
 880:Drivers/STM32F4xx_HAL_Driver/Src/stm32f4xx_hal_uart.c ****   /* Process locked */
 881:Drivers/STM32F4xx_HAL_Driver/Src/stm32f4xx_hal_uart.c ****   __HAL_LOCK(huart);
 882:Drivers/STM32F4xx_HAL_Driver/Src/stm32f4xx_hal_uart.c **** 
 883:Drivers/STM32F4xx_HAL_Driver/Src/stm32f4xx_hal_uart.c ****   if (HAL_UART_STATE_READY == huart->gState)
 884:Drivers/STM32F4xx_HAL_Driver/Src/stm32f4xx_hal_uart.c ****   {
 885:Drivers/STM32F4xx_HAL_Driver/Src/stm32f4xx_hal_uart.c ****     switch (CallbackID)
 886:Drivers/STM32F4xx_HAL_Driver/Src/stm32f4xx_hal_uart.c ****     {
 887:Drivers/STM32F4xx_HAL_Driver/Src/stm32f4xx_hal_uart.c ****       case HAL_UART_TX_HALFCOMPLETE_CB_ID :
 888:Drivers/STM32F4xx_HAL_Driver/Src/stm32f4xx_hal_uart.c ****         huart->TxHalfCpltCallback = HAL_UART_TxHalfCpltCallback;               /* Legacy weak  TxHa
 889:Drivers/STM32F4xx_HAL_Driver/Src/stm32f4xx_hal_uart.c ****         break;
 890:Drivers/STM32F4xx_HAL_Driver/Src/stm32f4xx_hal_uart.c **** 
 891:Drivers/STM32F4xx_HAL_Driver/Src/stm32f4xx_hal_uart.c ****       case HAL_UART_TX_COMPLETE_CB_ID :
 892:Drivers/STM32F4xx_HAL_Driver/Src/stm32f4xx_hal_uart.c ****         huart->TxCpltCallback = HAL_UART_TxCpltCallback;                       /* Legacy weak TxCpl
 893:Drivers/STM32F4xx_HAL_Driver/Src/stm32f4xx_hal_uart.c ****         break;
 894:Drivers/STM32F4xx_HAL_Driver/Src/stm32f4xx_hal_uart.c **** 
 895:Drivers/STM32F4xx_HAL_Driver/Src/stm32f4xx_hal_uart.c ****       case HAL_UART_RX_HALFCOMPLETE_CB_ID :
 896:Drivers/STM32F4xx_HAL_Driver/Src/stm32f4xx_hal_uart.c ****         huart->RxHalfCpltCallback = HAL_UART_RxHalfCpltCallback;               /* Legacy weak RxHal
 897:Drivers/STM32F4xx_HAL_Driver/Src/stm32f4xx_hal_uart.c ****         break;
 898:Drivers/STM32F4xx_HAL_Driver/Src/stm32f4xx_hal_uart.c **** 
 899:Drivers/STM32F4xx_HAL_Driver/Src/stm32f4xx_hal_uart.c ****       case HAL_UART_RX_COMPLETE_CB_ID :
 900:Drivers/STM32F4xx_HAL_Driver/Src/stm32f4xx_hal_uart.c ****         huart->RxCpltCallback = HAL_UART_RxCpltCallback;                       /* Legacy weak RxCpl
 901:Drivers/STM32F4xx_HAL_Driver/Src/stm32f4xx_hal_uart.c ****         break;
 902:Drivers/STM32F4xx_HAL_Driver/Src/stm32f4xx_hal_uart.c **** 
 903:Drivers/STM32F4xx_HAL_Driver/Src/stm32f4xx_hal_uart.c ****       case HAL_UART_ERROR_CB_ID :
 904:Drivers/STM32F4xx_HAL_Driver/Src/stm32f4xx_hal_uart.c ****         huart->ErrorCallback = HAL_UART_ErrorCallback;                         /* Legacy weak Error
 905:Drivers/STM32F4xx_HAL_Driver/Src/stm32f4xx_hal_uart.c ****         break;
 906:Drivers/STM32F4xx_HAL_Driver/Src/stm32f4xx_hal_uart.c **** 
 907:Drivers/STM32F4xx_HAL_Driver/Src/stm32f4xx_hal_uart.c ****       case HAL_UART_ABORT_COMPLETE_CB_ID :
 908:Drivers/STM32F4xx_HAL_Driver/Src/stm32f4xx_hal_uart.c ****         huart->AbortCpltCallback = HAL_UART_AbortCpltCallback;                 /* Legacy weak Abort
 909:Drivers/STM32F4xx_HAL_Driver/Src/stm32f4xx_hal_uart.c ****         break;
 910:Drivers/STM32F4xx_HAL_Driver/Src/stm32f4xx_hal_uart.c **** 
 911:Drivers/STM32F4xx_HAL_Driver/Src/stm32f4xx_hal_uart.c ****       case HAL_UART_ABORT_TRANSMIT_COMPLETE_CB_ID :
 912:Drivers/STM32F4xx_HAL_Driver/Src/stm32f4xx_hal_uart.c ****         huart->AbortTransmitCpltCallback = HAL_UART_AbortTransmitCpltCallback; /* Legacy weak Abort
 913:Drivers/STM32F4xx_HAL_Driver/Src/stm32f4xx_hal_uart.c ****         break;
 914:Drivers/STM32F4xx_HAL_Driver/Src/stm32f4xx_hal_uart.c **** 
 915:Drivers/STM32F4xx_HAL_Driver/Src/stm32f4xx_hal_uart.c ****       case HAL_UART_ABORT_RECEIVE_COMPLETE_CB_ID :
 916:Drivers/STM32F4xx_HAL_Driver/Src/stm32f4xx_hal_uart.c ****         huart->AbortReceiveCpltCallback = HAL_UART_AbortReceiveCpltCallback;   /* Legacy weak Abort
 917:Drivers/STM32F4xx_HAL_Driver/Src/stm32f4xx_hal_uart.c ****         break;
 918:Drivers/STM32F4xx_HAL_Driver/Src/stm32f4xx_hal_uart.c **** 
 919:Drivers/STM32F4xx_HAL_Driver/Src/stm32f4xx_hal_uart.c ****       case HAL_UART_MSPINIT_CB_ID :
 920:Drivers/STM32F4xx_HAL_Driver/Src/stm32f4xx_hal_uart.c ****         huart->MspInitCallback = HAL_UART_MspInit;                             /* Legacy weak MspIn
 921:Drivers/STM32F4xx_HAL_Driver/Src/stm32f4xx_hal_uart.c ****         break;
 922:Drivers/STM32F4xx_HAL_Driver/Src/stm32f4xx_hal_uart.c **** 
 923:Drivers/STM32F4xx_HAL_Driver/Src/stm32f4xx_hal_uart.c ****       case HAL_UART_MSPDEINIT_CB_ID :
 924:Drivers/STM32F4xx_HAL_Driver/Src/stm32f4xx_hal_uart.c ****         huart->MspDeInitCallback = HAL_UART_MspDeInit;                         /* Legacy weak MspDe
 925:Drivers/STM32F4xx_HAL_Driver/Src/stm32f4xx_hal_uart.c ****         break;
 926:Drivers/STM32F4xx_HAL_Driver/Src/stm32f4xx_hal_uart.c **** 
ARM GAS  C:\Users\Konrad\AppData\Local\Temp\ccBcBO6H.s 			page 19


 927:Drivers/STM32F4xx_HAL_Driver/Src/stm32f4xx_hal_uart.c ****       default :
 928:Drivers/STM32F4xx_HAL_Driver/Src/stm32f4xx_hal_uart.c ****         /* Update the error code */
 929:Drivers/STM32F4xx_HAL_Driver/Src/stm32f4xx_hal_uart.c ****         huart->ErrorCode |= HAL_UART_ERROR_INVALID_CALLBACK;
 930:Drivers/STM32F4xx_HAL_Driver/Src/stm32f4xx_hal_uart.c **** 
 931:Drivers/STM32F4xx_HAL_Driver/Src/stm32f4xx_hal_uart.c ****         /* Return error status */
 932:Drivers/STM32F4xx_HAL_Driver/Src/stm32f4xx_hal_uart.c ****         status =  HAL_ERROR;
 933:Drivers/STM32F4xx_HAL_Driver/Src/stm32f4xx_hal_uart.c ****         break;
 934:Drivers/STM32F4xx_HAL_Driver/Src/stm32f4xx_hal_uart.c ****     }
 935:Drivers/STM32F4xx_HAL_Driver/Src/stm32f4xx_hal_uart.c ****   }
 936:Drivers/STM32F4xx_HAL_Driver/Src/stm32f4xx_hal_uart.c ****   else if (HAL_UART_STATE_RESET == huart->gState)
 937:Drivers/STM32F4xx_HAL_Driver/Src/stm32f4xx_hal_uart.c ****   {
 938:Drivers/STM32F4xx_HAL_Driver/Src/stm32f4xx_hal_uart.c ****     switch (CallbackID)
 939:Drivers/STM32F4xx_HAL_Driver/Src/stm32f4xx_hal_uart.c ****     {
 940:Drivers/STM32F4xx_HAL_Driver/Src/stm32f4xx_hal_uart.c ****       case HAL_UART_MSPINIT_CB_ID :
 941:Drivers/STM32F4xx_HAL_Driver/Src/stm32f4xx_hal_uart.c ****         huart->MspInitCallback = HAL_UART_MspInit;
 942:Drivers/STM32F4xx_HAL_Driver/Src/stm32f4xx_hal_uart.c ****         break;
 943:Drivers/STM32F4xx_HAL_Driver/Src/stm32f4xx_hal_uart.c **** 
 944:Drivers/STM32F4xx_HAL_Driver/Src/stm32f4xx_hal_uart.c ****       case HAL_UART_MSPDEINIT_CB_ID :
 945:Drivers/STM32F4xx_HAL_Driver/Src/stm32f4xx_hal_uart.c ****         huart->MspDeInitCallback = HAL_UART_MspDeInit;
 946:Drivers/STM32F4xx_HAL_Driver/Src/stm32f4xx_hal_uart.c ****         break;
 947:Drivers/STM32F4xx_HAL_Driver/Src/stm32f4xx_hal_uart.c **** 
 948:Drivers/STM32F4xx_HAL_Driver/Src/stm32f4xx_hal_uart.c ****       default :
 949:Drivers/STM32F4xx_HAL_Driver/Src/stm32f4xx_hal_uart.c ****         /* Update the error code */
 950:Drivers/STM32F4xx_HAL_Driver/Src/stm32f4xx_hal_uart.c ****         huart->ErrorCode |= HAL_UART_ERROR_INVALID_CALLBACK;
 951:Drivers/STM32F4xx_HAL_Driver/Src/stm32f4xx_hal_uart.c **** 
 952:Drivers/STM32F4xx_HAL_Driver/Src/stm32f4xx_hal_uart.c ****         /* Return error status */
 953:Drivers/STM32F4xx_HAL_Driver/Src/stm32f4xx_hal_uart.c ****         status =  HAL_ERROR;
 954:Drivers/STM32F4xx_HAL_Driver/Src/stm32f4xx_hal_uart.c ****         break;
 955:Drivers/STM32F4xx_HAL_Driver/Src/stm32f4xx_hal_uart.c ****     }
 956:Drivers/STM32F4xx_HAL_Driver/Src/stm32f4xx_hal_uart.c ****   }
 957:Drivers/STM32F4xx_HAL_Driver/Src/stm32f4xx_hal_uart.c ****   else
 958:Drivers/STM32F4xx_HAL_Driver/Src/stm32f4xx_hal_uart.c ****   {
 959:Drivers/STM32F4xx_HAL_Driver/Src/stm32f4xx_hal_uart.c ****     /* Update the error code */
 960:Drivers/STM32F4xx_HAL_Driver/Src/stm32f4xx_hal_uart.c ****     huart->ErrorCode |= HAL_UART_ERROR_INVALID_CALLBACK;
 961:Drivers/STM32F4xx_HAL_Driver/Src/stm32f4xx_hal_uart.c **** 
 962:Drivers/STM32F4xx_HAL_Driver/Src/stm32f4xx_hal_uart.c ****     /* Return error status */
 963:Drivers/STM32F4xx_HAL_Driver/Src/stm32f4xx_hal_uart.c ****     status =  HAL_ERROR;
 964:Drivers/STM32F4xx_HAL_Driver/Src/stm32f4xx_hal_uart.c ****   }
 965:Drivers/STM32F4xx_HAL_Driver/Src/stm32f4xx_hal_uart.c **** 
 966:Drivers/STM32F4xx_HAL_Driver/Src/stm32f4xx_hal_uart.c ****   /* Release Lock */
 967:Drivers/STM32F4xx_HAL_Driver/Src/stm32f4xx_hal_uart.c ****   __HAL_UNLOCK(huart);
 968:Drivers/STM32F4xx_HAL_Driver/Src/stm32f4xx_hal_uart.c **** 
 969:Drivers/STM32F4xx_HAL_Driver/Src/stm32f4xx_hal_uart.c ****   return status;
 970:Drivers/STM32F4xx_HAL_Driver/Src/stm32f4xx_hal_uart.c **** }
 971:Drivers/STM32F4xx_HAL_Driver/Src/stm32f4xx_hal_uart.c **** 
 972:Drivers/STM32F4xx_HAL_Driver/Src/stm32f4xx_hal_uart.c **** /**
 973:Drivers/STM32F4xx_HAL_Driver/Src/stm32f4xx_hal_uart.c ****   * @brief  Register a User UART Rx Event Callback
 974:Drivers/STM32F4xx_HAL_Driver/Src/stm32f4xx_hal_uart.c ****   *         To be used instead of the weak predefined callback
 975:Drivers/STM32F4xx_HAL_Driver/Src/stm32f4xx_hal_uart.c ****   * @param  huart     Uart handle
 976:Drivers/STM32F4xx_HAL_Driver/Src/stm32f4xx_hal_uart.c ****   * @param  pCallback Pointer to the Rx Event Callback function
 977:Drivers/STM32F4xx_HAL_Driver/Src/stm32f4xx_hal_uart.c ****   * @retval HAL status
 978:Drivers/STM32F4xx_HAL_Driver/Src/stm32f4xx_hal_uart.c ****   */
 979:Drivers/STM32F4xx_HAL_Driver/Src/stm32f4xx_hal_uart.c **** HAL_StatusTypeDef HAL_UART_RegisterRxEventCallback(UART_HandleTypeDef *huart, pUART_RxEventCallback
 980:Drivers/STM32F4xx_HAL_Driver/Src/stm32f4xx_hal_uart.c **** {
 981:Drivers/STM32F4xx_HAL_Driver/Src/stm32f4xx_hal_uart.c ****   HAL_StatusTypeDef status = HAL_OK;
 982:Drivers/STM32F4xx_HAL_Driver/Src/stm32f4xx_hal_uart.c **** 
 983:Drivers/STM32F4xx_HAL_Driver/Src/stm32f4xx_hal_uart.c ****   if (pCallback == NULL)
ARM GAS  C:\Users\Konrad\AppData\Local\Temp\ccBcBO6H.s 			page 20


 984:Drivers/STM32F4xx_HAL_Driver/Src/stm32f4xx_hal_uart.c ****   {
 985:Drivers/STM32F4xx_HAL_Driver/Src/stm32f4xx_hal_uart.c ****     huart->ErrorCode |= HAL_UART_ERROR_INVALID_CALLBACK;
 986:Drivers/STM32F4xx_HAL_Driver/Src/stm32f4xx_hal_uart.c **** 
 987:Drivers/STM32F4xx_HAL_Driver/Src/stm32f4xx_hal_uart.c ****     return HAL_ERROR;
 988:Drivers/STM32F4xx_HAL_Driver/Src/stm32f4xx_hal_uart.c ****   }
 989:Drivers/STM32F4xx_HAL_Driver/Src/stm32f4xx_hal_uart.c **** 
 990:Drivers/STM32F4xx_HAL_Driver/Src/stm32f4xx_hal_uart.c ****   /* Process locked */
 991:Drivers/STM32F4xx_HAL_Driver/Src/stm32f4xx_hal_uart.c ****   __HAL_LOCK(huart);
 992:Drivers/STM32F4xx_HAL_Driver/Src/stm32f4xx_hal_uart.c **** 
 993:Drivers/STM32F4xx_HAL_Driver/Src/stm32f4xx_hal_uart.c ****   if (huart->gState == HAL_UART_STATE_READY)
 994:Drivers/STM32F4xx_HAL_Driver/Src/stm32f4xx_hal_uart.c ****   {
 995:Drivers/STM32F4xx_HAL_Driver/Src/stm32f4xx_hal_uart.c ****     huart->RxEventCallback = pCallback;
 996:Drivers/STM32F4xx_HAL_Driver/Src/stm32f4xx_hal_uart.c ****   }
 997:Drivers/STM32F4xx_HAL_Driver/Src/stm32f4xx_hal_uart.c ****   else
 998:Drivers/STM32F4xx_HAL_Driver/Src/stm32f4xx_hal_uart.c ****   {
 999:Drivers/STM32F4xx_HAL_Driver/Src/stm32f4xx_hal_uart.c ****     huart->ErrorCode |= HAL_UART_ERROR_INVALID_CALLBACK;
1000:Drivers/STM32F4xx_HAL_Driver/Src/stm32f4xx_hal_uart.c **** 
1001:Drivers/STM32F4xx_HAL_Driver/Src/stm32f4xx_hal_uart.c ****     status =  HAL_ERROR;
1002:Drivers/STM32F4xx_HAL_Driver/Src/stm32f4xx_hal_uart.c ****   }
1003:Drivers/STM32F4xx_HAL_Driver/Src/stm32f4xx_hal_uart.c **** 
1004:Drivers/STM32F4xx_HAL_Driver/Src/stm32f4xx_hal_uart.c ****   /* Release Lock */
1005:Drivers/STM32F4xx_HAL_Driver/Src/stm32f4xx_hal_uart.c ****   __HAL_UNLOCK(huart);
1006:Drivers/STM32F4xx_HAL_Driver/Src/stm32f4xx_hal_uart.c **** 
1007:Drivers/STM32F4xx_HAL_Driver/Src/stm32f4xx_hal_uart.c ****   return status;
1008:Drivers/STM32F4xx_HAL_Driver/Src/stm32f4xx_hal_uart.c **** }
1009:Drivers/STM32F4xx_HAL_Driver/Src/stm32f4xx_hal_uart.c **** 
1010:Drivers/STM32F4xx_HAL_Driver/Src/stm32f4xx_hal_uart.c **** /**
1011:Drivers/STM32F4xx_HAL_Driver/Src/stm32f4xx_hal_uart.c ****   * @brief  UnRegister the UART Rx Event Callback
1012:Drivers/STM32F4xx_HAL_Driver/Src/stm32f4xx_hal_uart.c ****   *         UART Rx Event Callback is redirected to the weak HAL_UARTEx_RxEventCallback() predefine
1013:Drivers/STM32F4xx_HAL_Driver/Src/stm32f4xx_hal_uart.c ****   * @param  huart     Uart handle
1014:Drivers/STM32F4xx_HAL_Driver/Src/stm32f4xx_hal_uart.c ****   * @retval HAL status
1015:Drivers/STM32F4xx_HAL_Driver/Src/stm32f4xx_hal_uart.c ****   */
1016:Drivers/STM32F4xx_HAL_Driver/Src/stm32f4xx_hal_uart.c **** HAL_StatusTypeDef HAL_UART_UnRegisterRxEventCallback(UART_HandleTypeDef *huart)
1017:Drivers/STM32F4xx_HAL_Driver/Src/stm32f4xx_hal_uart.c **** {
1018:Drivers/STM32F4xx_HAL_Driver/Src/stm32f4xx_hal_uart.c ****   HAL_StatusTypeDef status = HAL_OK;
1019:Drivers/STM32F4xx_HAL_Driver/Src/stm32f4xx_hal_uart.c **** 
1020:Drivers/STM32F4xx_HAL_Driver/Src/stm32f4xx_hal_uart.c ****   /* Process locked */
1021:Drivers/STM32F4xx_HAL_Driver/Src/stm32f4xx_hal_uart.c ****   __HAL_LOCK(huart);
1022:Drivers/STM32F4xx_HAL_Driver/Src/stm32f4xx_hal_uart.c **** 
1023:Drivers/STM32F4xx_HAL_Driver/Src/stm32f4xx_hal_uart.c ****   if (huart->gState == HAL_UART_STATE_READY)
1024:Drivers/STM32F4xx_HAL_Driver/Src/stm32f4xx_hal_uart.c ****   {
1025:Drivers/STM32F4xx_HAL_Driver/Src/stm32f4xx_hal_uart.c ****     huart->RxEventCallback = HAL_UARTEx_RxEventCallback; /* Legacy weak UART Rx Event Callback  */
1026:Drivers/STM32F4xx_HAL_Driver/Src/stm32f4xx_hal_uart.c ****   }
1027:Drivers/STM32F4xx_HAL_Driver/Src/stm32f4xx_hal_uart.c ****   else
1028:Drivers/STM32F4xx_HAL_Driver/Src/stm32f4xx_hal_uart.c ****   {
1029:Drivers/STM32F4xx_HAL_Driver/Src/stm32f4xx_hal_uart.c ****     huart->ErrorCode |= HAL_UART_ERROR_INVALID_CALLBACK;
1030:Drivers/STM32F4xx_HAL_Driver/Src/stm32f4xx_hal_uart.c **** 
1031:Drivers/STM32F4xx_HAL_Driver/Src/stm32f4xx_hal_uart.c ****     status =  HAL_ERROR;
1032:Drivers/STM32F4xx_HAL_Driver/Src/stm32f4xx_hal_uart.c ****   }
1033:Drivers/STM32F4xx_HAL_Driver/Src/stm32f4xx_hal_uart.c **** 
1034:Drivers/STM32F4xx_HAL_Driver/Src/stm32f4xx_hal_uart.c ****   /* Release Lock */
1035:Drivers/STM32F4xx_HAL_Driver/Src/stm32f4xx_hal_uart.c ****   __HAL_UNLOCK(huart);
1036:Drivers/STM32F4xx_HAL_Driver/Src/stm32f4xx_hal_uart.c ****   return status;
1037:Drivers/STM32F4xx_HAL_Driver/Src/stm32f4xx_hal_uart.c **** }
1038:Drivers/STM32F4xx_HAL_Driver/Src/stm32f4xx_hal_uart.c **** #endif /* USE_HAL_UART_REGISTER_CALLBACKS */
1039:Drivers/STM32F4xx_HAL_Driver/Src/stm32f4xx_hal_uart.c **** 
1040:Drivers/STM32F4xx_HAL_Driver/Src/stm32f4xx_hal_uart.c **** /**
ARM GAS  C:\Users\Konrad\AppData\Local\Temp\ccBcBO6H.s 			page 21


1041:Drivers/STM32F4xx_HAL_Driver/Src/stm32f4xx_hal_uart.c ****   * @}
1042:Drivers/STM32F4xx_HAL_Driver/Src/stm32f4xx_hal_uart.c ****   */
1043:Drivers/STM32F4xx_HAL_Driver/Src/stm32f4xx_hal_uart.c **** 
1044:Drivers/STM32F4xx_HAL_Driver/Src/stm32f4xx_hal_uart.c **** /** @defgroup UART_Exported_Functions_Group2 IO operation functions
1045:Drivers/STM32F4xx_HAL_Driver/Src/stm32f4xx_hal_uart.c ****   *  @brief UART Transmit and Receive functions
1046:Drivers/STM32F4xx_HAL_Driver/Src/stm32f4xx_hal_uart.c ****   *
1047:Drivers/STM32F4xx_HAL_Driver/Src/stm32f4xx_hal_uart.c **** @verbatim
1048:Drivers/STM32F4xx_HAL_Driver/Src/stm32f4xx_hal_uart.c ****  ===============================================================================
1049:Drivers/STM32F4xx_HAL_Driver/Src/stm32f4xx_hal_uart.c ****                       ##### IO operation functions #####
1050:Drivers/STM32F4xx_HAL_Driver/Src/stm32f4xx_hal_uart.c ****  ===============================================================================
1051:Drivers/STM32F4xx_HAL_Driver/Src/stm32f4xx_hal_uart.c ****     This subsection provides a set of functions allowing to manage the UART asynchronous
1052:Drivers/STM32F4xx_HAL_Driver/Src/stm32f4xx_hal_uart.c ****     and Half duplex data transfers.
1053:Drivers/STM32F4xx_HAL_Driver/Src/stm32f4xx_hal_uart.c **** 
1054:Drivers/STM32F4xx_HAL_Driver/Src/stm32f4xx_hal_uart.c ****     (#) There are two modes of transfer:
1055:Drivers/STM32F4xx_HAL_Driver/Src/stm32f4xx_hal_uart.c ****        (+) Blocking mode: The communication is performed in polling mode.
1056:Drivers/STM32F4xx_HAL_Driver/Src/stm32f4xx_hal_uart.c ****            The HAL status of all data processing is returned by the same function
1057:Drivers/STM32F4xx_HAL_Driver/Src/stm32f4xx_hal_uart.c ****            after finishing transfer.
1058:Drivers/STM32F4xx_HAL_Driver/Src/stm32f4xx_hal_uart.c ****        (+) Non-Blocking mode: The communication is performed using Interrupts
1059:Drivers/STM32F4xx_HAL_Driver/Src/stm32f4xx_hal_uart.c ****            or DMA, these API's return the HAL status.
1060:Drivers/STM32F4xx_HAL_Driver/Src/stm32f4xx_hal_uart.c ****            The end of the data processing will be indicated through the
1061:Drivers/STM32F4xx_HAL_Driver/Src/stm32f4xx_hal_uart.c ****            dedicated UART IRQ when using Interrupt mode or the DMA IRQ when
1062:Drivers/STM32F4xx_HAL_Driver/Src/stm32f4xx_hal_uart.c ****            using DMA mode.
1063:Drivers/STM32F4xx_HAL_Driver/Src/stm32f4xx_hal_uart.c ****            The HAL_UART_TxCpltCallback(), HAL_UART_RxCpltCallback() user callbacks
1064:Drivers/STM32F4xx_HAL_Driver/Src/stm32f4xx_hal_uart.c ****            will be executed respectively at the end of the transmit or receive process
1065:Drivers/STM32F4xx_HAL_Driver/Src/stm32f4xx_hal_uart.c ****            The HAL_UART_ErrorCallback()user callback will be executed when a communication error is
1066:Drivers/STM32F4xx_HAL_Driver/Src/stm32f4xx_hal_uart.c **** 
1067:Drivers/STM32F4xx_HAL_Driver/Src/stm32f4xx_hal_uart.c ****     (#) Blocking mode API's are :
1068:Drivers/STM32F4xx_HAL_Driver/Src/stm32f4xx_hal_uart.c ****         (+) HAL_UART_Transmit()
1069:Drivers/STM32F4xx_HAL_Driver/Src/stm32f4xx_hal_uart.c ****         (+) HAL_UART_Receive()
1070:Drivers/STM32F4xx_HAL_Driver/Src/stm32f4xx_hal_uart.c **** 
1071:Drivers/STM32F4xx_HAL_Driver/Src/stm32f4xx_hal_uart.c ****     (#) Non-Blocking mode API's with Interrupt are :
1072:Drivers/STM32F4xx_HAL_Driver/Src/stm32f4xx_hal_uart.c ****         (+) HAL_UART_Transmit_IT()
1073:Drivers/STM32F4xx_HAL_Driver/Src/stm32f4xx_hal_uart.c ****         (+) HAL_UART_Receive_IT()
1074:Drivers/STM32F4xx_HAL_Driver/Src/stm32f4xx_hal_uart.c ****         (+) HAL_UART_IRQHandler()
1075:Drivers/STM32F4xx_HAL_Driver/Src/stm32f4xx_hal_uart.c **** 
1076:Drivers/STM32F4xx_HAL_Driver/Src/stm32f4xx_hal_uart.c ****     (#) Non-Blocking mode API's with DMA are :
1077:Drivers/STM32F4xx_HAL_Driver/Src/stm32f4xx_hal_uart.c ****         (+) HAL_UART_Transmit_DMA()
1078:Drivers/STM32F4xx_HAL_Driver/Src/stm32f4xx_hal_uart.c ****         (+) HAL_UART_Receive_DMA()
1079:Drivers/STM32F4xx_HAL_Driver/Src/stm32f4xx_hal_uart.c ****         (+) HAL_UART_DMAPause()
1080:Drivers/STM32F4xx_HAL_Driver/Src/stm32f4xx_hal_uart.c ****         (+) HAL_UART_DMAResume()
1081:Drivers/STM32F4xx_HAL_Driver/Src/stm32f4xx_hal_uart.c ****         (+) HAL_UART_DMAStop()
1082:Drivers/STM32F4xx_HAL_Driver/Src/stm32f4xx_hal_uart.c **** 
1083:Drivers/STM32F4xx_HAL_Driver/Src/stm32f4xx_hal_uart.c ****     (#) A set of Transfer Complete Callbacks are provided in Non_Blocking mode:
1084:Drivers/STM32F4xx_HAL_Driver/Src/stm32f4xx_hal_uart.c ****         (+) HAL_UART_TxHalfCpltCallback()
1085:Drivers/STM32F4xx_HAL_Driver/Src/stm32f4xx_hal_uart.c ****         (+) HAL_UART_TxCpltCallback()
1086:Drivers/STM32F4xx_HAL_Driver/Src/stm32f4xx_hal_uart.c ****         (+) HAL_UART_RxHalfCpltCallback()
1087:Drivers/STM32F4xx_HAL_Driver/Src/stm32f4xx_hal_uart.c ****         (+) HAL_UART_RxCpltCallback()
1088:Drivers/STM32F4xx_HAL_Driver/Src/stm32f4xx_hal_uart.c ****         (+) HAL_UART_ErrorCallback()
1089:Drivers/STM32F4xx_HAL_Driver/Src/stm32f4xx_hal_uart.c **** 
1090:Drivers/STM32F4xx_HAL_Driver/Src/stm32f4xx_hal_uart.c ****     (#) Non-Blocking mode transfers could be aborted using Abort API's :
1091:Drivers/STM32F4xx_HAL_Driver/Src/stm32f4xx_hal_uart.c ****         (+) HAL_UART_Abort()
1092:Drivers/STM32F4xx_HAL_Driver/Src/stm32f4xx_hal_uart.c ****         (+) HAL_UART_AbortTransmit()
1093:Drivers/STM32F4xx_HAL_Driver/Src/stm32f4xx_hal_uart.c ****         (+) HAL_UART_AbortReceive()
1094:Drivers/STM32F4xx_HAL_Driver/Src/stm32f4xx_hal_uart.c ****         (+) HAL_UART_Abort_IT()
1095:Drivers/STM32F4xx_HAL_Driver/Src/stm32f4xx_hal_uart.c ****         (+) HAL_UART_AbortTransmit_IT()
1096:Drivers/STM32F4xx_HAL_Driver/Src/stm32f4xx_hal_uart.c ****         (+) HAL_UART_AbortReceive_IT()
1097:Drivers/STM32F4xx_HAL_Driver/Src/stm32f4xx_hal_uart.c **** 
ARM GAS  C:\Users\Konrad\AppData\Local\Temp\ccBcBO6H.s 			page 22


1098:Drivers/STM32F4xx_HAL_Driver/Src/stm32f4xx_hal_uart.c ****     (#) For Abort services based on interrupts (HAL_UART_Abortxxx_IT), a set of Abort Complete Call
1099:Drivers/STM32F4xx_HAL_Driver/Src/stm32f4xx_hal_uart.c ****         (+) HAL_UART_AbortCpltCallback()
1100:Drivers/STM32F4xx_HAL_Driver/Src/stm32f4xx_hal_uart.c ****         (+) HAL_UART_AbortTransmitCpltCallback()
1101:Drivers/STM32F4xx_HAL_Driver/Src/stm32f4xx_hal_uart.c ****         (+) HAL_UART_AbortReceiveCpltCallback()
1102:Drivers/STM32F4xx_HAL_Driver/Src/stm32f4xx_hal_uart.c **** 
1103:Drivers/STM32F4xx_HAL_Driver/Src/stm32f4xx_hal_uart.c ****     (#) A Rx Event Reception Callback (Rx event notification) is available for Non_Blocking modes o
1104:Drivers/STM32F4xx_HAL_Driver/Src/stm32f4xx_hal_uart.c ****         (+) HAL_UARTEx_RxEventCallback()
1105:Drivers/STM32F4xx_HAL_Driver/Src/stm32f4xx_hal_uart.c **** 
1106:Drivers/STM32F4xx_HAL_Driver/Src/stm32f4xx_hal_uart.c ****     (#) In Non-Blocking mode transfers, possible errors are split into 2 categories.
1107:Drivers/STM32F4xx_HAL_Driver/Src/stm32f4xx_hal_uart.c ****         Errors are handled as follows :
1108:Drivers/STM32F4xx_HAL_Driver/Src/stm32f4xx_hal_uart.c ****        (+) Error is considered as Recoverable and non blocking : Transfer could go till end, but er
1109:Drivers/STM32F4xx_HAL_Driver/Src/stm32f4xx_hal_uart.c ****            to be evaluated by user : this concerns Frame Error, Parity Error or Noise Error in Inte
1110:Drivers/STM32F4xx_HAL_Driver/Src/stm32f4xx_hal_uart.c ****            Received character is then retrieved and stored in Rx buffer, Error code is set to allow
1111:Drivers/STM32F4xx_HAL_Driver/Src/stm32f4xx_hal_uart.c ****            and HAL_UART_ErrorCallback() user callback is executed. Transfer is kept ongoing on UART
1112:Drivers/STM32F4xx_HAL_Driver/Src/stm32f4xx_hal_uart.c ****            If user wants to abort it, Abort services should be called by user.
1113:Drivers/STM32F4xx_HAL_Driver/Src/stm32f4xx_hal_uart.c ****        (+) Error is considered as Blocking : Transfer could not be completed properly and is aborte
1114:Drivers/STM32F4xx_HAL_Driver/Src/stm32f4xx_hal_uart.c ****            This concerns Overrun Error In Interrupt mode reception and all errors in DMA mode.
1115:Drivers/STM32F4xx_HAL_Driver/Src/stm32f4xx_hal_uart.c ****            Error code is set to allow user to identify error type, and HAL_UART_ErrorCallback() use
1116:Drivers/STM32F4xx_HAL_Driver/Src/stm32f4xx_hal_uart.c **** 
1117:Drivers/STM32F4xx_HAL_Driver/Src/stm32f4xx_hal_uart.c ****     -@- In the Half duplex communication, it is forbidden to run the transmit
1118:Drivers/STM32F4xx_HAL_Driver/Src/stm32f4xx_hal_uart.c ****         and receive process in parallel, the UART state HAL_UART_STATE_BUSY_TX_RX can't be useful.
1119:Drivers/STM32F4xx_HAL_Driver/Src/stm32f4xx_hal_uart.c **** 
1120:Drivers/STM32F4xx_HAL_Driver/Src/stm32f4xx_hal_uart.c **** @endverbatim
1121:Drivers/STM32F4xx_HAL_Driver/Src/stm32f4xx_hal_uart.c ****   * @{
1122:Drivers/STM32F4xx_HAL_Driver/Src/stm32f4xx_hal_uart.c ****   */
1123:Drivers/STM32F4xx_HAL_Driver/Src/stm32f4xx_hal_uart.c **** 
1124:Drivers/STM32F4xx_HAL_Driver/Src/stm32f4xx_hal_uart.c **** /**
1125:Drivers/STM32F4xx_HAL_Driver/Src/stm32f4xx_hal_uart.c ****   * @brief  Sends an amount of data in blocking mode.
1126:Drivers/STM32F4xx_HAL_Driver/Src/stm32f4xx_hal_uart.c ****   * @note   When UART parity is not enabled (PCE = 0), and Word Length is configured to 9 bits (M1-
1127:Drivers/STM32F4xx_HAL_Driver/Src/stm32f4xx_hal_uart.c ****   *         the sent data is handled as a set of u16. In this case, Size must indicate the number
1128:Drivers/STM32F4xx_HAL_Driver/Src/stm32f4xx_hal_uart.c ****   *         of u16 provided through pData.
1129:Drivers/STM32F4xx_HAL_Driver/Src/stm32f4xx_hal_uart.c ****   * @param  huart Pointer to a UART_HandleTypeDef structure that contains
1130:Drivers/STM32F4xx_HAL_Driver/Src/stm32f4xx_hal_uart.c ****   *               the configuration information for the specified UART module.
1131:Drivers/STM32F4xx_HAL_Driver/Src/stm32f4xx_hal_uart.c ****   * @param  pData Pointer to data buffer (u8 or u16 data elements).
1132:Drivers/STM32F4xx_HAL_Driver/Src/stm32f4xx_hal_uart.c ****   * @param  Size  Amount of data elements (u8 or u16) to be sent
1133:Drivers/STM32F4xx_HAL_Driver/Src/stm32f4xx_hal_uart.c ****   * @param  Timeout Timeout duration
1134:Drivers/STM32F4xx_HAL_Driver/Src/stm32f4xx_hal_uart.c ****   * @retval HAL status
1135:Drivers/STM32F4xx_HAL_Driver/Src/stm32f4xx_hal_uart.c ****   */
1136:Drivers/STM32F4xx_HAL_Driver/Src/stm32f4xx_hal_uart.c **** HAL_StatusTypeDef HAL_UART_Transmit(UART_HandleTypeDef *huart, const uint8_t *pData, uint16_t Size,
1137:Drivers/STM32F4xx_HAL_Driver/Src/stm32f4xx_hal_uart.c **** {
1138:Drivers/STM32F4xx_HAL_Driver/Src/stm32f4xx_hal_uart.c ****   const uint8_t  *pdata8bits;
1139:Drivers/STM32F4xx_HAL_Driver/Src/stm32f4xx_hal_uart.c ****   const uint16_t *pdata16bits;
1140:Drivers/STM32F4xx_HAL_Driver/Src/stm32f4xx_hal_uart.c ****   uint32_t tickstart = 0U;
1141:Drivers/STM32F4xx_HAL_Driver/Src/stm32f4xx_hal_uart.c **** 
1142:Drivers/STM32F4xx_HAL_Driver/Src/stm32f4xx_hal_uart.c ****   /* Check that a Tx process is not already ongoing */
1143:Drivers/STM32F4xx_HAL_Driver/Src/stm32f4xx_hal_uart.c ****   if (huart->gState == HAL_UART_STATE_READY)
1144:Drivers/STM32F4xx_HAL_Driver/Src/stm32f4xx_hal_uart.c ****   {
1145:Drivers/STM32F4xx_HAL_Driver/Src/stm32f4xx_hal_uart.c ****     if ((pData == NULL) || (Size == 0U))
1146:Drivers/STM32F4xx_HAL_Driver/Src/stm32f4xx_hal_uart.c ****     {
1147:Drivers/STM32F4xx_HAL_Driver/Src/stm32f4xx_hal_uart.c ****       return  HAL_ERROR;
1148:Drivers/STM32F4xx_HAL_Driver/Src/stm32f4xx_hal_uart.c ****     }
1149:Drivers/STM32F4xx_HAL_Driver/Src/stm32f4xx_hal_uart.c **** 
1150:Drivers/STM32F4xx_HAL_Driver/Src/stm32f4xx_hal_uart.c ****     /* Process Locked */
1151:Drivers/STM32F4xx_HAL_Driver/Src/stm32f4xx_hal_uart.c ****     __HAL_LOCK(huart);
1152:Drivers/STM32F4xx_HAL_Driver/Src/stm32f4xx_hal_uart.c **** 
1153:Drivers/STM32F4xx_HAL_Driver/Src/stm32f4xx_hal_uart.c ****     huart->ErrorCode = HAL_UART_ERROR_NONE;
1154:Drivers/STM32F4xx_HAL_Driver/Src/stm32f4xx_hal_uart.c ****     huart->gState = HAL_UART_STATE_BUSY_TX;
ARM GAS  C:\Users\Konrad\AppData\Local\Temp\ccBcBO6H.s 			page 23


1155:Drivers/STM32F4xx_HAL_Driver/Src/stm32f4xx_hal_uart.c **** 
1156:Drivers/STM32F4xx_HAL_Driver/Src/stm32f4xx_hal_uart.c ****     /* Init tickstart for timeout management */
1157:Drivers/STM32F4xx_HAL_Driver/Src/stm32f4xx_hal_uart.c ****     tickstart = HAL_GetTick();
1158:Drivers/STM32F4xx_HAL_Driver/Src/stm32f4xx_hal_uart.c **** 
1159:Drivers/STM32F4xx_HAL_Driver/Src/stm32f4xx_hal_uart.c ****     huart->TxXferSize = Size;
1160:Drivers/STM32F4xx_HAL_Driver/Src/stm32f4xx_hal_uart.c ****     huart->TxXferCount = Size;
1161:Drivers/STM32F4xx_HAL_Driver/Src/stm32f4xx_hal_uart.c **** 
1162:Drivers/STM32F4xx_HAL_Driver/Src/stm32f4xx_hal_uart.c ****     /* In case of 9bits/No Parity transfer, pData needs to be handled as a uint16_t pointer */
1163:Drivers/STM32F4xx_HAL_Driver/Src/stm32f4xx_hal_uart.c ****     if ((huart->Init.WordLength == UART_WORDLENGTH_9B) && (huart->Init.Parity == UART_PARITY_NONE))
1164:Drivers/STM32F4xx_HAL_Driver/Src/stm32f4xx_hal_uart.c ****     {
1165:Drivers/STM32F4xx_HAL_Driver/Src/stm32f4xx_hal_uart.c ****       pdata8bits  = NULL;
1166:Drivers/STM32F4xx_HAL_Driver/Src/stm32f4xx_hal_uart.c ****       pdata16bits = (const uint16_t *) pData;
1167:Drivers/STM32F4xx_HAL_Driver/Src/stm32f4xx_hal_uart.c ****     }
1168:Drivers/STM32F4xx_HAL_Driver/Src/stm32f4xx_hal_uart.c ****     else
1169:Drivers/STM32F4xx_HAL_Driver/Src/stm32f4xx_hal_uart.c ****     {
1170:Drivers/STM32F4xx_HAL_Driver/Src/stm32f4xx_hal_uart.c ****       pdata8bits  = pData;
1171:Drivers/STM32F4xx_HAL_Driver/Src/stm32f4xx_hal_uart.c ****       pdata16bits = NULL;
1172:Drivers/STM32F4xx_HAL_Driver/Src/stm32f4xx_hal_uart.c ****     }
1173:Drivers/STM32F4xx_HAL_Driver/Src/stm32f4xx_hal_uart.c **** 
1174:Drivers/STM32F4xx_HAL_Driver/Src/stm32f4xx_hal_uart.c ****     /* Process Unlocked */
1175:Drivers/STM32F4xx_HAL_Driver/Src/stm32f4xx_hal_uart.c ****     __HAL_UNLOCK(huart);
1176:Drivers/STM32F4xx_HAL_Driver/Src/stm32f4xx_hal_uart.c **** 
1177:Drivers/STM32F4xx_HAL_Driver/Src/stm32f4xx_hal_uart.c ****     while (huart->TxXferCount > 0U)
1178:Drivers/STM32F4xx_HAL_Driver/Src/stm32f4xx_hal_uart.c ****     {
1179:Drivers/STM32F4xx_HAL_Driver/Src/stm32f4xx_hal_uart.c ****       if (UART_WaitOnFlagUntilTimeout(huart, UART_FLAG_TXE, RESET, tickstart, Timeout) != HAL_OK)
1180:Drivers/STM32F4xx_HAL_Driver/Src/stm32f4xx_hal_uart.c ****       {
1181:Drivers/STM32F4xx_HAL_Driver/Src/stm32f4xx_hal_uart.c ****         return HAL_TIMEOUT;
1182:Drivers/STM32F4xx_HAL_Driver/Src/stm32f4xx_hal_uart.c ****       }
1183:Drivers/STM32F4xx_HAL_Driver/Src/stm32f4xx_hal_uart.c ****       if (pdata8bits == NULL)
1184:Drivers/STM32F4xx_HAL_Driver/Src/stm32f4xx_hal_uart.c ****       {
1185:Drivers/STM32F4xx_HAL_Driver/Src/stm32f4xx_hal_uart.c ****         huart->Instance->DR = (uint16_t)(*pdata16bits & 0x01FFU);
1186:Drivers/STM32F4xx_HAL_Driver/Src/stm32f4xx_hal_uart.c ****         pdata16bits++;
1187:Drivers/STM32F4xx_HAL_Driver/Src/stm32f4xx_hal_uart.c ****       }
1188:Drivers/STM32F4xx_HAL_Driver/Src/stm32f4xx_hal_uart.c ****       else
1189:Drivers/STM32F4xx_HAL_Driver/Src/stm32f4xx_hal_uart.c ****       {
1190:Drivers/STM32F4xx_HAL_Driver/Src/stm32f4xx_hal_uart.c ****         huart->Instance->DR = (uint8_t)(*pdata8bits & 0xFFU);
1191:Drivers/STM32F4xx_HAL_Driver/Src/stm32f4xx_hal_uart.c ****         pdata8bits++;
1192:Drivers/STM32F4xx_HAL_Driver/Src/stm32f4xx_hal_uart.c ****       }
1193:Drivers/STM32F4xx_HAL_Driver/Src/stm32f4xx_hal_uart.c ****       huart->TxXferCount--;
1194:Drivers/STM32F4xx_HAL_Driver/Src/stm32f4xx_hal_uart.c ****     }
1195:Drivers/STM32F4xx_HAL_Driver/Src/stm32f4xx_hal_uart.c **** 
1196:Drivers/STM32F4xx_HAL_Driver/Src/stm32f4xx_hal_uart.c ****     if (UART_WaitOnFlagUntilTimeout(huart, UART_FLAG_TC, RESET, tickstart, Timeout) != HAL_OK)
1197:Drivers/STM32F4xx_HAL_Driver/Src/stm32f4xx_hal_uart.c ****     {
1198:Drivers/STM32F4xx_HAL_Driver/Src/stm32f4xx_hal_uart.c ****       return HAL_TIMEOUT;
1199:Drivers/STM32F4xx_HAL_Driver/Src/stm32f4xx_hal_uart.c ****     }
1200:Drivers/STM32F4xx_HAL_Driver/Src/stm32f4xx_hal_uart.c **** 
1201:Drivers/STM32F4xx_HAL_Driver/Src/stm32f4xx_hal_uart.c ****     /* At end of Tx process, restore huart->gState to Ready */
1202:Drivers/STM32F4xx_HAL_Driver/Src/stm32f4xx_hal_uart.c ****     huart->gState = HAL_UART_STATE_READY;
1203:Drivers/STM32F4xx_HAL_Driver/Src/stm32f4xx_hal_uart.c **** 
1204:Drivers/STM32F4xx_HAL_Driver/Src/stm32f4xx_hal_uart.c ****     return HAL_OK;
1205:Drivers/STM32F4xx_HAL_Driver/Src/stm32f4xx_hal_uart.c ****   }
1206:Drivers/STM32F4xx_HAL_Driver/Src/stm32f4xx_hal_uart.c ****   else
1207:Drivers/STM32F4xx_HAL_Driver/Src/stm32f4xx_hal_uart.c ****   {
1208:Drivers/STM32F4xx_HAL_Driver/Src/stm32f4xx_hal_uart.c ****     return HAL_BUSY;
1209:Drivers/STM32F4xx_HAL_Driver/Src/stm32f4xx_hal_uart.c ****   }
1210:Drivers/STM32F4xx_HAL_Driver/Src/stm32f4xx_hal_uart.c **** }
1211:Drivers/STM32F4xx_HAL_Driver/Src/stm32f4xx_hal_uart.c **** 
ARM GAS  C:\Users\Konrad\AppData\Local\Temp\ccBcBO6H.s 			page 24


1212:Drivers/STM32F4xx_HAL_Driver/Src/stm32f4xx_hal_uart.c **** /**
1213:Drivers/STM32F4xx_HAL_Driver/Src/stm32f4xx_hal_uart.c ****   * @brief  Receives an amount of data in blocking mode.
1214:Drivers/STM32F4xx_HAL_Driver/Src/stm32f4xx_hal_uart.c ****   * @note   When UART parity is not enabled (PCE = 0), and Word Length is configured to 9 bits (M1-
1215:Drivers/STM32F4xx_HAL_Driver/Src/stm32f4xx_hal_uart.c ****   *         the received data is handled as a set of u16. In this case, Size must indicate the numb
1216:Drivers/STM32F4xx_HAL_Driver/Src/stm32f4xx_hal_uart.c ****   *         of u16 available through pData.
1217:Drivers/STM32F4xx_HAL_Driver/Src/stm32f4xx_hal_uart.c ****   * @param  huart Pointer to a UART_HandleTypeDef structure that contains
1218:Drivers/STM32F4xx_HAL_Driver/Src/stm32f4xx_hal_uart.c ****   *               the configuration information for the specified UART module.
1219:Drivers/STM32F4xx_HAL_Driver/Src/stm32f4xx_hal_uart.c ****   * @param  pData Pointer to data buffer (u8 or u16 data elements).
1220:Drivers/STM32F4xx_HAL_Driver/Src/stm32f4xx_hal_uart.c ****   * @param  Size  Amount of data elements (u8 or u16) to be received.
1221:Drivers/STM32F4xx_HAL_Driver/Src/stm32f4xx_hal_uart.c ****   * @param  Timeout Timeout duration
1222:Drivers/STM32F4xx_HAL_Driver/Src/stm32f4xx_hal_uart.c ****   * @retval HAL status
1223:Drivers/STM32F4xx_HAL_Driver/Src/stm32f4xx_hal_uart.c ****   */
1224:Drivers/STM32F4xx_HAL_Driver/Src/stm32f4xx_hal_uart.c **** HAL_StatusTypeDef HAL_UART_Receive(UART_HandleTypeDef *huart, uint8_t *pData, uint16_t Size, uint32
1225:Drivers/STM32F4xx_HAL_Driver/Src/stm32f4xx_hal_uart.c **** {
1226:Drivers/STM32F4xx_HAL_Driver/Src/stm32f4xx_hal_uart.c ****   uint8_t  *pdata8bits;
1227:Drivers/STM32F4xx_HAL_Driver/Src/stm32f4xx_hal_uart.c ****   uint16_t *pdata16bits;
1228:Drivers/STM32F4xx_HAL_Driver/Src/stm32f4xx_hal_uart.c ****   uint32_t tickstart = 0U;
1229:Drivers/STM32F4xx_HAL_Driver/Src/stm32f4xx_hal_uart.c **** 
1230:Drivers/STM32F4xx_HAL_Driver/Src/stm32f4xx_hal_uart.c ****   /* Check that a Rx process is not already ongoing */
1231:Drivers/STM32F4xx_HAL_Driver/Src/stm32f4xx_hal_uart.c ****   if (huart->RxState == HAL_UART_STATE_READY)
1232:Drivers/STM32F4xx_HAL_Driver/Src/stm32f4xx_hal_uart.c ****   {
1233:Drivers/STM32F4xx_HAL_Driver/Src/stm32f4xx_hal_uart.c ****     if ((pData == NULL) || (Size == 0U))
1234:Drivers/STM32F4xx_HAL_Driver/Src/stm32f4xx_hal_uart.c ****     {
1235:Drivers/STM32F4xx_HAL_Driver/Src/stm32f4xx_hal_uart.c ****       return  HAL_ERROR;
1236:Drivers/STM32F4xx_HAL_Driver/Src/stm32f4xx_hal_uart.c ****     }
1237:Drivers/STM32F4xx_HAL_Driver/Src/stm32f4xx_hal_uart.c **** 
1238:Drivers/STM32F4xx_HAL_Driver/Src/stm32f4xx_hal_uart.c ****     /* Process Locked */
1239:Drivers/STM32F4xx_HAL_Driver/Src/stm32f4xx_hal_uart.c ****     __HAL_LOCK(huart);
1240:Drivers/STM32F4xx_HAL_Driver/Src/stm32f4xx_hal_uart.c **** 
1241:Drivers/STM32F4xx_HAL_Driver/Src/stm32f4xx_hal_uart.c ****     huart->ErrorCode = HAL_UART_ERROR_NONE;
1242:Drivers/STM32F4xx_HAL_Driver/Src/stm32f4xx_hal_uart.c ****     huart->RxState = HAL_UART_STATE_BUSY_RX;
1243:Drivers/STM32F4xx_HAL_Driver/Src/stm32f4xx_hal_uart.c ****     huart->ReceptionType = HAL_UART_RECEPTION_STANDARD;
1244:Drivers/STM32F4xx_HAL_Driver/Src/stm32f4xx_hal_uart.c **** 
1245:Drivers/STM32F4xx_HAL_Driver/Src/stm32f4xx_hal_uart.c ****     /* Init tickstart for timeout management */
1246:Drivers/STM32F4xx_HAL_Driver/Src/stm32f4xx_hal_uart.c ****     tickstart = HAL_GetTick();
1247:Drivers/STM32F4xx_HAL_Driver/Src/stm32f4xx_hal_uart.c **** 
1248:Drivers/STM32F4xx_HAL_Driver/Src/stm32f4xx_hal_uart.c ****     huart->RxXferSize = Size;
1249:Drivers/STM32F4xx_HAL_Driver/Src/stm32f4xx_hal_uart.c ****     huart->RxXferCount = Size;
1250:Drivers/STM32F4xx_HAL_Driver/Src/stm32f4xx_hal_uart.c **** 
1251:Drivers/STM32F4xx_HAL_Driver/Src/stm32f4xx_hal_uart.c ****     /* In case of 9bits/No Parity transfer, pRxData needs to be handled as a uint16_t pointer */
1252:Drivers/STM32F4xx_HAL_Driver/Src/stm32f4xx_hal_uart.c ****     if ((huart->Init.WordLength == UART_WORDLENGTH_9B) && (huart->Init.Parity == UART_PARITY_NONE))
1253:Drivers/STM32F4xx_HAL_Driver/Src/stm32f4xx_hal_uart.c ****     {
1254:Drivers/STM32F4xx_HAL_Driver/Src/stm32f4xx_hal_uart.c ****       pdata8bits  = NULL;
1255:Drivers/STM32F4xx_HAL_Driver/Src/stm32f4xx_hal_uart.c ****       pdata16bits = (uint16_t *) pData;
1256:Drivers/STM32F4xx_HAL_Driver/Src/stm32f4xx_hal_uart.c ****     }
1257:Drivers/STM32F4xx_HAL_Driver/Src/stm32f4xx_hal_uart.c ****     else
1258:Drivers/STM32F4xx_HAL_Driver/Src/stm32f4xx_hal_uart.c ****     {
1259:Drivers/STM32F4xx_HAL_Driver/Src/stm32f4xx_hal_uart.c ****       pdata8bits  = pData;
1260:Drivers/STM32F4xx_HAL_Driver/Src/stm32f4xx_hal_uart.c ****       pdata16bits = NULL;
1261:Drivers/STM32F4xx_HAL_Driver/Src/stm32f4xx_hal_uart.c ****     }
1262:Drivers/STM32F4xx_HAL_Driver/Src/stm32f4xx_hal_uart.c **** 
1263:Drivers/STM32F4xx_HAL_Driver/Src/stm32f4xx_hal_uart.c ****     /* Process Unlocked */
1264:Drivers/STM32F4xx_HAL_Driver/Src/stm32f4xx_hal_uart.c ****     __HAL_UNLOCK(huart);
1265:Drivers/STM32F4xx_HAL_Driver/Src/stm32f4xx_hal_uart.c **** 
1266:Drivers/STM32F4xx_HAL_Driver/Src/stm32f4xx_hal_uart.c ****     /* Check the remain data to be received */
1267:Drivers/STM32F4xx_HAL_Driver/Src/stm32f4xx_hal_uart.c ****     while (huart->RxXferCount > 0U)
1268:Drivers/STM32F4xx_HAL_Driver/Src/stm32f4xx_hal_uart.c ****     {
ARM GAS  C:\Users\Konrad\AppData\Local\Temp\ccBcBO6H.s 			page 25


1269:Drivers/STM32F4xx_HAL_Driver/Src/stm32f4xx_hal_uart.c ****       if (UART_WaitOnFlagUntilTimeout(huart, UART_FLAG_RXNE, RESET, tickstart, Timeout) != HAL_OK)
1270:Drivers/STM32F4xx_HAL_Driver/Src/stm32f4xx_hal_uart.c ****       {
1271:Drivers/STM32F4xx_HAL_Driver/Src/stm32f4xx_hal_uart.c ****         return HAL_TIMEOUT;
1272:Drivers/STM32F4xx_HAL_Driver/Src/stm32f4xx_hal_uart.c ****       }
1273:Drivers/STM32F4xx_HAL_Driver/Src/stm32f4xx_hal_uart.c ****       if (pdata8bits == NULL)
1274:Drivers/STM32F4xx_HAL_Driver/Src/stm32f4xx_hal_uart.c ****       {
1275:Drivers/STM32F4xx_HAL_Driver/Src/stm32f4xx_hal_uart.c ****         *pdata16bits = (uint16_t)(huart->Instance->DR & 0x01FF);
1276:Drivers/STM32F4xx_HAL_Driver/Src/stm32f4xx_hal_uart.c ****         pdata16bits++;
1277:Drivers/STM32F4xx_HAL_Driver/Src/stm32f4xx_hal_uart.c ****       }
1278:Drivers/STM32F4xx_HAL_Driver/Src/stm32f4xx_hal_uart.c ****       else
1279:Drivers/STM32F4xx_HAL_Driver/Src/stm32f4xx_hal_uart.c ****       {
1280:Drivers/STM32F4xx_HAL_Driver/Src/stm32f4xx_hal_uart.c ****         if ((huart->Init.WordLength == UART_WORDLENGTH_9B) || ((huart->Init.WordLength == UART_WORD
1281:Drivers/STM32F4xx_HAL_Driver/Src/stm32f4xx_hal_uart.c ****         {
1282:Drivers/STM32F4xx_HAL_Driver/Src/stm32f4xx_hal_uart.c ****           *pdata8bits = (uint8_t)(huart->Instance->DR & (uint8_t)0x00FF);
1283:Drivers/STM32F4xx_HAL_Driver/Src/stm32f4xx_hal_uart.c ****         }
1284:Drivers/STM32F4xx_HAL_Driver/Src/stm32f4xx_hal_uart.c ****         else
1285:Drivers/STM32F4xx_HAL_Driver/Src/stm32f4xx_hal_uart.c ****         {
1286:Drivers/STM32F4xx_HAL_Driver/Src/stm32f4xx_hal_uart.c ****           *pdata8bits = (uint8_t)(huart->Instance->DR & (uint8_t)0x007F);
1287:Drivers/STM32F4xx_HAL_Driver/Src/stm32f4xx_hal_uart.c ****         }
1288:Drivers/STM32F4xx_HAL_Driver/Src/stm32f4xx_hal_uart.c ****         pdata8bits++;
1289:Drivers/STM32F4xx_HAL_Driver/Src/stm32f4xx_hal_uart.c ****       }
1290:Drivers/STM32F4xx_HAL_Driver/Src/stm32f4xx_hal_uart.c ****       huart->RxXferCount--;
1291:Drivers/STM32F4xx_HAL_Driver/Src/stm32f4xx_hal_uart.c ****     }
1292:Drivers/STM32F4xx_HAL_Driver/Src/stm32f4xx_hal_uart.c **** 
1293:Drivers/STM32F4xx_HAL_Driver/Src/stm32f4xx_hal_uart.c ****     /* At end of Rx process, restore huart->RxState to Ready */
1294:Drivers/STM32F4xx_HAL_Driver/Src/stm32f4xx_hal_uart.c ****     huart->RxState = HAL_UART_STATE_READY;
1295:Drivers/STM32F4xx_HAL_Driver/Src/stm32f4xx_hal_uart.c **** 
1296:Drivers/STM32F4xx_HAL_Driver/Src/stm32f4xx_hal_uart.c ****     return HAL_OK;
1297:Drivers/STM32F4xx_HAL_Driver/Src/stm32f4xx_hal_uart.c ****   }
1298:Drivers/STM32F4xx_HAL_Driver/Src/stm32f4xx_hal_uart.c ****   else
1299:Drivers/STM32F4xx_HAL_Driver/Src/stm32f4xx_hal_uart.c ****   {
1300:Drivers/STM32F4xx_HAL_Driver/Src/stm32f4xx_hal_uart.c ****     return HAL_BUSY;
1301:Drivers/STM32F4xx_HAL_Driver/Src/stm32f4xx_hal_uart.c ****   }
1302:Drivers/STM32F4xx_HAL_Driver/Src/stm32f4xx_hal_uart.c **** }
1303:Drivers/STM32F4xx_HAL_Driver/Src/stm32f4xx_hal_uart.c **** 
1304:Drivers/STM32F4xx_HAL_Driver/Src/stm32f4xx_hal_uart.c **** /**
1305:Drivers/STM32F4xx_HAL_Driver/Src/stm32f4xx_hal_uart.c ****   * @brief  Sends an amount of data in non blocking mode.
1306:Drivers/STM32F4xx_HAL_Driver/Src/stm32f4xx_hal_uart.c ****   * @note   When UART parity is not enabled (PCE = 0), and Word Length is configured to 9 bits (M1-
1307:Drivers/STM32F4xx_HAL_Driver/Src/stm32f4xx_hal_uart.c ****   *         the sent data is handled as a set of u16. In this case, Size must indicate the number
1308:Drivers/STM32F4xx_HAL_Driver/Src/stm32f4xx_hal_uart.c ****   *         of u16 provided through pData.
1309:Drivers/STM32F4xx_HAL_Driver/Src/stm32f4xx_hal_uart.c ****   * @param  huart Pointer to a UART_HandleTypeDef structure that contains
1310:Drivers/STM32F4xx_HAL_Driver/Src/stm32f4xx_hal_uart.c ****   *               the configuration information for the specified UART module.
1311:Drivers/STM32F4xx_HAL_Driver/Src/stm32f4xx_hal_uart.c ****   * @param  pData Pointer to data buffer (u8 or u16 data elements).
1312:Drivers/STM32F4xx_HAL_Driver/Src/stm32f4xx_hal_uart.c ****   * @param  Size  Amount of data elements (u8 or u16) to be sent
1313:Drivers/STM32F4xx_HAL_Driver/Src/stm32f4xx_hal_uart.c ****   * @retval HAL status
1314:Drivers/STM32F4xx_HAL_Driver/Src/stm32f4xx_hal_uart.c ****   */
1315:Drivers/STM32F4xx_HAL_Driver/Src/stm32f4xx_hal_uart.c **** HAL_StatusTypeDef HAL_UART_Transmit_IT(UART_HandleTypeDef *huart, const uint8_t *pData, uint16_t Si
1316:Drivers/STM32F4xx_HAL_Driver/Src/stm32f4xx_hal_uart.c **** {
1317:Drivers/STM32F4xx_HAL_Driver/Src/stm32f4xx_hal_uart.c ****   /* Check that a Tx process is not already ongoing */
1318:Drivers/STM32F4xx_HAL_Driver/Src/stm32f4xx_hal_uart.c ****   if (huart->gState == HAL_UART_STATE_READY)
1319:Drivers/STM32F4xx_HAL_Driver/Src/stm32f4xx_hal_uart.c ****   {
1320:Drivers/STM32F4xx_HAL_Driver/Src/stm32f4xx_hal_uart.c ****     if ((pData == NULL) || (Size == 0U))
1321:Drivers/STM32F4xx_HAL_Driver/Src/stm32f4xx_hal_uart.c ****     {
1322:Drivers/STM32F4xx_HAL_Driver/Src/stm32f4xx_hal_uart.c ****       return HAL_ERROR;
1323:Drivers/STM32F4xx_HAL_Driver/Src/stm32f4xx_hal_uart.c ****     }
1324:Drivers/STM32F4xx_HAL_Driver/Src/stm32f4xx_hal_uart.c **** 
1325:Drivers/STM32F4xx_HAL_Driver/Src/stm32f4xx_hal_uart.c ****     /* Process Locked */
ARM GAS  C:\Users\Konrad\AppData\Local\Temp\ccBcBO6H.s 			page 26


1326:Drivers/STM32F4xx_HAL_Driver/Src/stm32f4xx_hal_uart.c ****     __HAL_LOCK(huart);
1327:Drivers/STM32F4xx_HAL_Driver/Src/stm32f4xx_hal_uart.c **** 
1328:Drivers/STM32F4xx_HAL_Driver/Src/stm32f4xx_hal_uart.c ****     huart->pTxBuffPtr = pData;
1329:Drivers/STM32F4xx_HAL_Driver/Src/stm32f4xx_hal_uart.c ****     huart->TxXferSize = Size;
1330:Drivers/STM32F4xx_HAL_Driver/Src/stm32f4xx_hal_uart.c ****     huart->TxXferCount = Size;
1331:Drivers/STM32F4xx_HAL_Driver/Src/stm32f4xx_hal_uart.c **** 
1332:Drivers/STM32F4xx_HAL_Driver/Src/stm32f4xx_hal_uart.c ****     huart->ErrorCode = HAL_UART_ERROR_NONE;
1333:Drivers/STM32F4xx_HAL_Driver/Src/stm32f4xx_hal_uart.c ****     huart->gState = HAL_UART_STATE_BUSY_TX;
1334:Drivers/STM32F4xx_HAL_Driver/Src/stm32f4xx_hal_uart.c **** 
1335:Drivers/STM32F4xx_HAL_Driver/Src/stm32f4xx_hal_uart.c ****     /* Process Unlocked */
1336:Drivers/STM32F4xx_HAL_Driver/Src/stm32f4xx_hal_uart.c ****     __HAL_UNLOCK(huart);
1337:Drivers/STM32F4xx_HAL_Driver/Src/stm32f4xx_hal_uart.c **** 
1338:Drivers/STM32F4xx_HAL_Driver/Src/stm32f4xx_hal_uart.c ****     /* Enable the UART Transmit data register empty Interrupt */
1339:Drivers/STM32F4xx_HAL_Driver/Src/stm32f4xx_hal_uart.c ****     __HAL_UART_ENABLE_IT(huart, UART_IT_TXE);
1340:Drivers/STM32F4xx_HAL_Driver/Src/stm32f4xx_hal_uart.c **** 
1341:Drivers/STM32F4xx_HAL_Driver/Src/stm32f4xx_hal_uart.c ****     return HAL_OK;
1342:Drivers/STM32F4xx_HAL_Driver/Src/stm32f4xx_hal_uart.c ****   }
1343:Drivers/STM32F4xx_HAL_Driver/Src/stm32f4xx_hal_uart.c ****   else
1344:Drivers/STM32F4xx_HAL_Driver/Src/stm32f4xx_hal_uart.c ****   {
1345:Drivers/STM32F4xx_HAL_Driver/Src/stm32f4xx_hal_uart.c ****     return HAL_BUSY;
1346:Drivers/STM32F4xx_HAL_Driver/Src/stm32f4xx_hal_uart.c ****   }
1347:Drivers/STM32F4xx_HAL_Driver/Src/stm32f4xx_hal_uart.c **** }
1348:Drivers/STM32F4xx_HAL_Driver/Src/stm32f4xx_hal_uart.c **** 
1349:Drivers/STM32F4xx_HAL_Driver/Src/stm32f4xx_hal_uart.c **** /**
1350:Drivers/STM32F4xx_HAL_Driver/Src/stm32f4xx_hal_uart.c ****   * @brief  Receives an amount of data in non blocking mode.
1351:Drivers/STM32F4xx_HAL_Driver/Src/stm32f4xx_hal_uart.c ****   * @note   When UART parity is not enabled (PCE = 0), and Word Length is configured to 9 bits (M1-
1352:Drivers/STM32F4xx_HAL_Driver/Src/stm32f4xx_hal_uart.c ****   *         the received data is handled as a set of u16. In this case, Size must indicate the numb
1353:Drivers/STM32F4xx_HAL_Driver/Src/stm32f4xx_hal_uart.c ****   *         of u16 available through pData.
1354:Drivers/STM32F4xx_HAL_Driver/Src/stm32f4xx_hal_uart.c ****   * @param  huart Pointer to a UART_HandleTypeDef structure that contains
1355:Drivers/STM32F4xx_HAL_Driver/Src/stm32f4xx_hal_uart.c ****   *               the configuration information for the specified UART module.
1356:Drivers/STM32F4xx_HAL_Driver/Src/stm32f4xx_hal_uart.c ****   * @param  pData Pointer to data buffer (u8 or u16 data elements).
1357:Drivers/STM32F4xx_HAL_Driver/Src/stm32f4xx_hal_uart.c ****   * @param  Size  Amount of data elements (u8 or u16) to be received.
1358:Drivers/STM32F4xx_HAL_Driver/Src/stm32f4xx_hal_uart.c ****   * @retval HAL status
1359:Drivers/STM32F4xx_HAL_Driver/Src/stm32f4xx_hal_uart.c ****   */
1360:Drivers/STM32F4xx_HAL_Driver/Src/stm32f4xx_hal_uart.c **** HAL_StatusTypeDef HAL_UART_Receive_IT(UART_HandleTypeDef *huart, uint8_t *pData, uint16_t Size)
1361:Drivers/STM32F4xx_HAL_Driver/Src/stm32f4xx_hal_uart.c **** {
1362:Drivers/STM32F4xx_HAL_Driver/Src/stm32f4xx_hal_uart.c ****   /* Check that a Rx process is not already ongoing */
1363:Drivers/STM32F4xx_HAL_Driver/Src/stm32f4xx_hal_uart.c ****   if (huart->RxState == HAL_UART_STATE_READY)
1364:Drivers/STM32F4xx_HAL_Driver/Src/stm32f4xx_hal_uart.c ****   {
1365:Drivers/STM32F4xx_HAL_Driver/Src/stm32f4xx_hal_uart.c ****     if ((pData == NULL) || (Size == 0U))
1366:Drivers/STM32F4xx_HAL_Driver/Src/stm32f4xx_hal_uart.c ****     {
1367:Drivers/STM32F4xx_HAL_Driver/Src/stm32f4xx_hal_uart.c ****       return HAL_ERROR;
1368:Drivers/STM32F4xx_HAL_Driver/Src/stm32f4xx_hal_uart.c ****     }
1369:Drivers/STM32F4xx_HAL_Driver/Src/stm32f4xx_hal_uart.c **** 
1370:Drivers/STM32F4xx_HAL_Driver/Src/stm32f4xx_hal_uart.c ****     /* Process Locked */
1371:Drivers/STM32F4xx_HAL_Driver/Src/stm32f4xx_hal_uart.c ****     __HAL_LOCK(huart);
1372:Drivers/STM32F4xx_HAL_Driver/Src/stm32f4xx_hal_uart.c **** 
1373:Drivers/STM32F4xx_HAL_Driver/Src/stm32f4xx_hal_uart.c ****     /* Set Reception type to Standard reception */
1374:Drivers/STM32F4xx_HAL_Driver/Src/stm32f4xx_hal_uart.c ****     huart->ReceptionType = HAL_UART_RECEPTION_STANDARD;
1375:Drivers/STM32F4xx_HAL_Driver/Src/stm32f4xx_hal_uart.c **** 
1376:Drivers/STM32F4xx_HAL_Driver/Src/stm32f4xx_hal_uart.c ****     return (UART_Start_Receive_IT(huart, pData, Size));
1377:Drivers/STM32F4xx_HAL_Driver/Src/stm32f4xx_hal_uart.c ****   }
1378:Drivers/STM32F4xx_HAL_Driver/Src/stm32f4xx_hal_uart.c ****   else
1379:Drivers/STM32F4xx_HAL_Driver/Src/stm32f4xx_hal_uart.c ****   {
1380:Drivers/STM32F4xx_HAL_Driver/Src/stm32f4xx_hal_uart.c ****     return HAL_BUSY;
1381:Drivers/STM32F4xx_HAL_Driver/Src/stm32f4xx_hal_uart.c ****   }
1382:Drivers/STM32F4xx_HAL_Driver/Src/stm32f4xx_hal_uart.c **** }
ARM GAS  C:\Users\Konrad\AppData\Local\Temp\ccBcBO6H.s 			page 27


1383:Drivers/STM32F4xx_HAL_Driver/Src/stm32f4xx_hal_uart.c **** 
1384:Drivers/STM32F4xx_HAL_Driver/Src/stm32f4xx_hal_uart.c **** /**
1385:Drivers/STM32F4xx_HAL_Driver/Src/stm32f4xx_hal_uart.c ****   * @brief  Sends an amount of data in DMA mode.
1386:Drivers/STM32F4xx_HAL_Driver/Src/stm32f4xx_hal_uart.c ****   * @note   When UART parity is not enabled (PCE = 0), and Word Length is configured to 9 bits (M1-
1387:Drivers/STM32F4xx_HAL_Driver/Src/stm32f4xx_hal_uart.c ****   *         the sent data is handled as a set of u16. In this case, Size must indicate the number
1388:Drivers/STM32F4xx_HAL_Driver/Src/stm32f4xx_hal_uart.c ****   *         of u16 provided through pData.
1389:Drivers/STM32F4xx_HAL_Driver/Src/stm32f4xx_hal_uart.c ****   * @param  huart  Pointer to a UART_HandleTypeDef structure that contains
1390:Drivers/STM32F4xx_HAL_Driver/Src/stm32f4xx_hal_uart.c ****   *                the configuration information for the specified UART module.
1391:Drivers/STM32F4xx_HAL_Driver/Src/stm32f4xx_hal_uart.c ****   * @param  pData Pointer to data buffer (u8 or u16 data elements).
1392:Drivers/STM32F4xx_HAL_Driver/Src/stm32f4xx_hal_uart.c ****   * @param  Size  Amount of data elements (u8 or u16) to be sent
1393:Drivers/STM32F4xx_HAL_Driver/Src/stm32f4xx_hal_uart.c ****   * @retval HAL status
1394:Drivers/STM32F4xx_HAL_Driver/Src/stm32f4xx_hal_uart.c ****   */
1395:Drivers/STM32F4xx_HAL_Driver/Src/stm32f4xx_hal_uart.c **** HAL_StatusTypeDef HAL_UART_Transmit_DMA(UART_HandleTypeDef *huart, const uint8_t *pData, uint16_t S
1396:Drivers/STM32F4xx_HAL_Driver/Src/stm32f4xx_hal_uart.c **** {
1397:Drivers/STM32F4xx_HAL_Driver/Src/stm32f4xx_hal_uart.c ****   const uint32_t *tmp;
1398:Drivers/STM32F4xx_HAL_Driver/Src/stm32f4xx_hal_uart.c **** 
1399:Drivers/STM32F4xx_HAL_Driver/Src/stm32f4xx_hal_uart.c ****   /* Check that a Tx process is not already ongoing */
1400:Drivers/STM32F4xx_HAL_Driver/Src/stm32f4xx_hal_uart.c ****   if (huart->gState == HAL_UART_STATE_READY)
1401:Drivers/STM32F4xx_HAL_Driver/Src/stm32f4xx_hal_uart.c ****   {
1402:Drivers/STM32F4xx_HAL_Driver/Src/stm32f4xx_hal_uart.c ****     if ((pData == NULL) || (Size == 0U))
1403:Drivers/STM32F4xx_HAL_Driver/Src/stm32f4xx_hal_uart.c ****     {
1404:Drivers/STM32F4xx_HAL_Driver/Src/stm32f4xx_hal_uart.c ****       return HAL_ERROR;
1405:Drivers/STM32F4xx_HAL_Driver/Src/stm32f4xx_hal_uart.c ****     }
1406:Drivers/STM32F4xx_HAL_Driver/Src/stm32f4xx_hal_uart.c **** 
1407:Drivers/STM32F4xx_HAL_Driver/Src/stm32f4xx_hal_uart.c ****     /* Process Locked */
1408:Drivers/STM32F4xx_HAL_Driver/Src/stm32f4xx_hal_uart.c ****     __HAL_LOCK(huart);
1409:Drivers/STM32F4xx_HAL_Driver/Src/stm32f4xx_hal_uart.c **** 
1410:Drivers/STM32F4xx_HAL_Driver/Src/stm32f4xx_hal_uart.c ****     huart->pTxBuffPtr = pData;
1411:Drivers/STM32F4xx_HAL_Driver/Src/stm32f4xx_hal_uart.c ****     huart->TxXferSize = Size;
1412:Drivers/STM32F4xx_HAL_Driver/Src/stm32f4xx_hal_uart.c ****     huart->TxXferCount = Size;
1413:Drivers/STM32F4xx_HAL_Driver/Src/stm32f4xx_hal_uart.c **** 
1414:Drivers/STM32F4xx_HAL_Driver/Src/stm32f4xx_hal_uart.c ****     huart->ErrorCode = HAL_UART_ERROR_NONE;
1415:Drivers/STM32F4xx_HAL_Driver/Src/stm32f4xx_hal_uart.c ****     huart->gState = HAL_UART_STATE_BUSY_TX;
1416:Drivers/STM32F4xx_HAL_Driver/Src/stm32f4xx_hal_uart.c **** 
1417:Drivers/STM32F4xx_HAL_Driver/Src/stm32f4xx_hal_uart.c ****     /* Set the UART DMA transfer complete callback */
1418:Drivers/STM32F4xx_HAL_Driver/Src/stm32f4xx_hal_uart.c ****     huart->hdmatx->XferCpltCallback = UART_DMATransmitCplt;
1419:Drivers/STM32F4xx_HAL_Driver/Src/stm32f4xx_hal_uart.c **** 
1420:Drivers/STM32F4xx_HAL_Driver/Src/stm32f4xx_hal_uart.c ****     /* Set the UART DMA Half transfer complete callback */
1421:Drivers/STM32F4xx_HAL_Driver/Src/stm32f4xx_hal_uart.c ****     huart->hdmatx->XferHalfCpltCallback = UART_DMATxHalfCplt;
1422:Drivers/STM32F4xx_HAL_Driver/Src/stm32f4xx_hal_uart.c **** 
1423:Drivers/STM32F4xx_HAL_Driver/Src/stm32f4xx_hal_uart.c ****     /* Set the DMA error callback */
1424:Drivers/STM32F4xx_HAL_Driver/Src/stm32f4xx_hal_uart.c ****     huart->hdmatx->XferErrorCallback = UART_DMAError;
1425:Drivers/STM32F4xx_HAL_Driver/Src/stm32f4xx_hal_uart.c **** 
1426:Drivers/STM32F4xx_HAL_Driver/Src/stm32f4xx_hal_uart.c ****     /* Set the DMA abort callback */
1427:Drivers/STM32F4xx_HAL_Driver/Src/stm32f4xx_hal_uart.c ****     huart->hdmatx->XferAbortCallback = NULL;
1428:Drivers/STM32F4xx_HAL_Driver/Src/stm32f4xx_hal_uart.c **** 
1429:Drivers/STM32F4xx_HAL_Driver/Src/stm32f4xx_hal_uart.c ****     /* Enable the UART transmit DMA stream */
1430:Drivers/STM32F4xx_HAL_Driver/Src/stm32f4xx_hal_uart.c ****     tmp = (const uint32_t *)&pData;
1431:Drivers/STM32F4xx_HAL_Driver/Src/stm32f4xx_hal_uart.c ****     HAL_DMA_Start_IT(huart->hdmatx, *(const uint32_t *)tmp, (uint32_t)&huart->Instance->DR, Size);
1432:Drivers/STM32F4xx_HAL_Driver/Src/stm32f4xx_hal_uart.c **** 
1433:Drivers/STM32F4xx_HAL_Driver/Src/stm32f4xx_hal_uart.c ****     /* Clear the TC flag in the SR register by writing 0 to it */
1434:Drivers/STM32F4xx_HAL_Driver/Src/stm32f4xx_hal_uart.c ****     __HAL_UART_CLEAR_FLAG(huart, UART_FLAG_TC);
1435:Drivers/STM32F4xx_HAL_Driver/Src/stm32f4xx_hal_uart.c **** 
1436:Drivers/STM32F4xx_HAL_Driver/Src/stm32f4xx_hal_uart.c ****     /* Process Unlocked */
1437:Drivers/STM32F4xx_HAL_Driver/Src/stm32f4xx_hal_uart.c ****     __HAL_UNLOCK(huart);
1438:Drivers/STM32F4xx_HAL_Driver/Src/stm32f4xx_hal_uart.c **** 
1439:Drivers/STM32F4xx_HAL_Driver/Src/stm32f4xx_hal_uart.c ****     /* Enable the DMA transfer for transmit request by setting the DMAT bit
ARM GAS  C:\Users\Konrad\AppData\Local\Temp\ccBcBO6H.s 			page 28


1440:Drivers/STM32F4xx_HAL_Driver/Src/stm32f4xx_hal_uart.c ****        in the UART CR3 register */
1441:Drivers/STM32F4xx_HAL_Driver/Src/stm32f4xx_hal_uart.c ****     ATOMIC_SET_BIT(huart->Instance->CR3, USART_CR3_DMAT);
1442:Drivers/STM32F4xx_HAL_Driver/Src/stm32f4xx_hal_uart.c **** 
1443:Drivers/STM32F4xx_HAL_Driver/Src/stm32f4xx_hal_uart.c ****     return HAL_OK;
1444:Drivers/STM32F4xx_HAL_Driver/Src/stm32f4xx_hal_uart.c ****   }
1445:Drivers/STM32F4xx_HAL_Driver/Src/stm32f4xx_hal_uart.c ****   else
1446:Drivers/STM32F4xx_HAL_Driver/Src/stm32f4xx_hal_uart.c ****   {
1447:Drivers/STM32F4xx_HAL_Driver/Src/stm32f4xx_hal_uart.c ****     return HAL_BUSY;
1448:Drivers/STM32F4xx_HAL_Driver/Src/stm32f4xx_hal_uart.c ****   }
1449:Drivers/STM32F4xx_HAL_Driver/Src/stm32f4xx_hal_uart.c **** }
1450:Drivers/STM32F4xx_HAL_Driver/Src/stm32f4xx_hal_uart.c **** 
1451:Drivers/STM32F4xx_HAL_Driver/Src/stm32f4xx_hal_uart.c **** /**
1452:Drivers/STM32F4xx_HAL_Driver/Src/stm32f4xx_hal_uart.c ****   * @brief  Receives an amount of data in DMA mode.
1453:Drivers/STM32F4xx_HAL_Driver/Src/stm32f4xx_hal_uart.c ****   * @note   When UART parity is not enabled (PCE = 0), and Word Length is configured to 9 bits (M1-
1454:Drivers/STM32F4xx_HAL_Driver/Src/stm32f4xx_hal_uart.c ****   *         the received data is handled as a set of u16. In this case, Size must indicate the numb
1455:Drivers/STM32F4xx_HAL_Driver/Src/stm32f4xx_hal_uart.c ****   *         of u16 available through pData.
1456:Drivers/STM32F4xx_HAL_Driver/Src/stm32f4xx_hal_uart.c ****   * @param  huart Pointer to a UART_HandleTypeDef structure that contains
1457:Drivers/STM32F4xx_HAL_Driver/Src/stm32f4xx_hal_uart.c ****   *               the configuration information for the specified UART module.
1458:Drivers/STM32F4xx_HAL_Driver/Src/stm32f4xx_hal_uart.c ****   * @param  pData Pointer to data buffer (u8 or u16 data elements).
1459:Drivers/STM32F4xx_HAL_Driver/Src/stm32f4xx_hal_uart.c ****   * @param  Size  Amount of data elements (u8 or u16) to be received.
1460:Drivers/STM32F4xx_HAL_Driver/Src/stm32f4xx_hal_uart.c ****   * @note   When the UART parity is enabled (PCE = 1) the received data contains the parity bit.
1461:Drivers/STM32F4xx_HAL_Driver/Src/stm32f4xx_hal_uart.c ****   * @retval HAL status
1462:Drivers/STM32F4xx_HAL_Driver/Src/stm32f4xx_hal_uart.c ****   */
1463:Drivers/STM32F4xx_HAL_Driver/Src/stm32f4xx_hal_uart.c **** HAL_StatusTypeDef HAL_UART_Receive_DMA(UART_HandleTypeDef *huart, uint8_t *pData, uint16_t Size)
1464:Drivers/STM32F4xx_HAL_Driver/Src/stm32f4xx_hal_uart.c **** {
1465:Drivers/STM32F4xx_HAL_Driver/Src/stm32f4xx_hal_uart.c ****   /* Check that a Rx process is not already ongoing */
1466:Drivers/STM32F4xx_HAL_Driver/Src/stm32f4xx_hal_uart.c ****   if (huart->RxState == HAL_UART_STATE_READY)
1467:Drivers/STM32F4xx_HAL_Driver/Src/stm32f4xx_hal_uart.c ****   {
1468:Drivers/STM32F4xx_HAL_Driver/Src/stm32f4xx_hal_uart.c ****     if ((pData == NULL) || (Size == 0U))
1469:Drivers/STM32F4xx_HAL_Driver/Src/stm32f4xx_hal_uart.c ****     {
1470:Drivers/STM32F4xx_HAL_Driver/Src/stm32f4xx_hal_uart.c ****       return HAL_ERROR;
1471:Drivers/STM32F4xx_HAL_Driver/Src/stm32f4xx_hal_uart.c ****     }
1472:Drivers/STM32F4xx_HAL_Driver/Src/stm32f4xx_hal_uart.c **** 
1473:Drivers/STM32F4xx_HAL_Driver/Src/stm32f4xx_hal_uart.c ****     /* Process Locked */
1474:Drivers/STM32F4xx_HAL_Driver/Src/stm32f4xx_hal_uart.c ****     __HAL_LOCK(huart);
1475:Drivers/STM32F4xx_HAL_Driver/Src/stm32f4xx_hal_uart.c **** 
1476:Drivers/STM32F4xx_HAL_Driver/Src/stm32f4xx_hal_uart.c ****     /* Set Reception type to Standard reception */
1477:Drivers/STM32F4xx_HAL_Driver/Src/stm32f4xx_hal_uart.c ****     huart->ReceptionType = HAL_UART_RECEPTION_STANDARD;
1478:Drivers/STM32F4xx_HAL_Driver/Src/stm32f4xx_hal_uart.c **** 
1479:Drivers/STM32F4xx_HAL_Driver/Src/stm32f4xx_hal_uart.c ****     return (UART_Start_Receive_DMA(huart, pData, Size));
1480:Drivers/STM32F4xx_HAL_Driver/Src/stm32f4xx_hal_uart.c ****   }
1481:Drivers/STM32F4xx_HAL_Driver/Src/stm32f4xx_hal_uart.c ****   else
1482:Drivers/STM32F4xx_HAL_Driver/Src/stm32f4xx_hal_uart.c ****   {
1483:Drivers/STM32F4xx_HAL_Driver/Src/stm32f4xx_hal_uart.c ****     return HAL_BUSY;
1484:Drivers/STM32F4xx_HAL_Driver/Src/stm32f4xx_hal_uart.c ****   }
1485:Drivers/STM32F4xx_HAL_Driver/Src/stm32f4xx_hal_uart.c **** }
1486:Drivers/STM32F4xx_HAL_Driver/Src/stm32f4xx_hal_uart.c **** 
1487:Drivers/STM32F4xx_HAL_Driver/Src/stm32f4xx_hal_uart.c **** /**
1488:Drivers/STM32F4xx_HAL_Driver/Src/stm32f4xx_hal_uart.c ****   * @brief Pauses the DMA Transfer.
1489:Drivers/STM32F4xx_HAL_Driver/Src/stm32f4xx_hal_uart.c ****   * @param  huart  Pointer to a UART_HandleTypeDef structure that contains
1490:Drivers/STM32F4xx_HAL_Driver/Src/stm32f4xx_hal_uart.c ****   *                the configuration information for the specified UART module.
1491:Drivers/STM32F4xx_HAL_Driver/Src/stm32f4xx_hal_uart.c ****   * @retval HAL status
1492:Drivers/STM32F4xx_HAL_Driver/Src/stm32f4xx_hal_uart.c ****   */
1493:Drivers/STM32F4xx_HAL_Driver/Src/stm32f4xx_hal_uart.c **** HAL_StatusTypeDef HAL_UART_DMAPause(UART_HandleTypeDef *huart)
1494:Drivers/STM32F4xx_HAL_Driver/Src/stm32f4xx_hal_uart.c **** {
1495:Drivers/STM32F4xx_HAL_Driver/Src/stm32f4xx_hal_uart.c ****   uint32_t dmarequest = 0x00U;
1496:Drivers/STM32F4xx_HAL_Driver/Src/stm32f4xx_hal_uart.c **** 
ARM GAS  C:\Users\Konrad\AppData\Local\Temp\ccBcBO6H.s 			page 29


1497:Drivers/STM32F4xx_HAL_Driver/Src/stm32f4xx_hal_uart.c ****   /* Process Locked */
1498:Drivers/STM32F4xx_HAL_Driver/Src/stm32f4xx_hal_uart.c ****   __HAL_LOCK(huart);
1499:Drivers/STM32F4xx_HAL_Driver/Src/stm32f4xx_hal_uart.c **** 
1500:Drivers/STM32F4xx_HAL_Driver/Src/stm32f4xx_hal_uart.c ****   dmarequest = HAL_IS_BIT_SET(huart->Instance->CR3, USART_CR3_DMAT);
1501:Drivers/STM32F4xx_HAL_Driver/Src/stm32f4xx_hal_uart.c ****   if ((huart->gState == HAL_UART_STATE_BUSY_TX) && dmarequest)
1502:Drivers/STM32F4xx_HAL_Driver/Src/stm32f4xx_hal_uart.c ****   {
1503:Drivers/STM32F4xx_HAL_Driver/Src/stm32f4xx_hal_uart.c ****     /* Disable the UART DMA Tx request */
1504:Drivers/STM32F4xx_HAL_Driver/Src/stm32f4xx_hal_uart.c ****     ATOMIC_CLEAR_BIT(huart->Instance->CR3, USART_CR3_DMAT);
1505:Drivers/STM32F4xx_HAL_Driver/Src/stm32f4xx_hal_uart.c ****   }
1506:Drivers/STM32F4xx_HAL_Driver/Src/stm32f4xx_hal_uart.c **** 
1507:Drivers/STM32F4xx_HAL_Driver/Src/stm32f4xx_hal_uart.c ****   dmarequest = HAL_IS_BIT_SET(huart->Instance->CR3, USART_CR3_DMAR);
1508:Drivers/STM32F4xx_HAL_Driver/Src/stm32f4xx_hal_uart.c ****   if ((huart->RxState == HAL_UART_STATE_BUSY_RX) && dmarequest)
1509:Drivers/STM32F4xx_HAL_Driver/Src/stm32f4xx_hal_uart.c ****   {
1510:Drivers/STM32F4xx_HAL_Driver/Src/stm32f4xx_hal_uart.c ****     /* Disable RXNE, PE and ERR (Frame error, noise error, overrun error) interrupts */
1511:Drivers/STM32F4xx_HAL_Driver/Src/stm32f4xx_hal_uart.c ****     ATOMIC_CLEAR_BIT(huart->Instance->CR1, USART_CR1_PEIE);
1512:Drivers/STM32F4xx_HAL_Driver/Src/stm32f4xx_hal_uart.c ****     ATOMIC_CLEAR_BIT(huart->Instance->CR3, USART_CR3_EIE);
1513:Drivers/STM32F4xx_HAL_Driver/Src/stm32f4xx_hal_uart.c **** 
1514:Drivers/STM32F4xx_HAL_Driver/Src/stm32f4xx_hal_uart.c ****     /* Disable the UART DMA Rx request */
1515:Drivers/STM32F4xx_HAL_Driver/Src/stm32f4xx_hal_uart.c ****     ATOMIC_CLEAR_BIT(huart->Instance->CR3, USART_CR3_DMAR);
1516:Drivers/STM32F4xx_HAL_Driver/Src/stm32f4xx_hal_uart.c ****   }
1517:Drivers/STM32F4xx_HAL_Driver/Src/stm32f4xx_hal_uart.c **** 
1518:Drivers/STM32F4xx_HAL_Driver/Src/stm32f4xx_hal_uart.c ****   /* Process Unlocked */
1519:Drivers/STM32F4xx_HAL_Driver/Src/stm32f4xx_hal_uart.c ****   __HAL_UNLOCK(huart);
1520:Drivers/STM32F4xx_HAL_Driver/Src/stm32f4xx_hal_uart.c **** 
1521:Drivers/STM32F4xx_HAL_Driver/Src/stm32f4xx_hal_uart.c ****   return HAL_OK;
1522:Drivers/STM32F4xx_HAL_Driver/Src/stm32f4xx_hal_uart.c **** }
1523:Drivers/STM32F4xx_HAL_Driver/Src/stm32f4xx_hal_uart.c **** 
1524:Drivers/STM32F4xx_HAL_Driver/Src/stm32f4xx_hal_uart.c **** /**
1525:Drivers/STM32F4xx_HAL_Driver/Src/stm32f4xx_hal_uart.c ****   * @brief Resumes the DMA Transfer.
1526:Drivers/STM32F4xx_HAL_Driver/Src/stm32f4xx_hal_uart.c ****   * @param  huart  Pointer to a UART_HandleTypeDef structure that contains
1527:Drivers/STM32F4xx_HAL_Driver/Src/stm32f4xx_hal_uart.c ****   *                the configuration information for the specified UART module.
1528:Drivers/STM32F4xx_HAL_Driver/Src/stm32f4xx_hal_uart.c ****   * @retval HAL status
1529:Drivers/STM32F4xx_HAL_Driver/Src/stm32f4xx_hal_uart.c ****   */
1530:Drivers/STM32F4xx_HAL_Driver/Src/stm32f4xx_hal_uart.c **** HAL_StatusTypeDef HAL_UART_DMAResume(UART_HandleTypeDef *huart)
1531:Drivers/STM32F4xx_HAL_Driver/Src/stm32f4xx_hal_uart.c **** {
1532:Drivers/STM32F4xx_HAL_Driver/Src/stm32f4xx_hal_uart.c ****   /* Process Locked */
1533:Drivers/STM32F4xx_HAL_Driver/Src/stm32f4xx_hal_uart.c ****   __HAL_LOCK(huart);
1534:Drivers/STM32F4xx_HAL_Driver/Src/stm32f4xx_hal_uart.c **** 
1535:Drivers/STM32F4xx_HAL_Driver/Src/stm32f4xx_hal_uart.c ****   if (huart->gState == HAL_UART_STATE_BUSY_TX)
1536:Drivers/STM32F4xx_HAL_Driver/Src/stm32f4xx_hal_uart.c ****   {
1537:Drivers/STM32F4xx_HAL_Driver/Src/stm32f4xx_hal_uart.c ****     /* Enable the UART DMA Tx request */
1538:Drivers/STM32F4xx_HAL_Driver/Src/stm32f4xx_hal_uart.c ****     ATOMIC_SET_BIT(huart->Instance->CR3, USART_CR3_DMAT);
1539:Drivers/STM32F4xx_HAL_Driver/Src/stm32f4xx_hal_uart.c ****   }
1540:Drivers/STM32F4xx_HAL_Driver/Src/stm32f4xx_hal_uart.c **** 
1541:Drivers/STM32F4xx_HAL_Driver/Src/stm32f4xx_hal_uart.c ****   if (huart->RxState == HAL_UART_STATE_BUSY_RX)
1542:Drivers/STM32F4xx_HAL_Driver/Src/stm32f4xx_hal_uart.c ****   {
1543:Drivers/STM32F4xx_HAL_Driver/Src/stm32f4xx_hal_uart.c ****     /* Clear the Overrun flag before resuming the Rx transfer*/
1544:Drivers/STM32F4xx_HAL_Driver/Src/stm32f4xx_hal_uart.c ****     __HAL_UART_CLEAR_OREFLAG(huart);
1545:Drivers/STM32F4xx_HAL_Driver/Src/stm32f4xx_hal_uart.c **** 
1546:Drivers/STM32F4xx_HAL_Driver/Src/stm32f4xx_hal_uart.c ****     /* Re-enable PE and ERR (Frame error, noise error, overrun error) interrupts */
1547:Drivers/STM32F4xx_HAL_Driver/Src/stm32f4xx_hal_uart.c ****     if (huart->Init.Parity != UART_PARITY_NONE)
1548:Drivers/STM32F4xx_HAL_Driver/Src/stm32f4xx_hal_uart.c ****     {
1549:Drivers/STM32F4xx_HAL_Driver/Src/stm32f4xx_hal_uart.c ****       ATOMIC_SET_BIT(huart->Instance->CR1, USART_CR1_PEIE);
1550:Drivers/STM32F4xx_HAL_Driver/Src/stm32f4xx_hal_uart.c ****     }
1551:Drivers/STM32F4xx_HAL_Driver/Src/stm32f4xx_hal_uart.c ****     ATOMIC_SET_BIT(huart->Instance->CR3, USART_CR3_EIE);
1552:Drivers/STM32F4xx_HAL_Driver/Src/stm32f4xx_hal_uart.c **** 
1553:Drivers/STM32F4xx_HAL_Driver/Src/stm32f4xx_hal_uart.c ****     /* Enable the UART DMA Rx request */
ARM GAS  C:\Users\Konrad\AppData\Local\Temp\ccBcBO6H.s 			page 30


1554:Drivers/STM32F4xx_HAL_Driver/Src/stm32f4xx_hal_uart.c ****     ATOMIC_SET_BIT(huart->Instance->CR3, USART_CR3_DMAR);
1555:Drivers/STM32F4xx_HAL_Driver/Src/stm32f4xx_hal_uart.c ****   }
1556:Drivers/STM32F4xx_HAL_Driver/Src/stm32f4xx_hal_uart.c **** 
1557:Drivers/STM32F4xx_HAL_Driver/Src/stm32f4xx_hal_uart.c ****   /* Process Unlocked */
1558:Drivers/STM32F4xx_HAL_Driver/Src/stm32f4xx_hal_uart.c ****   __HAL_UNLOCK(huart);
1559:Drivers/STM32F4xx_HAL_Driver/Src/stm32f4xx_hal_uart.c **** 
1560:Drivers/STM32F4xx_HAL_Driver/Src/stm32f4xx_hal_uart.c ****   return HAL_OK;
1561:Drivers/STM32F4xx_HAL_Driver/Src/stm32f4xx_hal_uart.c **** }
1562:Drivers/STM32F4xx_HAL_Driver/Src/stm32f4xx_hal_uart.c **** 
1563:Drivers/STM32F4xx_HAL_Driver/Src/stm32f4xx_hal_uart.c **** /**
1564:Drivers/STM32F4xx_HAL_Driver/Src/stm32f4xx_hal_uart.c ****   * @brief Stops the DMA Transfer.
1565:Drivers/STM32F4xx_HAL_Driver/Src/stm32f4xx_hal_uart.c ****   * @param  huart  Pointer to a UART_HandleTypeDef structure that contains
1566:Drivers/STM32F4xx_HAL_Driver/Src/stm32f4xx_hal_uart.c ****   *                the configuration information for the specified UART module.
1567:Drivers/STM32F4xx_HAL_Driver/Src/stm32f4xx_hal_uart.c ****   * @retval HAL status
1568:Drivers/STM32F4xx_HAL_Driver/Src/stm32f4xx_hal_uart.c ****   */
1569:Drivers/STM32F4xx_HAL_Driver/Src/stm32f4xx_hal_uart.c **** HAL_StatusTypeDef HAL_UART_DMAStop(UART_HandleTypeDef *huart)
1570:Drivers/STM32F4xx_HAL_Driver/Src/stm32f4xx_hal_uart.c **** {
1571:Drivers/STM32F4xx_HAL_Driver/Src/stm32f4xx_hal_uart.c ****   uint32_t dmarequest = 0x00U;
1572:Drivers/STM32F4xx_HAL_Driver/Src/stm32f4xx_hal_uart.c ****   /* The Lock is not implemented on this API to allow the user application
1573:Drivers/STM32F4xx_HAL_Driver/Src/stm32f4xx_hal_uart.c ****      to call the HAL UART API under callbacks HAL_UART_TxCpltCallback() / HAL_UART_RxCpltCallback()
1574:Drivers/STM32F4xx_HAL_Driver/Src/stm32f4xx_hal_uart.c ****      when calling HAL_DMA_Abort() API the DMA TX/RX Transfer complete interrupt is generated
1575:Drivers/STM32F4xx_HAL_Driver/Src/stm32f4xx_hal_uart.c ****      and the correspond call back is executed HAL_UART_TxCpltCallback() / HAL_UART_RxCpltCallback()
1576:Drivers/STM32F4xx_HAL_Driver/Src/stm32f4xx_hal_uart.c ****      */
1577:Drivers/STM32F4xx_HAL_Driver/Src/stm32f4xx_hal_uart.c **** 
1578:Drivers/STM32F4xx_HAL_Driver/Src/stm32f4xx_hal_uart.c ****   /* Stop UART DMA Tx request if ongoing */
1579:Drivers/STM32F4xx_HAL_Driver/Src/stm32f4xx_hal_uart.c ****   dmarequest = HAL_IS_BIT_SET(huart->Instance->CR3, USART_CR3_DMAT);
1580:Drivers/STM32F4xx_HAL_Driver/Src/stm32f4xx_hal_uart.c ****   if ((huart->gState == HAL_UART_STATE_BUSY_TX) && dmarequest)
1581:Drivers/STM32F4xx_HAL_Driver/Src/stm32f4xx_hal_uart.c ****   {
1582:Drivers/STM32F4xx_HAL_Driver/Src/stm32f4xx_hal_uart.c ****     ATOMIC_CLEAR_BIT(huart->Instance->CR3, USART_CR3_DMAT);
1583:Drivers/STM32F4xx_HAL_Driver/Src/stm32f4xx_hal_uart.c **** 
1584:Drivers/STM32F4xx_HAL_Driver/Src/stm32f4xx_hal_uart.c ****     /* Abort the UART DMA Tx stream */
1585:Drivers/STM32F4xx_HAL_Driver/Src/stm32f4xx_hal_uart.c ****     if (huart->hdmatx != NULL)
1586:Drivers/STM32F4xx_HAL_Driver/Src/stm32f4xx_hal_uart.c ****     {
1587:Drivers/STM32F4xx_HAL_Driver/Src/stm32f4xx_hal_uart.c ****       HAL_DMA_Abort(huart->hdmatx);
1588:Drivers/STM32F4xx_HAL_Driver/Src/stm32f4xx_hal_uart.c ****     }
1589:Drivers/STM32F4xx_HAL_Driver/Src/stm32f4xx_hal_uart.c ****     UART_EndTxTransfer(huart);
1590:Drivers/STM32F4xx_HAL_Driver/Src/stm32f4xx_hal_uart.c ****   }
1591:Drivers/STM32F4xx_HAL_Driver/Src/stm32f4xx_hal_uart.c **** 
1592:Drivers/STM32F4xx_HAL_Driver/Src/stm32f4xx_hal_uart.c ****   /* Stop UART DMA Rx request if ongoing */
1593:Drivers/STM32F4xx_HAL_Driver/Src/stm32f4xx_hal_uart.c ****   dmarequest = HAL_IS_BIT_SET(huart->Instance->CR3, USART_CR3_DMAR);
1594:Drivers/STM32F4xx_HAL_Driver/Src/stm32f4xx_hal_uart.c ****   if ((huart->RxState == HAL_UART_STATE_BUSY_RX) && dmarequest)
1595:Drivers/STM32F4xx_HAL_Driver/Src/stm32f4xx_hal_uart.c ****   {
1596:Drivers/STM32F4xx_HAL_Driver/Src/stm32f4xx_hal_uart.c ****     ATOMIC_CLEAR_BIT(huart->Instance->CR3, USART_CR3_DMAR);
1597:Drivers/STM32F4xx_HAL_Driver/Src/stm32f4xx_hal_uart.c **** 
1598:Drivers/STM32F4xx_HAL_Driver/Src/stm32f4xx_hal_uart.c ****     /* Abort the UART DMA Rx stream */
1599:Drivers/STM32F4xx_HAL_Driver/Src/stm32f4xx_hal_uart.c ****     if (huart->hdmarx != NULL)
1600:Drivers/STM32F4xx_HAL_Driver/Src/stm32f4xx_hal_uart.c ****     {
1601:Drivers/STM32F4xx_HAL_Driver/Src/stm32f4xx_hal_uart.c ****       HAL_DMA_Abort(huart->hdmarx);
1602:Drivers/STM32F4xx_HAL_Driver/Src/stm32f4xx_hal_uart.c ****     }
1603:Drivers/STM32F4xx_HAL_Driver/Src/stm32f4xx_hal_uart.c ****     UART_EndRxTransfer(huart);
1604:Drivers/STM32F4xx_HAL_Driver/Src/stm32f4xx_hal_uart.c ****   }
1605:Drivers/STM32F4xx_HAL_Driver/Src/stm32f4xx_hal_uart.c **** 
1606:Drivers/STM32F4xx_HAL_Driver/Src/stm32f4xx_hal_uart.c ****   return HAL_OK;
1607:Drivers/STM32F4xx_HAL_Driver/Src/stm32f4xx_hal_uart.c **** }
1608:Drivers/STM32F4xx_HAL_Driver/Src/stm32f4xx_hal_uart.c **** 
1609:Drivers/STM32F4xx_HAL_Driver/Src/stm32f4xx_hal_uart.c **** /**
1610:Drivers/STM32F4xx_HAL_Driver/Src/stm32f4xx_hal_uart.c ****   * @brief Receive an amount of data in blocking mode till either the expected number of data is re
ARM GAS  C:\Users\Konrad\AppData\Local\Temp\ccBcBO6H.s 			page 31


1611:Drivers/STM32F4xx_HAL_Driver/Src/stm32f4xx_hal_uart.c ****   * @note   HAL_OK is returned if reception is completed (expected number of data has been received
1612:Drivers/STM32F4xx_HAL_Driver/Src/stm32f4xx_hal_uart.c ****   *         or if reception is stopped after IDLE event (less than the expected number of data has 
1613:Drivers/STM32F4xx_HAL_Driver/Src/stm32f4xx_hal_uart.c ****   *         In this case, RxLen output parameter indicates number of data available in reception bu
1614:Drivers/STM32F4xx_HAL_Driver/Src/stm32f4xx_hal_uart.c ****   * @note   When UART parity is not enabled (PCE = 0), and Word Length is configured to 9 bits (M =
1615:Drivers/STM32F4xx_HAL_Driver/Src/stm32f4xx_hal_uart.c ****   *         the received data is handled as a set of uint16_t. In this case, Size must indicate the
1616:Drivers/STM32F4xx_HAL_Driver/Src/stm32f4xx_hal_uart.c ****   *         of uint16_t available through pData.
1617:Drivers/STM32F4xx_HAL_Driver/Src/stm32f4xx_hal_uart.c ****   * @param huart   UART handle.
1618:Drivers/STM32F4xx_HAL_Driver/Src/stm32f4xx_hal_uart.c ****   * @param pData   Pointer to data buffer (uint8_t or uint16_t data elements).
1619:Drivers/STM32F4xx_HAL_Driver/Src/stm32f4xx_hal_uart.c ****   * @param Size    Amount of data elements (uint8_t or uint16_t) to be received.
1620:Drivers/STM32F4xx_HAL_Driver/Src/stm32f4xx_hal_uart.c ****   * @param RxLen   Number of data elements finally received (could be lower than Size, in case rece
1621:Drivers/STM32F4xx_HAL_Driver/Src/stm32f4xx_hal_uart.c ****   * @param Timeout Timeout duration expressed in ms (covers the whole reception sequence).
1622:Drivers/STM32F4xx_HAL_Driver/Src/stm32f4xx_hal_uart.c ****   * @retval HAL status
1623:Drivers/STM32F4xx_HAL_Driver/Src/stm32f4xx_hal_uart.c ****   */
1624:Drivers/STM32F4xx_HAL_Driver/Src/stm32f4xx_hal_uart.c **** HAL_StatusTypeDef HAL_UARTEx_ReceiveToIdle(UART_HandleTypeDef *huart, uint8_t *pData, uint16_t Size
1625:Drivers/STM32F4xx_HAL_Driver/Src/stm32f4xx_hal_uart.c ****                                            uint32_t Timeout)
1626:Drivers/STM32F4xx_HAL_Driver/Src/stm32f4xx_hal_uart.c **** {
1627:Drivers/STM32F4xx_HAL_Driver/Src/stm32f4xx_hal_uart.c ****   uint8_t  *pdata8bits;
1628:Drivers/STM32F4xx_HAL_Driver/Src/stm32f4xx_hal_uart.c ****   uint16_t *pdata16bits;
1629:Drivers/STM32F4xx_HAL_Driver/Src/stm32f4xx_hal_uart.c ****   uint32_t tickstart;
1630:Drivers/STM32F4xx_HAL_Driver/Src/stm32f4xx_hal_uart.c **** 
1631:Drivers/STM32F4xx_HAL_Driver/Src/stm32f4xx_hal_uart.c ****   /* Check that a Rx process is not already ongoing */
1632:Drivers/STM32F4xx_HAL_Driver/Src/stm32f4xx_hal_uart.c ****   if (huart->RxState == HAL_UART_STATE_READY)
1633:Drivers/STM32F4xx_HAL_Driver/Src/stm32f4xx_hal_uart.c ****   {
1634:Drivers/STM32F4xx_HAL_Driver/Src/stm32f4xx_hal_uart.c ****     if ((pData == NULL) || (Size == 0U))
1635:Drivers/STM32F4xx_HAL_Driver/Src/stm32f4xx_hal_uart.c ****     {
1636:Drivers/STM32F4xx_HAL_Driver/Src/stm32f4xx_hal_uart.c ****       return  HAL_ERROR;
1637:Drivers/STM32F4xx_HAL_Driver/Src/stm32f4xx_hal_uart.c ****     }
1638:Drivers/STM32F4xx_HAL_Driver/Src/stm32f4xx_hal_uart.c **** 
1639:Drivers/STM32F4xx_HAL_Driver/Src/stm32f4xx_hal_uart.c ****     __HAL_LOCK(huart);
1640:Drivers/STM32F4xx_HAL_Driver/Src/stm32f4xx_hal_uart.c **** 
1641:Drivers/STM32F4xx_HAL_Driver/Src/stm32f4xx_hal_uart.c ****     huart->ErrorCode = HAL_UART_ERROR_NONE;
1642:Drivers/STM32F4xx_HAL_Driver/Src/stm32f4xx_hal_uart.c ****     huart->RxState = HAL_UART_STATE_BUSY_RX;
1643:Drivers/STM32F4xx_HAL_Driver/Src/stm32f4xx_hal_uart.c ****     huart->ReceptionType = HAL_UART_RECEPTION_TOIDLE;
1644:Drivers/STM32F4xx_HAL_Driver/Src/stm32f4xx_hal_uart.c **** 
1645:Drivers/STM32F4xx_HAL_Driver/Src/stm32f4xx_hal_uart.c ****     /* Init tickstart for timeout management */
1646:Drivers/STM32F4xx_HAL_Driver/Src/stm32f4xx_hal_uart.c ****     tickstart = HAL_GetTick();
1647:Drivers/STM32F4xx_HAL_Driver/Src/stm32f4xx_hal_uart.c **** 
1648:Drivers/STM32F4xx_HAL_Driver/Src/stm32f4xx_hal_uart.c ****     huart->RxXferSize  = Size;
1649:Drivers/STM32F4xx_HAL_Driver/Src/stm32f4xx_hal_uart.c ****     huart->RxXferCount = Size;
1650:Drivers/STM32F4xx_HAL_Driver/Src/stm32f4xx_hal_uart.c **** 
1651:Drivers/STM32F4xx_HAL_Driver/Src/stm32f4xx_hal_uart.c ****     /* In case of 9bits/No Parity transfer, pRxData needs to be handled as a uint16_t pointer */
1652:Drivers/STM32F4xx_HAL_Driver/Src/stm32f4xx_hal_uart.c ****     if ((huart->Init.WordLength == UART_WORDLENGTH_9B) && (huart->Init.Parity == UART_PARITY_NONE))
1653:Drivers/STM32F4xx_HAL_Driver/Src/stm32f4xx_hal_uart.c ****     {
1654:Drivers/STM32F4xx_HAL_Driver/Src/stm32f4xx_hal_uart.c ****       pdata8bits  = NULL;
1655:Drivers/STM32F4xx_HAL_Driver/Src/stm32f4xx_hal_uart.c ****       pdata16bits = (uint16_t *) pData;
1656:Drivers/STM32F4xx_HAL_Driver/Src/stm32f4xx_hal_uart.c ****     }
1657:Drivers/STM32F4xx_HAL_Driver/Src/stm32f4xx_hal_uart.c ****     else
1658:Drivers/STM32F4xx_HAL_Driver/Src/stm32f4xx_hal_uart.c ****     {
1659:Drivers/STM32F4xx_HAL_Driver/Src/stm32f4xx_hal_uart.c ****       pdata8bits  = pData;
1660:Drivers/STM32F4xx_HAL_Driver/Src/stm32f4xx_hal_uart.c ****       pdata16bits = NULL;
1661:Drivers/STM32F4xx_HAL_Driver/Src/stm32f4xx_hal_uart.c ****     }
1662:Drivers/STM32F4xx_HAL_Driver/Src/stm32f4xx_hal_uart.c **** 
1663:Drivers/STM32F4xx_HAL_Driver/Src/stm32f4xx_hal_uart.c ****     __HAL_UNLOCK(huart);
1664:Drivers/STM32F4xx_HAL_Driver/Src/stm32f4xx_hal_uart.c **** 
1665:Drivers/STM32F4xx_HAL_Driver/Src/stm32f4xx_hal_uart.c ****     /* Initialize output number of received elements */
1666:Drivers/STM32F4xx_HAL_Driver/Src/stm32f4xx_hal_uart.c ****     *RxLen = 0U;
1667:Drivers/STM32F4xx_HAL_Driver/Src/stm32f4xx_hal_uart.c **** 
ARM GAS  C:\Users\Konrad\AppData\Local\Temp\ccBcBO6H.s 			page 32


1668:Drivers/STM32F4xx_HAL_Driver/Src/stm32f4xx_hal_uart.c ****     /* as long as data have to be received */
1669:Drivers/STM32F4xx_HAL_Driver/Src/stm32f4xx_hal_uart.c ****     while (huart->RxXferCount > 0U)
1670:Drivers/STM32F4xx_HAL_Driver/Src/stm32f4xx_hal_uart.c ****     {
1671:Drivers/STM32F4xx_HAL_Driver/Src/stm32f4xx_hal_uart.c ****       /* Check if IDLE flag is set */
1672:Drivers/STM32F4xx_HAL_Driver/Src/stm32f4xx_hal_uart.c ****       if (__HAL_UART_GET_FLAG(huart, UART_FLAG_IDLE))
1673:Drivers/STM32F4xx_HAL_Driver/Src/stm32f4xx_hal_uart.c ****       {
1674:Drivers/STM32F4xx_HAL_Driver/Src/stm32f4xx_hal_uart.c ****         /* Clear IDLE flag in ISR */
1675:Drivers/STM32F4xx_HAL_Driver/Src/stm32f4xx_hal_uart.c ****         __HAL_UART_CLEAR_IDLEFLAG(huart);
1676:Drivers/STM32F4xx_HAL_Driver/Src/stm32f4xx_hal_uart.c **** 
1677:Drivers/STM32F4xx_HAL_Driver/Src/stm32f4xx_hal_uart.c ****         /* If Set, but no data ever received, clear flag without exiting loop */
1678:Drivers/STM32F4xx_HAL_Driver/Src/stm32f4xx_hal_uart.c ****         /* If Set, and data has already been received, this means Idle Event is valid : End recepti
1679:Drivers/STM32F4xx_HAL_Driver/Src/stm32f4xx_hal_uart.c ****         if (*RxLen > 0U)
1680:Drivers/STM32F4xx_HAL_Driver/Src/stm32f4xx_hal_uart.c ****         {
1681:Drivers/STM32F4xx_HAL_Driver/Src/stm32f4xx_hal_uart.c ****           huart->RxState = HAL_UART_STATE_READY;
1682:Drivers/STM32F4xx_HAL_Driver/Src/stm32f4xx_hal_uart.c **** 
1683:Drivers/STM32F4xx_HAL_Driver/Src/stm32f4xx_hal_uart.c ****           return HAL_OK;
1684:Drivers/STM32F4xx_HAL_Driver/Src/stm32f4xx_hal_uart.c ****         }
1685:Drivers/STM32F4xx_HAL_Driver/Src/stm32f4xx_hal_uart.c ****       }
1686:Drivers/STM32F4xx_HAL_Driver/Src/stm32f4xx_hal_uart.c **** 
1687:Drivers/STM32F4xx_HAL_Driver/Src/stm32f4xx_hal_uart.c ****       /* Check if RXNE flag is set */
1688:Drivers/STM32F4xx_HAL_Driver/Src/stm32f4xx_hal_uart.c ****       if (__HAL_UART_GET_FLAG(huart, UART_FLAG_RXNE))
1689:Drivers/STM32F4xx_HAL_Driver/Src/stm32f4xx_hal_uart.c ****       {
1690:Drivers/STM32F4xx_HAL_Driver/Src/stm32f4xx_hal_uart.c ****         if (pdata8bits == NULL)
1691:Drivers/STM32F4xx_HAL_Driver/Src/stm32f4xx_hal_uart.c ****         {
1692:Drivers/STM32F4xx_HAL_Driver/Src/stm32f4xx_hal_uart.c ****           *pdata16bits = (uint16_t)(huart->Instance->DR & (uint16_t)0x01FF);
1693:Drivers/STM32F4xx_HAL_Driver/Src/stm32f4xx_hal_uart.c ****           pdata16bits++;
1694:Drivers/STM32F4xx_HAL_Driver/Src/stm32f4xx_hal_uart.c ****         }
1695:Drivers/STM32F4xx_HAL_Driver/Src/stm32f4xx_hal_uart.c ****         else
1696:Drivers/STM32F4xx_HAL_Driver/Src/stm32f4xx_hal_uart.c ****         {
1697:Drivers/STM32F4xx_HAL_Driver/Src/stm32f4xx_hal_uart.c ****           if ((huart->Init.WordLength == UART_WORDLENGTH_9B) || ((huart->Init.WordLength == UART_WO
1698:Drivers/STM32F4xx_HAL_Driver/Src/stm32f4xx_hal_uart.c ****           {
1699:Drivers/STM32F4xx_HAL_Driver/Src/stm32f4xx_hal_uart.c ****             *pdata8bits = (uint8_t)(huart->Instance->DR & (uint8_t)0x00FF);
1700:Drivers/STM32F4xx_HAL_Driver/Src/stm32f4xx_hal_uart.c ****           }
1701:Drivers/STM32F4xx_HAL_Driver/Src/stm32f4xx_hal_uart.c ****           else
1702:Drivers/STM32F4xx_HAL_Driver/Src/stm32f4xx_hal_uart.c ****           {
1703:Drivers/STM32F4xx_HAL_Driver/Src/stm32f4xx_hal_uart.c ****             *pdata8bits = (uint8_t)(huart->Instance->DR & (uint8_t)0x007F);
1704:Drivers/STM32F4xx_HAL_Driver/Src/stm32f4xx_hal_uart.c ****           }
1705:Drivers/STM32F4xx_HAL_Driver/Src/stm32f4xx_hal_uart.c **** 
1706:Drivers/STM32F4xx_HAL_Driver/Src/stm32f4xx_hal_uart.c ****           pdata8bits++;
1707:Drivers/STM32F4xx_HAL_Driver/Src/stm32f4xx_hal_uart.c ****         }
1708:Drivers/STM32F4xx_HAL_Driver/Src/stm32f4xx_hal_uart.c ****         /* Increment number of received elements */
1709:Drivers/STM32F4xx_HAL_Driver/Src/stm32f4xx_hal_uart.c ****         *RxLen += 1U;
1710:Drivers/STM32F4xx_HAL_Driver/Src/stm32f4xx_hal_uart.c ****         huart->RxXferCount--;
1711:Drivers/STM32F4xx_HAL_Driver/Src/stm32f4xx_hal_uart.c ****       }
1712:Drivers/STM32F4xx_HAL_Driver/Src/stm32f4xx_hal_uart.c **** 
1713:Drivers/STM32F4xx_HAL_Driver/Src/stm32f4xx_hal_uart.c ****       /* Check for the Timeout */
1714:Drivers/STM32F4xx_HAL_Driver/Src/stm32f4xx_hal_uart.c ****       if (Timeout != HAL_MAX_DELAY)
1715:Drivers/STM32F4xx_HAL_Driver/Src/stm32f4xx_hal_uart.c ****       {
1716:Drivers/STM32F4xx_HAL_Driver/Src/stm32f4xx_hal_uart.c ****         if (((HAL_GetTick() - tickstart) > Timeout) || (Timeout == 0U))
1717:Drivers/STM32F4xx_HAL_Driver/Src/stm32f4xx_hal_uart.c ****         {
1718:Drivers/STM32F4xx_HAL_Driver/Src/stm32f4xx_hal_uart.c ****           huart->RxState = HAL_UART_STATE_READY;
1719:Drivers/STM32F4xx_HAL_Driver/Src/stm32f4xx_hal_uart.c **** 
1720:Drivers/STM32F4xx_HAL_Driver/Src/stm32f4xx_hal_uart.c ****           return HAL_TIMEOUT;
1721:Drivers/STM32F4xx_HAL_Driver/Src/stm32f4xx_hal_uart.c ****         }
1722:Drivers/STM32F4xx_HAL_Driver/Src/stm32f4xx_hal_uart.c ****       }
1723:Drivers/STM32F4xx_HAL_Driver/Src/stm32f4xx_hal_uart.c ****     }
1724:Drivers/STM32F4xx_HAL_Driver/Src/stm32f4xx_hal_uart.c **** 
ARM GAS  C:\Users\Konrad\AppData\Local\Temp\ccBcBO6H.s 			page 33


1725:Drivers/STM32F4xx_HAL_Driver/Src/stm32f4xx_hal_uart.c ****     /* Set number of received elements in output parameter : RxLen */
1726:Drivers/STM32F4xx_HAL_Driver/Src/stm32f4xx_hal_uart.c ****     *RxLen = huart->RxXferSize - huart->RxXferCount;
1727:Drivers/STM32F4xx_HAL_Driver/Src/stm32f4xx_hal_uart.c ****     /* At end of Rx process, restore huart->RxState to Ready */
1728:Drivers/STM32F4xx_HAL_Driver/Src/stm32f4xx_hal_uart.c ****     huart->RxState = HAL_UART_STATE_READY;
1729:Drivers/STM32F4xx_HAL_Driver/Src/stm32f4xx_hal_uart.c **** 
1730:Drivers/STM32F4xx_HAL_Driver/Src/stm32f4xx_hal_uart.c ****     return HAL_OK;
1731:Drivers/STM32F4xx_HAL_Driver/Src/stm32f4xx_hal_uart.c ****   }
1732:Drivers/STM32F4xx_HAL_Driver/Src/stm32f4xx_hal_uart.c ****   else
1733:Drivers/STM32F4xx_HAL_Driver/Src/stm32f4xx_hal_uart.c ****   {
1734:Drivers/STM32F4xx_HAL_Driver/Src/stm32f4xx_hal_uart.c ****     return HAL_BUSY;
1735:Drivers/STM32F4xx_HAL_Driver/Src/stm32f4xx_hal_uart.c ****   }
1736:Drivers/STM32F4xx_HAL_Driver/Src/stm32f4xx_hal_uart.c **** }
1737:Drivers/STM32F4xx_HAL_Driver/Src/stm32f4xx_hal_uart.c **** 
1738:Drivers/STM32F4xx_HAL_Driver/Src/stm32f4xx_hal_uart.c **** /**
1739:Drivers/STM32F4xx_HAL_Driver/Src/stm32f4xx_hal_uart.c ****   * @brief Receive an amount of data in interrupt mode till either the expected number of data is r
1740:Drivers/STM32F4xx_HAL_Driver/Src/stm32f4xx_hal_uart.c ****   * @note   Reception is initiated by this function call. Further progress of reception is achieved
1741:Drivers/STM32F4xx_HAL_Driver/Src/stm32f4xx_hal_uart.c ****   *         to UART interrupts raised by RXNE and IDLE events. Callback is called at end of recepti
1742:Drivers/STM32F4xx_HAL_Driver/Src/stm32f4xx_hal_uart.c ****   *         number of received data elements.
1743:Drivers/STM32F4xx_HAL_Driver/Src/stm32f4xx_hal_uart.c ****   * @note   When UART parity is not enabled (PCE = 0), and Word Length is configured to 9 bits (M =
1744:Drivers/STM32F4xx_HAL_Driver/Src/stm32f4xx_hal_uart.c ****   *         the received data is handled as a set of uint16_t. In this case, Size must indicate the
1745:Drivers/STM32F4xx_HAL_Driver/Src/stm32f4xx_hal_uart.c ****   *         of uint16_t available through pData.
1746:Drivers/STM32F4xx_HAL_Driver/Src/stm32f4xx_hal_uart.c ****   * @param huart UART handle.
1747:Drivers/STM32F4xx_HAL_Driver/Src/stm32f4xx_hal_uart.c ****   * @param pData Pointer to data buffer (uint8_t or uint16_t data elements).
1748:Drivers/STM32F4xx_HAL_Driver/Src/stm32f4xx_hal_uart.c ****   * @param Size  Amount of data elements (uint8_t or uint16_t) to be received.
1749:Drivers/STM32F4xx_HAL_Driver/Src/stm32f4xx_hal_uart.c ****   * @retval HAL status
1750:Drivers/STM32F4xx_HAL_Driver/Src/stm32f4xx_hal_uart.c ****   */
1751:Drivers/STM32F4xx_HAL_Driver/Src/stm32f4xx_hal_uart.c **** HAL_StatusTypeDef HAL_UARTEx_ReceiveToIdle_IT(UART_HandleTypeDef *huart, uint8_t *pData, uint16_t S
1752:Drivers/STM32F4xx_HAL_Driver/Src/stm32f4xx_hal_uart.c **** {
1753:Drivers/STM32F4xx_HAL_Driver/Src/stm32f4xx_hal_uart.c ****   HAL_StatusTypeDef status;
1754:Drivers/STM32F4xx_HAL_Driver/Src/stm32f4xx_hal_uart.c **** 
1755:Drivers/STM32F4xx_HAL_Driver/Src/stm32f4xx_hal_uart.c ****   /* Check that a Rx process is not already ongoing */
1756:Drivers/STM32F4xx_HAL_Driver/Src/stm32f4xx_hal_uart.c ****   if (huart->RxState == HAL_UART_STATE_READY)
1757:Drivers/STM32F4xx_HAL_Driver/Src/stm32f4xx_hal_uart.c ****   {
1758:Drivers/STM32F4xx_HAL_Driver/Src/stm32f4xx_hal_uart.c ****     if ((pData == NULL) || (Size == 0U))
1759:Drivers/STM32F4xx_HAL_Driver/Src/stm32f4xx_hal_uart.c ****     {
1760:Drivers/STM32F4xx_HAL_Driver/Src/stm32f4xx_hal_uart.c ****       return HAL_ERROR;
1761:Drivers/STM32F4xx_HAL_Driver/Src/stm32f4xx_hal_uart.c ****     }
1762:Drivers/STM32F4xx_HAL_Driver/Src/stm32f4xx_hal_uart.c **** 
1763:Drivers/STM32F4xx_HAL_Driver/Src/stm32f4xx_hal_uart.c ****     __HAL_LOCK(huart);
1764:Drivers/STM32F4xx_HAL_Driver/Src/stm32f4xx_hal_uart.c **** 
1765:Drivers/STM32F4xx_HAL_Driver/Src/stm32f4xx_hal_uart.c ****     /* Set Reception type to reception till IDLE Event*/
1766:Drivers/STM32F4xx_HAL_Driver/Src/stm32f4xx_hal_uart.c ****     huart->ReceptionType = HAL_UART_RECEPTION_TOIDLE;
1767:Drivers/STM32F4xx_HAL_Driver/Src/stm32f4xx_hal_uart.c **** 
1768:Drivers/STM32F4xx_HAL_Driver/Src/stm32f4xx_hal_uart.c ****     status =  UART_Start_Receive_IT(huart, pData, Size);
1769:Drivers/STM32F4xx_HAL_Driver/Src/stm32f4xx_hal_uart.c **** 
1770:Drivers/STM32F4xx_HAL_Driver/Src/stm32f4xx_hal_uart.c ****     /* Check Rx process has been successfully started */
1771:Drivers/STM32F4xx_HAL_Driver/Src/stm32f4xx_hal_uart.c ****     if (status == HAL_OK)
1772:Drivers/STM32F4xx_HAL_Driver/Src/stm32f4xx_hal_uart.c ****     {
1773:Drivers/STM32F4xx_HAL_Driver/Src/stm32f4xx_hal_uart.c ****       if (huart->ReceptionType == HAL_UART_RECEPTION_TOIDLE)
1774:Drivers/STM32F4xx_HAL_Driver/Src/stm32f4xx_hal_uart.c ****       {
1775:Drivers/STM32F4xx_HAL_Driver/Src/stm32f4xx_hal_uart.c ****         __HAL_UART_CLEAR_IDLEFLAG(huart);
1776:Drivers/STM32F4xx_HAL_Driver/Src/stm32f4xx_hal_uart.c ****         ATOMIC_SET_BIT(huart->Instance->CR1, USART_CR1_IDLEIE);
1777:Drivers/STM32F4xx_HAL_Driver/Src/stm32f4xx_hal_uart.c ****       }
1778:Drivers/STM32F4xx_HAL_Driver/Src/stm32f4xx_hal_uart.c ****       else
1779:Drivers/STM32F4xx_HAL_Driver/Src/stm32f4xx_hal_uart.c ****       {
1780:Drivers/STM32F4xx_HAL_Driver/Src/stm32f4xx_hal_uart.c ****         /* In case of errors already pending when reception is started,
1781:Drivers/STM32F4xx_HAL_Driver/Src/stm32f4xx_hal_uart.c ****            Interrupts may have already been raised and lead to reception abortion.
ARM GAS  C:\Users\Konrad\AppData\Local\Temp\ccBcBO6H.s 			page 34


1782:Drivers/STM32F4xx_HAL_Driver/Src/stm32f4xx_hal_uart.c ****            (Overrun error for instance).
1783:Drivers/STM32F4xx_HAL_Driver/Src/stm32f4xx_hal_uart.c ****            In such case Reception Type has been reset to HAL_UART_RECEPTION_STANDARD. */
1784:Drivers/STM32F4xx_HAL_Driver/Src/stm32f4xx_hal_uart.c ****         status = HAL_ERROR;
1785:Drivers/STM32F4xx_HAL_Driver/Src/stm32f4xx_hal_uart.c ****       }
1786:Drivers/STM32F4xx_HAL_Driver/Src/stm32f4xx_hal_uart.c ****     }
1787:Drivers/STM32F4xx_HAL_Driver/Src/stm32f4xx_hal_uart.c **** 
1788:Drivers/STM32F4xx_HAL_Driver/Src/stm32f4xx_hal_uart.c ****     return status;
1789:Drivers/STM32F4xx_HAL_Driver/Src/stm32f4xx_hal_uart.c ****   }
1790:Drivers/STM32F4xx_HAL_Driver/Src/stm32f4xx_hal_uart.c ****   else
1791:Drivers/STM32F4xx_HAL_Driver/Src/stm32f4xx_hal_uart.c ****   {
1792:Drivers/STM32F4xx_HAL_Driver/Src/stm32f4xx_hal_uart.c ****     return HAL_BUSY;
1793:Drivers/STM32F4xx_HAL_Driver/Src/stm32f4xx_hal_uart.c ****   }
1794:Drivers/STM32F4xx_HAL_Driver/Src/stm32f4xx_hal_uart.c **** }
1795:Drivers/STM32F4xx_HAL_Driver/Src/stm32f4xx_hal_uart.c **** 
1796:Drivers/STM32F4xx_HAL_Driver/Src/stm32f4xx_hal_uart.c **** /**
1797:Drivers/STM32F4xx_HAL_Driver/Src/stm32f4xx_hal_uart.c ****   * @brief Receive an amount of data in DMA mode till either the expected number of data is receive
1798:Drivers/STM32F4xx_HAL_Driver/Src/stm32f4xx_hal_uart.c ****   * @note   Reception is initiated by this function call. Further progress of reception is achieved
1799:Drivers/STM32F4xx_HAL_Driver/Src/stm32f4xx_hal_uart.c ****   *         to DMA services, transferring automatically received data elements in user reception bu
1800:Drivers/STM32F4xx_HAL_Driver/Src/stm32f4xx_hal_uart.c ****   *         calling registered callbacks at half/end of reception. UART IDLE events are also used t
1801:Drivers/STM32F4xx_HAL_Driver/Src/stm32f4xx_hal_uart.c ****   *         reception phase as ended. In all cases, callback execution will indicate number of rece
1802:Drivers/STM32F4xx_HAL_Driver/Src/stm32f4xx_hal_uart.c ****   * @note   When the UART parity is enabled (PCE = 1), the received data contain
1803:Drivers/STM32F4xx_HAL_Driver/Src/stm32f4xx_hal_uart.c ****   *         the parity bit (MSB position).
1804:Drivers/STM32F4xx_HAL_Driver/Src/stm32f4xx_hal_uart.c ****   * @note   When UART parity is not enabled (PCE = 0), and Word Length is configured to 9 bits (M =
1805:Drivers/STM32F4xx_HAL_Driver/Src/stm32f4xx_hal_uart.c ****   *         the received data is handled as a set of uint16_t. In this case, Size must indicate the
1806:Drivers/STM32F4xx_HAL_Driver/Src/stm32f4xx_hal_uart.c ****   *         of uint16_t available through pData.
1807:Drivers/STM32F4xx_HAL_Driver/Src/stm32f4xx_hal_uart.c ****   * @param huart UART handle.
1808:Drivers/STM32F4xx_HAL_Driver/Src/stm32f4xx_hal_uart.c ****   * @param pData Pointer to data buffer (uint8_t or uint16_t data elements).
1809:Drivers/STM32F4xx_HAL_Driver/Src/stm32f4xx_hal_uart.c ****   * @param Size  Amount of data elements (uint8_t or uint16_t) to be received.
1810:Drivers/STM32F4xx_HAL_Driver/Src/stm32f4xx_hal_uart.c ****   * @retval HAL status
1811:Drivers/STM32F4xx_HAL_Driver/Src/stm32f4xx_hal_uart.c ****   */
1812:Drivers/STM32F4xx_HAL_Driver/Src/stm32f4xx_hal_uart.c **** HAL_StatusTypeDef HAL_UARTEx_ReceiveToIdle_DMA(UART_HandleTypeDef *huart, uint8_t *pData, uint16_t 
1813:Drivers/STM32F4xx_HAL_Driver/Src/stm32f4xx_hal_uart.c **** {
1814:Drivers/STM32F4xx_HAL_Driver/Src/stm32f4xx_hal_uart.c ****   HAL_StatusTypeDef status;
1815:Drivers/STM32F4xx_HAL_Driver/Src/stm32f4xx_hal_uart.c **** 
1816:Drivers/STM32F4xx_HAL_Driver/Src/stm32f4xx_hal_uart.c ****   /* Check that a Rx process is not already ongoing */
1817:Drivers/STM32F4xx_HAL_Driver/Src/stm32f4xx_hal_uart.c ****   if (huart->RxState == HAL_UART_STATE_READY)
1818:Drivers/STM32F4xx_HAL_Driver/Src/stm32f4xx_hal_uart.c ****   {
1819:Drivers/STM32F4xx_HAL_Driver/Src/stm32f4xx_hal_uart.c ****     if ((pData == NULL) || (Size == 0U))
1820:Drivers/STM32F4xx_HAL_Driver/Src/stm32f4xx_hal_uart.c ****     {
1821:Drivers/STM32F4xx_HAL_Driver/Src/stm32f4xx_hal_uart.c ****       return HAL_ERROR;
1822:Drivers/STM32F4xx_HAL_Driver/Src/stm32f4xx_hal_uart.c ****     }
1823:Drivers/STM32F4xx_HAL_Driver/Src/stm32f4xx_hal_uart.c **** 
1824:Drivers/STM32F4xx_HAL_Driver/Src/stm32f4xx_hal_uart.c ****     __HAL_LOCK(huart);
1825:Drivers/STM32F4xx_HAL_Driver/Src/stm32f4xx_hal_uart.c **** 
1826:Drivers/STM32F4xx_HAL_Driver/Src/stm32f4xx_hal_uart.c ****     /* Set Reception type to reception till IDLE Event*/
1827:Drivers/STM32F4xx_HAL_Driver/Src/stm32f4xx_hal_uart.c ****     huart->ReceptionType = HAL_UART_RECEPTION_TOIDLE;
1828:Drivers/STM32F4xx_HAL_Driver/Src/stm32f4xx_hal_uart.c **** 
1829:Drivers/STM32F4xx_HAL_Driver/Src/stm32f4xx_hal_uart.c ****     status =  UART_Start_Receive_DMA(huart, pData, Size);
1830:Drivers/STM32F4xx_HAL_Driver/Src/stm32f4xx_hal_uart.c **** 
1831:Drivers/STM32F4xx_HAL_Driver/Src/stm32f4xx_hal_uart.c ****     /* Check Rx process has been successfully started */
1832:Drivers/STM32F4xx_HAL_Driver/Src/stm32f4xx_hal_uart.c ****     if (status == HAL_OK)
1833:Drivers/STM32F4xx_HAL_Driver/Src/stm32f4xx_hal_uart.c ****     {
1834:Drivers/STM32F4xx_HAL_Driver/Src/stm32f4xx_hal_uart.c ****       if (huart->ReceptionType == HAL_UART_RECEPTION_TOIDLE)
1835:Drivers/STM32F4xx_HAL_Driver/Src/stm32f4xx_hal_uart.c ****       {
1836:Drivers/STM32F4xx_HAL_Driver/Src/stm32f4xx_hal_uart.c ****         __HAL_UART_CLEAR_IDLEFLAG(huart);
1837:Drivers/STM32F4xx_HAL_Driver/Src/stm32f4xx_hal_uart.c ****         ATOMIC_SET_BIT(huart->Instance->CR1, USART_CR1_IDLEIE);
1838:Drivers/STM32F4xx_HAL_Driver/Src/stm32f4xx_hal_uart.c ****       }
ARM GAS  C:\Users\Konrad\AppData\Local\Temp\ccBcBO6H.s 			page 35


1839:Drivers/STM32F4xx_HAL_Driver/Src/stm32f4xx_hal_uart.c ****       else
1840:Drivers/STM32F4xx_HAL_Driver/Src/stm32f4xx_hal_uart.c ****       {
1841:Drivers/STM32F4xx_HAL_Driver/Src/stm32f4xx_hal_uart.c ****         /* In case of errors already pending when reception is started,
1842:Drivers/STM32F4xx_HAL_Driver/Src/stm32f4xx_hal_uart.c ****            Interrupts may have already been raised and lead to reception abortion.
1843:Drivers/STM32F4xx_HAL_Driver/Src/stm32f4xx_hal_uart.c ****            (Overrun error for instance).
1844:Drivers/STM32F4xx_HAL_Driver/Src/stm32f4xx_hal_uart.c ****            In such case Reception Type has been reset to HAL_UART_RECEPTION_STANDARD. */
1845:Drivers/STM32F4xx_HAL_Driver/Src/stm32f4xx_hal_uart.c ****         status = HAL_ERROR;
1846:Drivers/STM32F4xx_HAL_Driver/Src/stm32f4xx_hal_uart.c ****       }
1847:Drivers/STM32F4xx_HAL_Driver/Src/stm32f4xx_hal_uart.c ****     }
1848:Drivers/STM32F4xx_HAL_Driver/Src/stm32f4xx_hal_uart.c **** 
1849:Drivers/STM32F4xx_HAL_Driver/Src/stm32f4xx_hal_uart.c ****     return status;
1850:Drivers/STM32F4xx_HAL_Driver/Src/stm32f4xx_hal_uart.c ****   }
1851:Drivers/STM32F4xx_HAL_Driver/Src/stm32f4xx_hal_uart.c ****   else
1852:Drivers/STM32F4xx_HAL_Driver/Src/stm32f4xx_hal_uart.c ****   {
1853:Drivers/STM32F4xx_HAL_Driver/Src/stm32f4xx_hal_uart.c ****     return HAL_BUSY;
1854:Drivers/STM32F4xx_HAL_Driver/Src/stm32f4xx_hal_uart.c ****   }
1855:Drivers/STM32F4xx_HAL_Driver/Src/stm32f4xx_hal_uart.c **** }
1856:Drivers/STM32F4xx_HAL_Driver/Src/stm32f4xx_hal_uart.c **** 
1857:Drivers/STM32F4xx_HAL_Driver/Src/stm32f4xx_hal_uart.c **** /**
1858:Drivers/STM32F4xx_HAL_Driver/Src/stm32f4xx_hal_uart.c ****   * @brief  Abort ongoing transfers (blocking mode).
1859:Drivers/STM32F4xx_HAL_Driver/Src/stm32f4xx_hal_uart.c ****   * @param  huart UART handle.
1860:Drivers/STM32F4xx_HAL_Driver/Src/stm32f4xx_hal_uart.c ****   * @note   This procedure could be used for aborting any ongoing transfer started in Interrupt or 
1861:Drivers/STM32F4xx_HAL_Driver/Src/stm32f4xx_hal_uart.c ****   *         This procedure performs following operations :
1862:Drivers/STM32F4xx_HAL_Driver/Src/stm32f4xx_hal_uart.c ****   *           - Disable UART Interrupts (Tx and Rx)
1863:Drivers/STM32F4xx_HAL_Driver/Src/stm32f4xx_hal_uart.c ****   *           - Disable the DMA transfer in the peripheral register (if enabled)
1864:Drivers/STM32F4xx_HAL_Driver/Src/stm32f4xx_hal_uart.c ****   *           - Abort DMA transfer by calling HAL_DMA_Abort (in case of transfer in DMA mode)
1865:Drivers/STM32F4xx_HAL_Driver/Src/stm32f4xx_hal_uart.c ****   *           - Set handle State to READY
1866:Drivers/STM32F4xx_HAL_Driver/Src/stm32f4xx_hal_uart.c ****   * @note   This procedure is executed in blocking mode : when exiting function, Abort is considere
1867:Drivers/STM32F4xx_HAL_Driver/Src/stm32f4xx_hal_uart.c ****   * @retval HAL status
1868:Drivers/STM32F4xx_HAL_Driver/Src/stm32f4xx_hal_uart.c ****   */
1869:Drivers/STM32F4xx_HAL_Driver/Src/stm32f4xx_hal_uart.c **** HAL_StatusTypeDef HAL_UART_Abort(UART_HandleTypeDef *huart)
1870:Drivers/STM32F4xx_HAL_Driver/Src/stm32f4xx_hal_uart.c **** {
1871:Drivers/STM32F4xx_HAL_Driver/Src/stm32f4xx_hal_uart.c ****   /* Disable TXEIE, TCIE, RXNE, PE and ERR (Frame error, noise error, overrun error) interrupts */
1872:Drivers/STM32F4xx_HAL_Driver/Src/stm32f4xx_hal_uart.c ****   ATOMIC_CLEAR_BIT(huart->Instance->CR1, (USART_CR1_RXNEIE | USART_CR1_PEIE | USART_CR1_TXEIE | USA
1873:Drivers/STM32F4xx_HAL_Driver/Src/stm32f4xx_hal_uart.c ****   ATOMIC_CLEAR_BIT(huart->Instance->CR3, USART_CR3_EIE);
1874:Drivers/STM32F4xx_HAL_Driver/Src/stm32f4xx_hal_uart.c **** 
1875:Drivers/STM32F4xx_HAL_Driver/Src/stm32f4xx_hal_uart.c ****   /* If Reception till IDLE event was ongoing, disable IDLEIE interrupt */
1876:Drivers/STM32F4xx_HAL_Driver/Src/stm32f4xx_hal_uart.c ****   if (huart->ReceptionType == HAL_UART_RECEPTION_TOIDLE)
1877:Drivers/STM32F4xx_HAL_Driver/Src/stm32f4xx_hal_uart.c ****   {
1878:Drivers/STM32F4xx_HAL_Driver/Src/stm32f4xx_hal_uart.c ****     ATOMIC_CLEAR_BIT(huart->Instance->CR1, (USART_CR1_IDLEIE));
1879:Drivers/STM32F4xx_HAL_Driver/Src/stm32f4xx_hal_uart.c ****   }
1880:Drivers/STM32F4xx_HAL_Driver/Src/stm32f4xx_hal_uart.c **** 
1881:Drivers/STM32F4xx_HAL_Driver/Src/stm32f4xx_hal_uart.c ****   /* Disable the UART DMA Tx request if enabled */
1882:Drivers/STM32F4xx_HAL_Driver/Src/stm32f4xx_hal_uart.c ****   if (HAL_IS_BIT_SET(huart->Instance->CR3, USART_CR3_DMAT))
1883:Drivers/STM32F4xx_HAL_Driver/Src/stm32f4xx_hal_uart.c ****   {
1884:Drivers/STM32F4xx_HAL_Driver/Src/stm32f4xx_hal_uart.c ****     ATOMIC_CLEAR_BIT(huart->Instance->CR3, USART_CR3_DMAT);
1885:Drivers/STM32F4xx_HAL_Driver/Src/stm32f4xx_hal_uart.c **** 
1886:Drivers/STM32F4xx_HAL_Driver/Src/stm32f4xx_hal_uart.c ****     /* Abort the UART DMA Tx stream: use blocking DMA Abort API (no callback) */
1887:Drivers/STM32F4xx_HAL_Driver/Src/stm32f4xx_hal_uart.c ****     if (huart->hdmatx != NULL)
1888:Drivers/STM32F4xx_HAL_Driver/Src/stm32f4xx_hal_uart.c ****     {
1889:Drivers/STM32F4xx_HAL_Driver/Src/stm32f4xx_hal_uart.c ****       /* Set the UART DMA Abort callback to Null.
1890:Drivers/STM32F4xx_HAL_Driver/Src/stm32f4xx_hal_uart.c ****          No call back execution at end of DMA abort procedure */
1891:Drivers/STM32F4xx_HAL_Driver/Src/stm32f4xx_hal_uart.c ****       huart->hdmatx->XferAbortCallback = NULL;
1892:Drivers/STM32F4xx_HAL_Driver/Src/stm32f4xx_hal_uart.c **** 
1893:Drivers/STM32F4xx_HAL_Driver/Src/stm32f4xx_hal_uart.c ****       if (HAL_DMA_Abort(huart->hdmatx) != HAL_OK)
1894:Drivers/STM32F4xx_HAL_Driver/Src/stm32f4xx_hal_uart.c ****       {
1895:Drivers/STM32F4xx_HAL_Driver/Src/stm32f4xx_hal_uart.c ****         if (HAL_DMA_GetError(huart->hdmatx) == HAL_DMA_ERROR_TIMEOUT)
ARM GAS  C:\Users\Konrad\AppData\Local\Temp\ccBcBO6H.s 			page 36


1896:Drivers/STM32F4xx_HAL_Driver/Src/stm32f4xx_hal_uart.c ****         {
1897:Drivers/STM32F4xx_HAL_Driver/Src/stm32f4xx_hal_uart.c ****           /* Set error code to DMA */
1898:Drivers/STM32F4xx_HAL_Driver/Src/stm32f4xx_hal_uart.c ****           huart->ErrorCode = HAL_UART_ERROR_DMA;
1899:Drivers/STM32F4xx_HAL_Driver/Src/stm32f4xx_hal_uart.c **** 
1900:Drivers/STM32F4xx_HAL_Driver/Src/stm32f4xx_hal_uart.c ****           return HAL_TIMEOUT;
1901:Drivers/STM32F4xx_HAL_Driver/Src/stm32f4xx_hal_uart.c ****         }
1902:Drivers/STM32F4xx_HAL_Driver/Src/stm32f4xx_hal_uart.c ****       }
1903:Drivers/STM32F4xx_HAL_Driver/Src/stm32f4xx_hal_uart.c ****     }
1904:Drivers/STM32F4xx_HAL_Driver/Src/stm32f4xx_hal_uart.c ****   }
1905:Drivers/STM32F4xx_HAL_Driver/Src/stm32f4xx_hal_uart.c **** 
1906:Drivers/STM32F4xx_HAL_Driver/Src/stm32f4xx_hal_uart.c ****   /* Disable the UART DMA Rx request if enabled */
1907:Drivers/STM32F4xx_HAL_Driver/Src/stm32f4xx_hal_uart.c ****   if (HAL_IS_BIT_SET(huart->Instance->CR3, USART_CR3_DMAR))
1908:Drivers/STM32F4xx_HAL_Driver/Src/stm32f4xx_hal_uart.c ****   {
1909:Drivers/STM32F4xx_HAL_Driver/Src/stm32f4xx_hal_uart.c ****     ATOMIC_CLEAR_BIT(huart->Instance->CR3, USART_CR3_DMAR);
1910:Drivers/STM32F4xx_HAL_Driver/Src/stm32f4xx_hal_uart.c **** 
1911:Drivers/STM32F4xx_HAL_Driver/Src/stm32f4xx_hal_uart.c ****     /* Abort the UART DMA Rx stream: use blocking DMA Abort API (no callback) */
1912:Drivers/STM32F4xx_HAL_Driver/Src/stm32f4xx_hal_uart.c ****     if (huart->hdmarx != NULL)
1913:Drivers/STM32F4xx_HAL_Driver/Src/stm32f4xx_hal_uart.c ****     {
1914:Drivers/STM32F4xx_HAL_Driver/Src/stm32f4xx_hal_uart.c ****       /* Set the UART DMA Abort callback to Null.
1915:Drivers/STM32F4xx_HAL_Driver/Src/stm32f4xx_hal_uart.c ****          No call back execution at end of DMA abort procedure */
1916:Drivers/STM32F4xx_HAL_Driver/Src/stm32f4xx_hal_uart.c ****       huart->hdmarx->XferAbortCallback = NULL;
1917:Drivers/STM32F4xx_HAL_Driver/Src/stm32f4xx_hal_uart.c **** 
1918:Drivers/STM32F4xx_HAL_Driver/Src/stm32f4xx_hal_uart.c ****       if (HAL_DMA_Abort(huart->hdmarx) != HAL_OK)
1919:Drivers/STM32F4xx_HAL_Driver/Src/stm32f4xx_hal_uart.c ****       {
1920:Drivers/STM32F4xx_HAL_Driver/Src/stm32f4xx_hal_uart.c ****         if (HAL_DMA_GetError(huart->hdmarx) == HAL_DMA_ERROR_TIMEOUT)
1921:Drivers/STM32F4xx_HAL_Driver/Src/stm32f4xx_hal_uart.c ****         {
1922:Drivers/STM32F4xx_HAL_Driver/Src/stm32f4xx_hal_uart.c ****           /* Set error code to DMA */
1923:Drivers/STM32F4xx_HAL_Driver/Src/stm32f4xx_hal_uart.c ****           huart->ErrorCode = HAL_UART_ERROR_DMA;
1924:Drivers/STM32F4xx_HAL_Driver/Src/stm32f4xx_hal_uart.c **** 
1925:Drivers/STM32F4xx_HAL_Driver/Src/stm32f4xx_hal_uart.c ****           return HAL_TIMEOUT;
1926:Drivers/STM32F4xx_HAL_Driver/Src/stm32f4xx_hal_uart.c ****         }
1927:Drivers/STM32F4xx_HAL_Driver/Src/stm32f4xx_hal_uart.c ****       }
1928:Drivers/STM32F4xx_HAL_Driver/Src/stm32f4xx_hal_uart.c ****     }
1929:Drivers/STM32F4xx_HAL_Driver/Src/stm32f4xx_hal_uart.c ****   }
1930:Drivers/STM32F4xx_HAL_Driver/Src/stm32f4xx_hal_uart.c **** 
1931:Drivers/STM32F4xx_HAL_Driver/Src/stm32f4xx_hal_uart.c ****   /* Reset Tx and Rx transfer counters */
1932:Drivers/STM32F4xx_HAL_Driver/Src/stm32f4xx_hal_uart.c ****   huart->TxXferCount = 0x00U;
1933:Drivers/STM32F4xx_HAL_Driver/Src/stm32f4xx_hal_uart.c ****   huart->RxXferCount = 0x00U;
1934:Drivers/STM32F4xx_HAL_Driver/Src/stm32f4xx_hal_uart.c **** 
1935:Drivers/STM32F4xx_HAL_Driver/Src/stm32f4xx_hal_uart.c ****   /* Reset ErrorCode */
1936:Drivers/STM32F4xx_HAL_Driver/Src/stm32f4xx_hal_uart.c ****   huart->ErrorCode = HAL_UART_ERROR_NONE;
1937:Drivers/STM32F4xx_HAL_Driver/Src/stm32f4xx_hal_uart.c **** 
1938:Drivers/STM32F4xx_HAL_Driver/Src/stm32f4xx_hal_uart.c ****   /* Restore huart->RxState and huart->gState to Ready */
1939:Drivers/STM32F4xx_HAL_Driver/Src/stm32f4xx_hal_uart.c ****   huart->RxState = HAL_UART_STATE_READY;
1940:Drivers/STM32F4xx_HAL_Driver/Src/stm32f4xx_hal_uart.c ****   huart->gState = HAL_UART_STATE_READY;
1941:Drivers/STM32F4xx_HAL_Driver/Src/stm32f4xx_hal_uart.c ****   huart->ReceptionType = HAL_UART_RECEPTION_STANDARD;
1942:Drivers/STM32F4xx_HAL_Driver/Src/stm32f4xx_hal_uart.c **** 
1943:Drivers/STM32F4xx_HAL_Driver/Src/stm32f4xx_hal_uart.c ****   return HAL_OK;
1944:Drivers/STM32F4xx_HAL_Driver/Src/stm32f4xx_hal_uart.c **** }
1945:Drivers/STM32F4xx_HAL_Driver/Src/stm32f4xx_hal_uart.c **** 
1946:Drivers/STM32F4xx_HAL_Driver/Src/stm32f4xx_hal_uart.c **** /**
1947:Drivers/STM32F4xx_HAL_Driver/Src/stm32f4xx_hal_uart.c ****   * @brief  Abort ongoing Transmit transfer (blocking mode).
1948:Drivers/STM32F4xx_HAL_Driver/Src/stm32f4xx_hal_uart.c ****   * @param  huart UART handle.
1949:Drivers/STM32F4xx_HAL_Driver/Src/stm32f4xx_hal_uart.c ****   * @note   This procedure could be used for aborting any ongoing Tx transfer started in Interrupt 
1950:Drivers/STM32F4xx_HAL_Driver/Src/stm32f4xx_hal_uart.c ****   *         This procedure performs following operations :
1951:Drivers/STM32F4xx_HAL_Driver/Src/stm32f4xx_hal_uart.c ****   *           - Disable UART Interrupts (Tx)
1952:Drivers/STM32F4xx_HAL_Driver/Src/stm32f4xx_hal_uart.c ****   *           - Disable the DMA transfer in the peripheral register (if enabled)
ARM GAS  C:\Users\Konrad\AppData\Local\Temp\ccBcBO6H.s 			page 37


1953:Drivers/STM32F4xx_HAL_Driver/Src/stm32f4xx_hal_uart.c ****   *           - Abort DMA transfer by calling HAL_DMA_Abort (in case of transfer in DMA mode)
1954:Drivers/STM32F4xx_HAL_Driver/Src/stm32f4xx_hal_uart.c ****   *           - Set handle State to READY
1955:Drivers/STM32F4xx_HAL_Driver/Src/stm32f4xx_hal_uart.c ****   * @note   This procedure is executed in blocking mode : when exiting function, Abort is considere
1956:Drivers/STM32F4xx_HAL_Driver/Src/stm32f4xx_hal_uart.c ****   * @retval HAL status
1957:Drivers/STM32F4xx_HAL_Driver/Src/stm32f4xx_hal_uart.c ****   */
1958:Drivers/STM32F4xx_HAL_Driver/Src/stm32f4xx_hal_uart.c **** HAL_StatusTypeDef HAL_UART_AbortTransmit(UART_HandleTypeDef *huart)
1959:Drivers/STM32F4xx_HAL_Driver/Src/stm32f4xx_hal_uart.c **** {
1960:Drivers/STM32F4xx_HAL_Driver/Src/stm32f4xx_hal_uart.c ****   /* Disable TXEIE and TCIE interrupts */
1961:Drivers/STM32F4xx_HAL_Driver/Src/stm32f4xx_hal_uart.c ****   ATOMIC_CLEAR_BIT(huart->Instance->CR1, (USART_CR1_TXEIE | USART_CR1_TCIE));
1962:Drivers/STM32F4xx_HAL_Driver/Src/stm32f4xx_hal_uart.c **** 
1963:Drivers/STM32F4xx_HAL_Driver/Src/stm32f4xx_hal_uart.c ****   /* Disable the UART DMA Tx request if enabled */
1964:Drivers/STM32F4xx_HAL_Driver/Src/stm32f4xx_hal_uart.c ****   if (HAL_IS_BIT_SET(huart->Instance->CR3, USART_CR3_DMAT))
1965:Drivers/STM32F4xx_HAL_Driver/Src/stm32f4xx_hal_uart.c ****   {
1966:Drivers/STM32F4xx_HAL_Driver/Src/stm32f4xx_hal_uart.c ****     ATOMIC_CLEAR_BIT(huart->Instance->CR3, USART_CR3_DMAT);
1967:Drivers/STM32F4xx_HAL_Driver/Src/stm32f4xx_hal_uart.c **** 
1968:Drivers/STM32F4xx_HAL_Driver/Src/stm32f4xx_hal_uart.c ****     /* Abort the UART DMA Tx stream : use blocking DMA Abort API (no callback) */
1969:Drivers/STM32F4xx_HAL_Driver/Src/stm32f4xx_hal_uart.c ****     if (huart->hdmatx != NULL)
1970:Drivers/STM32F4xx_HAL_Driver/Src/stm32f4xx_hal_uart.c ****     {
1971:Drivers/STM32F4xx_HAL_Driver/Src/stm32f4xx_hal_uart.c ****       /* Set the UART DMA Abort callback to Null.
1972:Drivers/STM32F4xx_HAL_Driver/Src/stm32f4xx_hal_uart.c ****          No call back execution at end of DMA abort procedure */
1973:Drivers/STM32F4xx_HAL_Driver/Src/stm32f4xx_hal_uart.c ****       huart->hdmatx->XferAbortCallback = NULL;
1974:Drivers/STM32F4xx_HAL_Driver/Src/stm32f4xx_hal_uart.c **** 
1975:Drivers/STM32F4xx_HAL_Driver/Src/stm32f4xx_hal_uart.c ****       if (HAL_DMA_Abort(huart->hdmatx) != HAL_OK)
1976:Drivers/STM32F4xx_HAL_Driver/Src/stm32f4xx_hal_uart.c ****       {
1977:Drivers/STM32F4xx_HAL_Driver/Src/stm32f4xx_hal_uart.c ****         if (HAL_DMA_GetError(huart->hdmatx) == HAL_DMA_ERROR_TIMEOUT)
1978:Drivers/STM32F4xx_HAL_Driver/Src/stm32f4xx_hal_uart.c ****         {
1979:Drivers/STM32F4xx_HAL_Driver/Src/stm32f4xx_hal_uart.c ****           /* Set error code to DMA */
1980:Drivers/STM32F4xx_HAL_Driver/Src/stm32f4xx_hal_uart.c ****           huart->ErrorCode = HAL_UART_ERROR_DMA;
1981:Drivers/STM32F4xx_HAL_Driver/Src/stm32f4xx_hal_uart.c **** 
1982:Drivers/STM32F4xx_HAL_Driver/Src/stm32f4xx_hal_uart.c ****           return HAL_TIMEOUT;
1983:Drivers/STM32F4xx_HAL_Driver/Src/stm32f4xx_hal_uart.c ****         }
1984:Drivers/STM32F4xx_HAL_Driver/Src/stm32f4xx_hal_uart.c ****       }
1985:Drivers/STM32F4xx_HAL_Driver/Src/stm32f4xx_hal_uart.c ****     }
1986:Drivers/STM32F4xx_HAL_Driver/Src/stm32f4xx_hal_uart.c ****   }
1987:Drivers/STM32F4xx_HAL_Driver/Src/stm32f4xx_hal_uart.c **** 
1988:Drivers/STM32F4xx_HAL_Driver/Src/stm32f4xx_hal_uart.c ****   /* Reset Tx transfer counter */
1989:Drivers/STM32F4xx_HAL_Driver/Src/stm32f4xx_hal_uart.c ****   huart->TxXferCount = 0x00U;
1990:Drivers/STM32F4xx_HAL_Driver/Src/stm32f4xx_hal_uart.c **** 
1991:Drivers/STM32F4xx_HAL_Driver/Src/stm32f4xx_hal_uart.c ****   /* Restore huart->gState to Ready */
1992:Drivers/STM32F4xx_HAL_Driver/Src/stm32f4xx_hal_uart.c ****   huart->gState = HAL_UART_STATE_READY;
1993:Drivers/STM32F4xx_HAL_Driver/Src/stm32f4xx_hal_uart.c **** 
1994:Drivers/STM32F4xx_HAL_Driver/Src/stm32f4xx_hal_uart.c ****   return HAL_OK;
1995:Drivers/STM32F4xx_HAL_Driver/Src/stm32f4xx_hal_uart.c **** }
1996:Drivers/STM32F4xx_HAL_Driver/Src/stm32f4xx_hal_uart.c **** 
1997:Drivers/STM32F4xx_HAL_Driver/Src/stm32f4xx_hal_uart.c **** /**
1998:Drivers/STM32F4xx_HAL_Driver/Src/stm32f4xx_hal_uart.c ****   * @brief  Abort ongoing Receive transfer (blocking mode).
1999:Drivers/STM32F4xx_HAL_Driver/Src/stm32f4xx_hal_uart.c ****   * @param  huart UART handle.
2000:Drivers/STM32F4xx_HAL_Driver/Src/stm32f4xx_hal_uart.c ****   * @note   This procedure could be used for aborting any ongoing Rx transfer started in Interrupt 
2001:Drivers/STM32F4xx_HAL_Driver/Src/stm32f4xx_hal_uart.c ****   *         This procedure performs following operations :
2002:Drivers/STM32F4xx_HAL_Driver/Src/stm32f4xx_hal_uart.c ****   *           - Disable UART Interrupts (Rx)
2003:Drivers/STM32F4xx_HAL_Driver/Src/stm32f4xx_hal_uart.c ****   *           - Disable the DMA transfer in the peripheral register (if enabled)
2004:Drivers/STM32F4xx_HAL_Driver/Src/stm32f4xx_hal_uart.c ****   *           - Abort DMA transfer by calling HAL_DMA_Abort (in case of transfer in DMA mode)
2005:Drivers/STM32F4xx_HAL_Driver/Src/stm32f4xx_hal_uart.c ****   *           - Set handle State to READY
2006:Drivers/STM32F4xx_HAL_Driver/Src/stm32f4xx_hal_uart.c ****   * @note   This procedure is executed in blocking mode : when exiting function, Abort is considere
2007:Drivers/STM32F4xx_HAL_Driver/Src/stm32f4xx_hal_uart.c ****   * @retval HAL status
2008:Drivers/STM32F4xx_HAL_Driver/Src/stm32f4xx_hal_uart.c ****   */
2009:Drivers/STM32F4xx_HAL_Driver/Src/stm32f4xx_hal_uart.c **** HAL_StatusTypeDef HAL_UART_AbortReceive(UART_HandleTypeDef *huart)
ARM GAS  C:\Users\Konrad\AppData\Local\Temp\ccBcBO6H.s 			page 38


2010:Drivers/STM32F4xx_HAL_Driver/Src/stm32f4xx_hal_uart.c **** {
2011:Drivers/STM32F4xx_HAL_Driver/Src/stm32f4xx_hal_uart.c ****   /* Disable RXNE, PE and ERR (Frame error, noise error, overrun error) interrupts */
2012:Drivers/STM32F4xx_HAL_Driver/Src/stm32f4xx_hal_uart.c ****   ATOMIC_CLEAR_BIT(huart->Instance->CR1, (USART_CR1_RXNEIE | USART_CR1_PEIE));
2013:Drivers/STM32F4xx_HAL_Driver/Src/stm32f4xx_hal_uart.c ****   ATOMIC_CLEAR_BIT(huart->Instance->CR3, USART_CR3_EIE);
2014:Drivers/STM32F4xx_HAL_Driver/Src/stm32f4xx_hal_uart.c **** 
2015:Drivers/STM32F4xx_HAL_Driver/Src/stm32f4xx_hal_uart.c ****   /* If Reception till IDLE event was ongoing, disable IDLEIE interrupt */
2016:Drivers/STM32F4xx_HAL_Driver/Src/stm32f4xx_hal_uart.c ****   if (huart->ReceptionType == HAL_UART_RECEPTION_TOIDLE)
2017:Drivers/STM32F4xx_HAL_Driver/Src/stm32f4xx_hal_uart.c ****   {
2018:Drivers/STM32F4xx_HAL_Driver/Src/stm32f4xx_hal_uart.c ****     ATOMIC_CLEAR_BIT(huart->Instance->CR1, (USART_CR1_IDLEIE));
2019:Drivers/STM32F4xx_HAL_Driver/Src/stm32f4xx_hal_uart.c ****   }
2020:Drivers/STM32F4xx_HAL_Driver/Src/stm32f4xx_hal_uart.c **** 
2021:Drivers/STM32F4xx_HAL_Driver/Src/stm32f4xx_hal_uart.c ****   /* Disable the UART DMA Rx request if enabled */
2022:Drivers/STM32F4xx_HAL_Driver/Src/stm32f4xx_hal_uart.c ****   if (HAL_IS_BIT_SET(huart->Instance->CR3, USART_CR3_DMAR))
2023:Drivers/STM32F4xx_HAL_Driver/Src/stm32f4xx_hal_uart.c ****   {
2024:Drivers/STM32F4xx_HAL_Driver/Src/stm32f4xx_hal_uart.c ****     ATOMIC_CLEAR_BIT(huart->Instance->CR3, USART_CR3_DMAR);
2025:Drivers/STM32F4xx_HAL_Driver/Src/stm32f4xx_hal_uart.c **** 
2026:Drivers/STM32F4xx_HAL_Driver/Src/stm32f4xx_hal_uart.c ****     /* Abort the UART DMA Rx stream : use blocking DMA Abort API (no callback) */
2027:Drivers/STM32F4xx_HAL_Driver/Src/stm32f4xx_hal_uart.c ****     if (huart->hdmarx != NULL)
2028:Drivers/STM32F4xx_HAL_Driver/Src/stm32f4xx_hal_uart.c ****     {
2029:Drivers/STM32F4xx_HAL_Driver/Src/stm32f4xx_hal_uart.c ****       /* Set the UART DMA Abort callback to Null.
2030:Drivers/STM32F4xx_HAL_Driver/Src/stm32f4xx_hal_uart.c ****          No call back execution at end of DMA abort procedure */
2031:Drivers/STM32F4xx_HAL_Driver/Src/stm32f4xx_hal_uart.c ****       huart->hdmarx->XferAbortCallback = NULL;
2032:Drivers/STM32F4xx_HAL_Driver/Src/stm32f4xx_hal_uart.c **** 
2033:Drivers/STM32F4xx_HAL_Driver/Src/stm32f4xx_hal_uart.c ****       if (HAL_DMA_Abort(huart->hdmarx) != HAL_OK)
2034:Drivers/STM32F4xx_HAL_Driver/Src/stm32f4xx_hal_uart.c ****       {
2035:Drivers/STM32F4xx_HAL_Driver/Src/stm32f4xx_hal_uart.c ****         if (HAL_DMA_GetError(huart->hdmarx) == HAL_DMA_ERROR_TIMEOUT)
2036:Drivers/STM32F4xx_HAL_Driver/Src/stm32f4xx_hal_uart.c ****         {
2037:Drivers/STM32F4xx_HAL_Driver/Src/stm32f4xx_hal_uart.c ****           /* Set error code to DMA */
2038:Drivers/STM32F4xx_HAL_Driver/Src/stm32f4xx_hal_uart.c ****           huart->ErrorCode = HAL_UART_ERROR_DMA;
2039:Drivers/STM32F4xx_HAL_Driver/Src/stm32f4xx_hal_uart.c **** 
2040:Drivers/STM32F4xx_HAL_Driver/Src/stm32f4xx_hal_uart.c ****           return HAL_TIMEOUT;
2041:Drivers/STM32F4xx_HAL_Driver/Src/stm32f4xx_hal_uart.c ****         }
2042:Drivers/STM32F4xx_HAL_Driver/Src/stm32f4xx_hal_uart.c ****       }
2043:Drivers/STM32F4xx_HAL_Driver/Src/stm32f4xx_hal_uart.c ****     }
2044:Drivers/STM32F4xx_HAL_Driver/Src/stm32f4xx_hal_uart.c ****   }
2045:Drivers/STM32F4xx_HAL_Driver/Src/stm32f4xx_hal_uart.c **** 
2046:Drivers/STM32F4xx_HAL_Driver/Src/stm32f4xx_hal_uart.c ****   /* Reset Rx transfer counter */
2047:Drivers/STM32F4xx_HAL_Driver/Src/stm32f4xx_hal_uart.c ****   huart->RxXferCount = 0x00U;
2048:Drivers/STM32F4xx_HAL_Driver/Src/stm32f4xx_hal_uart.c **** 
2049:Drivers/STM32F4xx_HAL_Driver/Src/stm32f4xx_hal_uart.c ****   /* Restore huart->RxState to Ready */
2050:Drivers/STM32F4xx_HAL_Driver/Src/stm32f4xx_hal_uart.c ****   huart->RxState = HAL_UART_STATE_READY;
2051:Drivers/STM32F4xx_HAL_Driver/Src/stm32f4xx_hal_uart.c ****   huart->ReceptionType = HAL_UART_RECEPTION_STANDARD;
2052:Drivers/STM32F4xx_HAL_Driver/Src/stm32f4xx_hal_uart.c **** 
2053:Drivers/STM32F4xx_HAL_Driver/Src/stm32f4xx_hal_uart.c ****   return HAL_OK;
2054:Drivers/STM32F4xx_HAL_Driver/Src/stm32f4xx_hal_uart.c **** }
2055:Drivers/STM32F4xx_HAL_Driver/Src/stm32f4xx_hal_uart.c **** 
2056:Drivers/STM32F4xx_HAL_Driver/Src/stm32f4xx_hal_uart.c **** /**
2057:Drivers/STM32F4xx_HAL_Driver/Src/stm32f4xx_hal_uart.c ****   * @brief  Abort ongoing transfers (Interrupt mode).
2058:Drivers/STM32F4xx_HAL_Driver/Src/stm32f4xx_hal_uart.c ****   * @param  huart UART handle.
2059:Drivers/STM32F4xx_HAL_Driver/Src/stm32f4xx_hal_uart.c ****   * @note   This procedure could be used for aborting any ongoing transfer started in Interrupt or 
2060:Drivers/STM32F4xx_HAL_Driver/Src/stm32f4xx_hal_uart.c ****   *         This procedure performs following operations :
2061:Drivers/STM32F4xx_HAL_Driver/Src/stm32f4xx_hal_uart.c ****   *           - Disable UART Interrupts (Tx and Rx)
2062:Drivers/STM32F4xx_HAL_Driver/Src/stm32f4xx_hal_uart.c ****   *           - Disable the DMA transfer in the peripheral register (if enabled)
2063:Drivers/STM32F4xx_HAL_Driver/Src/stm32f4xx_hal_uart.c ****   *           - Abort DMA transfer by calling HAL_DMA_Abort_IT (in case of transfer in DMA mode)
2064:Drivers/STM32F4xx_HAL_Driver/Src/stm32f4xx_hal_uart.c ****   *           - Set handle State to READY
2065:Drivers/STM32F4xx_HAL_Driver/Src/stm32f4xx_hal_uart.c ****   *           - At abort completion, call user abort complete callback
2066:Drivers/STM32F4xx_HAL_Driver/Src/stm32f4xx_hal_uart.c ****   * @note   This procedure is executed in Interrupt mode, meaning that abort procedure could be
ARM GAS  C:\Users\Konrad\AppData\Local\Temp\ccBcBO6H.s 			page 39


2067:Drivers/STM32F4xx_HAL_Driver/Src/stm32f4xx_hal_uart.c ****   *         considered as completed only when user abort complete callback is executed (not when ex
2068:Drivers/STM32F4xx_HAL_Driver/Src/stm32f4xx_hal_uart.c ****   * @retval HAL status
2069:Drivers/STM32F4xx_HAL_Driver/Src/stm32f4xx_hal_uart.c ****   */
2070:Drivers/STM32F4xx_HAL_Driver/Src/stm32f4xx_hal_uart.c **** HAL_StatusTypeDef HAL_UART_Abort_IT(UART_HandleTypeDef *huart)
2071:Drivers/STM32F4xx_HAL_Driver/Src/stm32f4xx_hal_uart.c **** {
2072:Drivers/STM32F4xx_HAL_Driver/Src/stm32f4xx_hal_uart.c ****   uint32_t AbortCplt = 0x01U;
2073:Drivers/STM32F4xx_HAL_Driver/Src/stm32f4xx_hal_uart.c **** 
2074:Drivers/STM32F4xx_HAL_Driver/Src/stm32f4xx_hal_uart.c ****   /* Disable TXEIE, TCIE, RXNE, PE and ERR (Frame error, noise error, overrun error) interrupts */
2075:Drivers/STM32F4xx_HAL_Driver/Src/stm32f4xx_hal_uart.c ****   ATOMIC_CLEAR_BIT(huart->Instance->CR1, (USART_CR1_RXNEIE | USART_CR1_PEIE | USART_CR1_TXEIE | USA
2076:Drivers/STM32F4xx_HAL_Driver/Src/stm32f4xx_hal_uart.c ****   ATOMIC_CLEAR_BIT(huart->Instance->CR3, USART_CR3_EIE);
2077:Drivers/STM32F4xx_HAL_Driver/Src/stm32f4xx_hal_uart.c **** 
2078:Drivers/STM32F4xx_HAL_Driver/Src/stm32f4xx_hal_uart.c ****   /* If Reception till IDLE event was ongoing, disable IDLEIE interrupt */
2079:Drivers/STM32F4xx_HAL_Driver/Src/stm32f4xx_hal_uart.c ****   if (huart->ReceptionType == HAL_UART_RECEPTION_TOIDLE)
2080:Drivers/STM32F4xx_HAL_Driver/Src/stm32f4xx_hal_uart.c ****   {
2081:Drivers/STM32F4xx_HAL_Driver/Src/stm32f4xx_hal_uart.c ****     ATOMIC_CLEAR_BIT(huart->Instance->CR1, (USART_CR1_IDLEIE));
2082:Drivers/STM32F4xx_HAL_Driver/Src/stm32f4xx_hal_uart.c ****   }
2083:Drivers/STM32F4xx_HAL_Driver/Src/stm32f4xx_hal_uart.c **** 
2084:Drivers/STM32F4xx_HAL_Driver/Src/stm32f4xx_hal_uart.c ****   /* If DMA Tx and/or DMA Rx Handles are associated to UART Handle, DMA Abort complete callbacks sh
2085:Drivers/STM32F4xx_HAL_Driver/Src/stm32f4xx_hal_uart.c ****      before any call to DMA Abort functions */
2086:Drivers/STM32F4xx_HAL_Driver/Src/stm32f4xx_hal_uart.c ****   /* DMA Tx Handle is valid */
2087:Drivers/STM32F4xx_HAL_Driver/Src/stm32f4xx_hal_uart.c ****   if (huart->hdmatx != NULL)
2088:Drivers/STM32F4xx_HAL_Driver/Src/stm32f4xx_hal_uart.c ****   {
2089:Drivers/STM32F4xx_HAL_Driver/Src/stm32f4xx_hal_uart.c ****     /* Set DMA Abort Complete callback if UART DMA Tx request if enabled.
2090:Drivers/STM32F4xx_HAL_Driver/Src/stm32f4xx_hal_uart.c ****        Otherwise, set it to NULL */
2091:Drivers/STM32F4xx_HAL_Driver/Src/stm32f4xx_hal_uart.c ****     if (HAL_IS_BIT_SET(huart->Instance->CR3, USART_CR3_DMAT))
2092:Drivers/STM32F4xx_HAL_Driver/Src/stm32f4xx_hal_uart.c ****     {
2093:Drivers/STM32F4xx_HAL_Driver/Src/stm32f4xx_hal_uart.c ****       huart->hdmatx->XferAbortCallback = UART_DMATxAbortCallback;
2094:Drivers/STM32F4xx_HAL_Driver/Src/stm32f4xx_hal_uart.c ****     }
2095:Drivers/STM32F4xx_HAL_Driver/Src/stm32f4xx_hal_uart.c ****     else
2096:Drivers/STM32F4xx_HAL_Driver/Src/stm32f4xx_hal_uart.c ****     {
2097:Drivers/STM32F4xx_HAL_Driver/Src/stm32f4xx_hal_uart.c ****       huart->hdmatx->XferAbortCallback = NULL;
2098:Drivers/STM32F4xx_HAL_Driver/Src/stm32f4xx_hal_uart.c ****     }
2099:Drivers/STM32F4xx_HAL_Driver/Src/stm32f4xx_hal_uart.c ****   }
2100:Drivers/STM32F4xx_HAL_Driver/Src/stm32f4xx_hal_uart.c ****   /* DMA Rx Handle is valid */
2101:Drivers/STM32F4xx_HAL_Driver/Src/stm32f4xx_hal_uart.c ****   if (huart->hdmarx != NULL)
2102:Drivers/STM32F4xx_HAL_Driver/Src/stm32f4xx_hal_uart.c ****   {
2103:Drivers/STM32F4xx_HAL_Driver/Src/stm32f4xx_hal_uart.c ****     /* Set DMA Abort Complete callback if UART DMA Rx request if enabled.
2104:Drivers/STM32F4xx_HAL_Driver/Src/stm32f4xx_hal_uart.c ****        Otherwise, set it to NULL */
2105:Drivers/STM32F4xx_HAL_Driver/Src/stm32f4xx_hal_uart.c ****     if (HAL_IS_BIT_SET(huart->Instance->CR3, USART_CR3_DMAR))
2106:Drivers/STM32F4xx_HAL_Driver/Src/stm32f4xx_hal_uart.c ****     {
2107:Drivers/STM32F4xx_HAL_Driver/Src/stm32f4xx_hal_uart.c ****       huart->hdmarx->XferAbortCallback = UART_DMARxAbortCallback;
2108:Drivers/STM32F4xx_HAL_Driver/Src/stm32f4xx_hal_uart.c ****     }
2109:Drivers/STM32F4xx_HAL_Driver/Src/stm32f4xx_hal_uart.c ****     else
2110:Drivers/STM32F4xx_HAL_Driver/Src/stm32f4xx_hal_uart.c ****     {
2111:Drivers/STM32F4xx_HAL_Driver/Src/stm32f4xx_hal_uart.c ****       huart->hdmarx->XferAbortCallback = NULL;
2112:Drivers/STM32F4xx_HAL_Driver/Src/stm32f4xx_hal_uart.c ****     }
2113:Drivers/STM32F4xx_HAL_Driver/Src/stm32f4xx_hal_uart.c ****   }
2114:Drivers/STM32F4xx_HAL_Driver/Src/stm32f4xx_hal_uart.c **** 
2115:Drivers/STM32F4xx_HAL_Driver/Src/stm32f4xx_hal_uart.c ****   /* Disable the UART DMA Tx request if enabled */
2116:Drivers/STM32F4xx_HAL_Driver/Src/stm32f4xx_hal_uart.c ****   if (HAL_IS_BIT_SET(huart->Instance->CR3, USART_CR3_DMAT))
2117:Drivers/STM32F4xx_HAL_Driver/Src/stm32f4xx_hal_uart.c ****   {
2118:Drivers/STM32F4xx_HAL_Driver/Src/stm32f4xx_hal_uart.c ****     /* Disable DMA Tx at UART level */
2119:Drivers/STM32F4xx_HAL_Driver/Src/stm32f4xx_hal_uart.c ****     ATOMIC_CLEAR_BIT(huart->Instance->CR3, USART_CR3_DMAT);
2120:Drivers/STM32F4xx_HAL_Driver/Src/stm32f4xx_hal_uart.c **** 
2121:Drivers/STM32F4xx_HAL_Driver/Src/stm32f4xx_hal_uart.c ****     /* Abort the UART DMA Tx stream : use non blocking DMA Abort API (callback) */
2122:Drivers/STM32F4xx_HAL_Driver/Src/stm32f4xx_hal_uart.c ****     if (huart->hdmatx != NULL)
2123:Drivers/STM32F4xx_HAL_Driver/Src/stm32f4xx_hal_uart.c ****     {
ARM GAS  C:\Users\Konrad\AppData\Local\Temp\ccBcBO6H.s 			page 40


2124:Drivers/STM32F4xx_HAL_Driver/Src/stm32f4xx_hal_uart.c ****       /* UART Tx DMA Abort callback has already been initialised :
2125:Drivers/STM32F4xx_HAL_Driver/Src/stm32f4xx_hal_uart.c ****          will lead to call HAL_UART_AbortCpltCallback() at end of DMA abort procedure */
2126:Drivers/STM32F4xx_HAL_Driver/Src/stm32f4xx_hal_uart.c **** 
2127:Drivers/STM32F4xx_HAL_Driver/Src/stm32f4xx_hal_uart.c ****       /* Abort DMA TX */
2128:Drivers/STM32F4xx_HAL_Driver/Src/stm32f4xx_hal_uart.c ****       if (HAL_DMA_Abort_IT(huart->hdmatx) != HAL_OK)
2129:Drivers/STM32F4xx_HAL_Driver/Src/stm32f4xx_hal_uart.c ****       {
2130:Drivers/STM32F4xx_HAL_Driver/Src/stm32f4xx_hal_uart.c ****         huart->hdmatx->XferAbortCallback = NULL;
2131:Drivers/STM32F4xx_HAL_Driver/Src/stm32f4xx_hal_uart.c ****       }
2132:Drivers/STM32F4xx_HAL_Driver/Src/stm32f4xx_hal_uart.c ****       else
2133:Drivers/STM32F4xx_HAL_Driver/Src/stm32f4xx_hal_uart.c ****       {
2134:Drivers/STM32F4xx_HAL_Driver/Src/stm32f4xx_hal_uart.c ****         AbortCplt = 0x00U;
2135:Drivers/STM32F4xx_HAL_Driver/Src/stm32f4xx_hal_uart.c ****       }
2136:Drivers/STM32F4xx_HAL_Driver/Src/stm32f4xx_hal_uart.c ****     }
2137:Drivers/STM32F4xx_HAL_Driver/Src/stm32f4xx_hal_uart.c ****   }
2138:Drivers/STM32F4xx_HAL_Driver/Src/stm32f4xx_hal_uart.c **** 
2139:Drivers/STM32F4xx_HAL_Driver/Src/stm32f4xx_hal_uart.c ****   /* Disable the UART DMA Rx request if enabled */
2140:Drivers/STM32F4xx_HAL_Driver/Src/stm32f4xx_hal_uart.c ****   if (HAL_IS_BIT_SET(huart->Instance->CR3, USART_CR3_DMAR))
2141:Drivers/STM32F4xx_HAL_Driver/Src/stm32f4xx_hal_uart.c ****   {
2142:Drivers/STM32F4xx_HAL_Driver/Src/stm32f4xx_hal_uart.c ****     ATOMIC_CLEAR_BIT(huart->Instance->CR3, USART_CR3_DMAR);
2143:Drivers/STM32F4xx_HAL_Driver/Src/stm32f4xx_hal_uart.c **** 
2144:Drivers/STM32F4xx_HAL_Driver/Src/stm32f4xx_hal_uart.c ****     /* Abort the UART DMA Rx stream : use non blocking DMA Abort API (callback) */
2145:Drivers/STM32F4xx_HAL_Driver/Src/stm32f4xx_hal_uart.c ****     if (huart->hdmarx != NULL)
2146:Drivers/STM32F4xx_HAL_Driver/Src/stm32f4xx_hal_uart.c ****     {
2147:Drivers/STM32F4xx_HAL_Driver/Src/stm32f4xx_hal_uart.c ****       /* UART Rx DMA Abort callback has already been initialised :
2148:Drivers/STM32F4xx_HAL_Driver/Src/stm32f4xx_hal_uart.c ****          will lead to call HAL_UART_AbortCpltCallback() at end of DMA abort procedure */
2149:Drivers/STM32F4xx_HAL_Driver/Src/stm32f4xx_hal_uart.c **** 
2150:Drivers/STM32F4xx_HAL_Driver/Src/stm32f4xx_hal_uart.c ****       /* Abort DMA RX */
2151:Drivers/STM32F4xx_HAL_Driver/Src/stm32f4xx_hal_uart.c ****       if (HAL_DMA_Abort_IT(huart->hdmarx) != HAL_OK)
2152:Drivers/STM32F4xx_HAL_Driver/Src/stm32f4xx_hal_uart.c ****       {
2153:Drivers/STM32F4xx_HAL_Driver/Src/stm32f4xx_hal_uart.c ****         huart->hdmarx->XferAbortCallback = NULL;
2154:Drivers/STM32F4xx_HAL_Driver/Src/stm32f4xx_hal_uart.c ****         AbortCplt = 0x01U;
2155:Drivers/STM32F4xx_HAL_Driver/Src/stm32f4xx_hal_uart.c ****       }
2156:Drivers/STM32F4xx_HAL_Driver/Src/stm32f4xx_hal_uart.c ****       else
2157:Drivers/STM32F4xx_HAL_Driver/Src/stm32f4xx_hal_uart.c ****       {
2158:Drivers/STM32F4xx_HAL_Driver/Src/stm32f4xx_hal_uart.c ****         AbortCplt = 0x00U;
2159:Drivers/STM32F4xx_HAL_Driver/Src/stm32f4xx_hal_uart.c ****       }
2160:Drivers/STM32F4xx_HAL_Driver/Src/stm32f4xx_hal_uart.c ****     }
2161:Drivers/STM32F4xx_HAL_Driver/Src/stm32f4xx_hal_uart.c ****   }
2162:Drivers/STM32F4xx_HAL_Driver/Src/stm32f4xx_hal_uart.c **** 
2163:Drivers/STM32F4xx_HAL_Driver/Src/stm32f4xx_hal_uart.c ****   /* if no DMA abort complete callback execution is required => call user Abort Complete callback *
2164:Drivers/STM32F4xx_HAL_Driver/Src/stm32f4xx_hal_uart.c ****   if (AbortCplt == 0x01U)
2165:Drivers/STM32F4xx_HAL_Driver/Src/stm32f4xx_hal_uart.c ****   {
2166:Drivers/STM32F4xx_HAL_Driver/Src/stm32f4xx_hal_uart.c ****     /* Reset Tx and Rx transfer counters */
2167:Drivers/STM32F4xx_HAL_Driver/Src/stm32f4xx_hal_uart.c ****     huart->TxXferCount = 0x00U;
2168:Drivers/STM32F4xx_HAL_Driver/Src/stm32f4xx_hal_uart.c ****     huart->RxXferCount = 0x00U;
2169:Drivers/STM32F4xx_HAL_Driver/Src/stm32f4xx_hal_uart.c **** 
2170:Drivers/STM32F4xx_HAL_Driver/Src/stm32f4xx_hal_uart.c ****     /* Reset ErrorCode */
2171:Drivers/STM32F4xx_HAL_Driver/Src/stm32f4xx_hal_uart.c ****     huart->ErrorCode = HAL_UART_ERROR_NONE;
2172:Drivers/STM32F4xx_HAL_Driver/Src/stm32f4xx_hal_uart.c **** 
2173:Drivers/STM32F4xx_HAL_Driver/Src/stm32f4xx_hal_uart.c ****     /* Restore huart->gState and huart->RxState to Ready */
2174:Drivers/STM32F4xx_HAL_Driver/Src/stm32f4xx_hal_uart.c ****     huart->gState  = HAL_UART_STATE_READY;
2175:Drivers/STM32F4xx_HAL_Driver/Src/stm32f4xx_hal_uart.c ****     huart->RxState = HAL_UART_STATE_READY;
2176:Drivers/STM32F4xx_HAL_Driver/Src/stm32f4xx_hal_uart.c ****     huart->ReceptionType = HAL_UART_RECEPTION_STANDARD;
2177:Drivers/STM32F4xx_HAL_Driver/Src/stm32f4xx_hal_uart.c **** 
2178:Drivers/STM32F4xx_HAL_Driver/Src/stm32f4xx_hal_uart.c ****     /* As no DMA to be aborted, call directly user Abort complete callback */
2179:Drivers/STM32F4xx_HAL_Driver/Src/stm32f4xx_hal_uart.c **** #if (USE_HAL_UART_REGISTER_CALLBACKS == 1)
2180:Drivers/STM32F4xx_HAL_Driver/Src/stm32f4xx_hal_uart.c ****     /* Call registered Abort complete callback */
ARM GAS  C:\Users\Konrad\AppData\Local\Temp\ccBcBO6H.s 			page 41


2181:Drivers/STM32F4xx_HAL_Driver/Src/stm32f4xx_hal_uart.c ****     huart->AbortCpltCallback(huart);
2182:Drivers/STM32F4xx_HAL_Driver/Src/stm32f4xx_hal_uart.c **** #else
2183:Drivers/STM32F4xx_HAL_Driver/Src/stm32f4xx_hal_uart.c ****     /* Call legacy weak Abort complete callback */
2184:Drivers/STM32F4xx_HAL_Driver/Src/stm32f4xx_hal_uart.c ****     HAL_UART_AbortCpltCallback(huart);
2185:Drivers/STM32F4xx_HAL_Driver/Src/stm32f4xx_hal_uart.c **** #endif /* USE_HAL_UART_REGISTER_CALLBACKS */
2186:Drivers/STM32F4xx_HAL_Driver/Src/stm32f4xx_hal_uart.c ****   }
2187:Drivers/STM32F4xx_HAL_Driver/Src/stm32f4xx_hal_uart.c **** 
2188:Drivers/STM32F4xx_HAL_Driver/Src/stm32f4xx_hal_uart.c ****   return HAL_OK;
2189:Drivers/STM32F4xx_HAL_Driver/Src/stm32f4xx_hal_uart.c **** }
2190:Drivers/STM32F4xx_HAL_Driver/Src/stm32f4xx_hal_uart.c **** 
2191:Drivers/STM32F4xx_HAL_Driver/Src/stm32f4xx_hal_uart.c **** /**
2192:Drivers/STM32F4xx_HAL_Driver/Src/stm32f4xx_hal_uart.c ****   * @brief  Abort ongoing Transmit transfer (Interrupt mode).
2193:Drivers/STM32F4xx_HAL_Driver/Src/stm32f4xx_hal_uart.c ****   * @param  huart UART handle.
2194:Drivers/STM32F4xx_HAL_Driver/Src/stm32f4xx_hal_uart.c ****   * @note   This procedure could be used for aborting any ongoing Tx transfer started in Interrupt 
2195:Drivers/STM32F4xx_HAL_Driver/Src/stm32f4xx_hal_uart.c ****   *         This procedure performs following operations :
2196:Drivers/STM32F4xx_HAL_Driver/Src/stm32f4xx_hal_uart.c ****   *           - Disable UART Interrupts (Tx)
2197:Drivers/STM32F4xx_HAL_Driver/Src/stm32f4xx_hal_uart.c ****   *           - Disable the DMA transfer in the peripheral register (if enabled)
2198:Drivers/STM32F4xx_HAL_Driver/Src/stm32f4xx_hal_uart.c ****   *           - Abort DMA transfer by calling HAL_DMA_Abort_IT (in case of transfer in DMA mode)
2199:Drivers/STM32F4xx_HAL_Driver/Src/stm32f4xx_hal_uart.c ****   *           - Set handle State to READY
2200:Drivers/STM32F4xx_HAL_Driver/Src/stm32f4xx_hal_uart.c ****   *           - At abort completion, call user abort complete callback
2201:Drivers/STM32F4xx_HAL_Driver/Src/stm32f4xx_hal_uart.c ****   * @note   This procedure is executed in Interrupt mode, meaning that abort procedure could be
2202:Drivers/STM32F4xx_HAL_Driver/Src/stm32f4xx_hal_uart.c ****   *         considered as completed only when user abort complete callback is executed (not when ex
2203:Drivers/STM32F4xx_HAL_Driver/Src/stm32f4xx_hal_uart.c ****   * @retval HAL status
2204:Drivers/STM32F4xx_HAL_Driver/Src/stm32f4xx_hal_uart.c ****   */
2205:Drivers/STM32F4xx_HAL_Driver/Src/stm32f4xx_hal_uart.c **** HAL_StatusTypeDef HAL_UART_AbortTransmit_IT(UART_HandleTypeDef *huart)
2206:Drivers/STM32F4xx_HAL_Driver/Src/stm32f4xx_hal_uart.c **** {
2207:Drivers/STM32F4xx_HAL_Driver/Src/stm32f4xx_hal_uart.c ****   /* Disable TXEIE and TCIE interrupts */
2208:Drivers/STM32F4xx_HAL_Driver/Src/stm32f4xx_hal_uart.c ****   ATOMIC_CLEAR_BIT(huart->Instance->CR1, (USART_CR1_TXEIE | USART_CR1_TCIE));
2209:Drivers/STM32F4xx_HAL_Driver/Src/stm32f4xx_hal_uart.c **** 
2210:Drivers/STM32F4xx_HAL_Driver/Src/stm32f4xx_hal_uart.c ****   /* Disable the UART DMA Tx request if enabled */
2211:Drivers/STM32F4xx_HAL_Driver/Src/stm32f4xx_hal_uart.c ****   if (HAL_IS_BIT_SET(huart->Instance->CR3, USART_CR3_DMAT))
2212:Drivers/STM32F4xx_HAL_Driver/Src/stm32f4xx_hal_uart.c ****   {
2213:Drivers/STM32F4xx_HAL_Driver/Src/stm32f4xx_hal_uart.c ****     ATOMIC_CLEAR_BIT(huart->Instance->CR3, USART_CR3_DMAT);
2214:Drivers/STM32F4xx_HAL_Driver/Src/stm32f4xx_hal_uart.c **** 
2215:Drivers/STM32F4xx_HAL_Driver/Src/stm32f4xx_hal_uart.c ****     /* Abort the UART DMA Tx stream : use blocking DMA Abort API (no callback) */
2216:Drivers/STM32F4xx_HAL_Driver/Src/stm32f4xx_hal_uart.c ****     if (huart->hdmatx != NULL)
2217:Drivers/STM32F4xx_HAL_Driver/Src/stm32f4xx_hal_uart.c ****     {
2218:Drivers/STM32F4xx_HAL_Driver/Src/stm32f4xx_hal_uart.c ****       /* Set the UART DMA Abort callback :
2219:Drivers/STM32F4xx_HAL_Driver/Src/stm32f4xx_hal_uart.c ****          will lead to call HAL_UART_AbortCpltCallback() at end of DMA abort procedure */
2220:Drivers/STM32F4xx_HAL_Driver/Src/stm32f4xx_hal_uart.c ****       huart->hdmatx->XferAbortCallback = UART_DMATxOnlyAbortCallback;
2221:Drivers/STM32F4xx_HAL_Driver/Src/stm32f4xx_hal_uart.c **** 
2222:Drivers/STM32F4xx_HAL_Driver/Src/stm32f4xx_hal_uart.c ****       /* Abort DMA TX */
2223:Drivers/STM32F4xx_HAL_Driver/Src/stm32f4xx_hal_uart.c ****       if (HAL_DMA_Abort_IT(huart->hdmatx) != HAL_OK)
2224:Drivers/STM32F4xx_HAL_Driver/Src/stm32f4xx_hal_uart.c ****       {
2225:Drivers/STM32F4xx_HAL_Driver/Src/stm32f4xx_hal_uart.c ****         /* Call Directly huart->hdmatx->XferAbortCallback function in case of error */
2226:Drivers/STM32F4xx_HAL_Driver/Src/stm32f4xx_hal_uart.c ****         huart->hdmatx->XferAbortCallback(huart->hdmatx);
2227:Drivers/STM32F4xx_HAL_Driver/Src/stm32f4xx_hal_uart.c ****       }
2228:Drivers/STM32F4xx_HAL_Driver/Src/stm32f4xx_hal_uart.c ****     }
2229:Drivers/STM32F4xx_HAL_Driver/Src/stm32f4xx_hal_uart.c ****     else
2230:Drivers/STM32F4xx_HAL_Driver/Src/stm32f4xx_hal_uart.c ****     {
2231:Drivers/STM32F4xx_HAL_Driver/Src/stm32f4xx_hal_uart.c ****       /* Reset Tx transfer counter */
2232:Drivers/STM32F4xx_HAL_Driver/Src/stm32f4xx_hal_uart.c ****       huart->TxXferCount = 0x00U;
2233:Drivers/STM32F4xx_HAL_Driver/Src/stm32f4xx_hal_uart.c **** 
2234:Drivers/STM32F4xx_HAL_Driver/Src/stm32f4xx_hal_uart.c ****       /* Restore huart->gState to Ready */
2235:Drivers/STM32F4xx_HAL_Driver/Src/stm32f4xx_hal_uart.c ****       huart->gState = HAL_UART_STATE_READY;
2236:Drivers/STM32F4xx_HAL_Driver/Src/stm32f4xx_hal_uart.c **** 
2237:Drivers/STM32F4xx_HAL_Driver/Src/stm32f4xx_hal_uart.c ****       /* As no DMA to be aborted, call directly user Abort complete callback */
ARM GAS  C:\Users\Konrad\AppData\Local\Temp\ccBcBO6H.s 			page 42


2238:Drivers/STM32F4xx_HAL_Driver/Src/stm32f4xx_hal_uart.c **** #if (USE_HAL_UART_REGISTER_CALLBACKS == 1)
2239:Drivers/STM32F4xx_HAL_Driver/Src/stm32f4xx_hal_uart.c ****       /* Call registered Abort Transmit Complete Callback */
2240:Drivers/STM32F4xx_HAL_Driver/Src/stm32f4xx_hal_uart.c ****       huart->AbortTransmitCpltCallback(huart);
2241:Drivers/STM32F4xx_HAL_Driver/Src/stm32f4xx_hal_uart.c **** #else
2242:Drivers/STM32F4xx_HAL_Driver/Src/stm32f4xx_hal_uart.c ****       /* Call legacy weak Abort Transmit Complete Callback */
2243:Drivers/STM32F4xx_HAL_Driver/Src/stm32f4xx_hal_uart.c ****       HAL_UART_AbortTransmitCpltCallback(huart);
2244:Drivers/STM32F4xx_HAL_Driver/Src/stm32f4xx_hal_uart.c **** #endif /* USE_HAL_UART_REGISTER_CALLBACKS */
2245:Drivers/STM32F4xx_HAL_Driver/Src/stm32f4xx_hal_uart.c ****     }
2246:Drivers/STM32F4xx_HAL_Driver/Src/stm32f4xx_hal_uart.c ****   }
2247:Drivers/STM32F4xx_HAL_Driver/Src/stm32f4xx_hal_uart.c ****   else
2248:Drivers/STM32F4xx_HAL_Driver/Src/stm32f4xx_hal_uart.c ****   {
2249:Drivers/STM32F4xx_HAL_Driver/Src/stm32f4xx_hal_uart.c ****     /* Reset Tx transfer counter */
2250:Drivers/STM32F4xx_HAL_Driver/Src/stm32f4xx_hal_uart.c ****     huart->TxXferCount = 0x00U;
2251:Drivers/STM32F4xx_HAL_Driver/Src/stm32f4xx_hal_uart.c **** 
2252:Drivers/STM32F4xx_HAL_Driver/Src/stm32f4xx_hal_uart.c ****     /* Restore huart->gState to Ready */
2253:Drivers/STM32F4xx_HAL_Driver/Src/stm32f4xx_hal_uart.c ****     huart->gState = HAL_UART_STATE_READY;
2254:Drivers/STM32F4xx_HAL_Driver/Src/stm32f4xx_hal_uart.c **** 
2255:Drivers/STM32F4xx_HAL_Driver/Src/stm32f4xx_hal_uart.c ****     /* As no DMA to be aborted, call directly user Abort complete callback */
2256:Drivers/STM32F4xx_HAL_Driver/Src/stm32f4xx_hal_uart.c **** #if (USE_HAL_UART_REGISTER_CALLBACKS == 1)
2257:Drivers/STM32F4xx_HAL_Driver/Src/stm32f4xx_hal_uart.c ****     /* Call registered Abort Transmit Complete Callback */
2258:Drivers/STM32F4xx_HAL_Driver/Src/stm32f4xx_hal_uart.c ****     huart->AbortTransmitCpltCallback(huart);
2259:Drivers/STM32F4xx_HAL_Driver/Src/stm32f4xx_hal_uart.c **** #else
2260:Drivers/STM32F4xx_HAL_Driver/Src/stm32f4xx_hal_uart.c ****     /* Call legacy weak Abort Transmit Complete Callback */
2261:Drivers/STM32F4xx_HAL_Driver/Src/stm32f4xx_hal_uart.c ****     HAL_UART_AbortTransmitCpltCallback(huart);
2262:Drivers/STM32F4xx_HAL_Driver/Src/stm32f4xx_hal_uart.c **** #endif /* USE_HAL_UART_REGISTER_CALLBACKS */
2263:Drivers/STM32F4xx_HAL_Driver/Src/stm32f4xx_hal_uart.c ****   }
2264:Drivers/STM32F4xx_HAL_Driver/Src/stm32f4xx_hal_uart.c **** 
2265:Drivers/STM32F4xx_HAL_Driver/Src/stm32f4xx_hal_uart.c ****   return HAL_OK;
2266:Drivers/STM32F4xx_HAL_Driver/Src/stm32f4xx_hal_uart.c **** }
2267:Drivers/STM32F4xx_HAL_Driver/Src/stm32f4xx_hal_uart.c **** 
2268:Drivers/STM32F4xx_HAL_Driver/Src/stm32f4xx_hal_uart.c **** /**
2269:Drivers/STM32F4xx_HAL_Driver/Src/stm32f4xx_hal_uart.c ****   * @brief  Abort ongoing Receive transfer (Interrupt mode).
2270:Drivers/STM32F4xx_HAL_Driver/Src/stm32f4xx_hal_uart.c ****   * @param  huart UART handle.
2271:Drivers/STM32F4xx_HAL_Driver/Src/stm32f4xx_hal_uart.c ****   * @note   This procedure could be used for aborting any ongoing Rx transfer started in Interrupt 
2272:Drivers/STM32F4xx_HAL_Driver/Src/stm32f4xx_hal_uart.c ****   *         This procedure performs following operations :
2273:Drivers/STM32F4xx_HAL_Driver/Src/stm32f4xx_hal_uart.c ****   *           - Disable UART Interrupts (Rx)
2274:Drivers/STM32F4xx_HAL_Driver/Src/stm32f4xx_hal_uart.c ****   *           - Disable the DMA transfer in the peripheral register (if enabled)
2275:Drivers/STM32F4xx_HAL_Driver/Src/stm32f4xx_hal_uart.c ****   *           - Abort DMA transfer by calling HAL_DMA_Abort_IT (in case of transfer in DMA mode)
2276:Drivers/STM32F4xx_HAL_Driver/Src/stm32f4xx_hal_uart.c ****   *           - Set handle State to READY
2277:Drivers/STM32F4xx_HAL_Driver/Src/stm32f4xx_hal_uart.c ****   *           - At abort completion, call user abort complete callback
2278:Drivers/STM32F4xx_HAL_Driver/Src/stm32f4xx_hal_uart.c ****   * @note   This procedure is executed in Interrupt mode, meaning that abort procedure could be
2279:Drivers/STM32F4xx_HAL_Driver/Src/stm32f4xx_hal_uart.c ****   *         considered as completed only when user abort complete callback is executed (not when ex
2280:Drivers/STM32F4xx_HAL_Driver/Src/stm32f4xx_hal_uart.c ****   * @retval HAL status
2281:Drivers/STM32F4xx_HAL_Driver/Src/stm32f4xx_hal_uart.c ****   */
2282:Drivers/STM32F4xx_HAL_Driver/Src/stm32f4xx_hal_uart.c **** HAL_StatusTypeDef HAL_UART_AbortReceive_IT(UART_HandleTypeDef *huart)
2283:Drivers/STM32F4xx_HAL_Driver/Src/stm32f4xx_hal_uart.c **** {
2284:Drivers/STM32F4xx_HAL_Driver/Src/stm32f4xx_hal_uart.c ****   /* Disable RXNE, PE and ERR (Frame error, noise error, overrun error) interrupts */
2285:Drivers/STM32F4xx_HAL_Driver/Src/stm32f4xx_hal_uart.c ****   ATOMIC_CLEAR_BIT(huart->Instance->CR1, (USART_CR1_RXNEIE | USART_CR1_PEIE));
2286:Drivers/STM32F4xx_HAL_Driver/Src/stm32f4xx_hal_uart.c ****   ATOMIC_CLEAR_BIT(huart->Instance->CR3, USART_CR3_EIE);
2287:Drivers/STM32F4xx_HAL_Driver/Src/stm32f4xx_hal_uart.c **** 
2288:Drivers/STM32F4xx_HAL_Driver/Src/stm32f4xx_hal_uart.c ****   /* If Reception till IDLE event was ongoing, disable IDLEIE interrupt */
2289:Drivers/STM32F4xx_HAL_Driver/Src/stm32f4xx_hal_uart.c ****   if (huart->ReceptionType == HAL_UART_RECEPTION_TOIDLE)
2290:Drivers/STM32F4xx_HAL_Driver/Src/stm32f4xx_hal_uart.c ****   {
2291:Drivers/STM32F4xx_HAL_Driver/Src/stm32f4xx_hal_uart.c ****     ATOMIC_CLEAR_BIT(huart->Instance->CR1, (USART_CR1_IDLEIE));
2292:Drivers/STM32F4xx_HAL_Driver/Src/stm32f4xx_hal_uart.c ****   }
2293:Drivers/STM32F4xx_HAL_Driver/Src/stm32f4xx_hal_uart.c **** 
2294:Drivers/STM32F4xx_HAL_Driver/Src/stm32f4xx_hal_uart.c ****   /* Disable the UART DMA Rx request if enabled */
ARM GAS  C:\Users\Konrad\AppData\Local\Temp\ccBcBO6H.s 			page 43


2295:Drivers/STM32F4xx_HAL_Driver/Src/stm32f4xx_hal_uart.c ****   if (HAL_IS_BIT_SET(huart->Instance->CR3, USART_CR3_DMAR))
2296:Drivers/STM32F4xx_HAL_Driver/Src/stm32f4xx_hal_uart.c ****   {
2297:Drivers/STM32F4xx_HAL_Driver/Src/stm32f4xx_hal_uart.c ****     ATOMIC_CLEAR_BIT(huart->Instance->CR3, USART_CR3_DMAR);
2298:Drivers/STM32F4xx_HAL_Driver/Src/stm32f4xx_hal_uart.c **** 
2299:Drivers/STM32F4xx_HAL_Driver/Src/stm32f4xx_hal_uart.c ****     /* Abort the UART DMA Rx stream : use blocking DMA Abort API (no callback) */
2300:Drivers/STM32F4xx_HAL_Driver/Src/stm32f4xx_hal_uart.c ****     if (huart->hdmarx != NULL)
2301:Drivers/STM32F4xx_HAL_Driver/Src/stm32f4xx_hal_uart.c ****     {
2302:Drivers/STM32F4xx_HAL_Driver/Src/stm32f4xx_hal_uart.c ****       /* Set the UART DMA Abort callback :
2303:Drivers/STM32F4xx_HAL_Driver/Src/stm32f4xx_hal_uart.c ****          will lead to call HAL_UART_AbortCpltCallback() at end of DMA abort procedure */
2304:Drivers/STM32F4xx_HAL_Driver/Src/stm32f4xx_hal_uart.c ****       huart->hdmarx->XferAbortCallback = UART_DMARxOnlyAbortCallback;
2305:Drivers/STM32F4xx_HAL_Driver/Src/stm32f4xx_hal_uart.c **** 
2306:Drivers/STM32F4xx_HAL_Driver/Src/stm32f4xx_hal_uart.c ****       /* Abort DMA RX */
2307:Drivers/STM32F4xx_HAL_Driver/Src/stm32f4xx_hal_uart.c ****       if (HAL_DMA_Abort_IT(huart->hdmarx) != HAL_OK)
2308:Drivers/STM32F4xx_HAL_Driver/Src/stm32f4xx_hal_uart.c ****       {
2309:Drivers/STM32F4xx_HAL_Driver/Src/stm32f4xx_hal_uart.c ****         /* Call Directly huart->hdmarx->XferAbortCallback function in case of error */
2310:Drivers/STM32F4xx_HAL_Driver/Src/stm32f4xx_hal_uart.c ****         huart->hdmarx->XferAbortCallback(huart->hdmarx);
2311:Drivers/STM32F4xx_HAL_Driver/Src/stm32f4xx_hal_uart.c ****       }
2312:Drivers/STM32F4xx_HAL_Driver/Src/stm32f4xx_hal_uart.c ****     }
2313:Drivers/STM32F4xx_HAL_Driver/Src/stm32f4xx_hal_uart.c ****     else
2314:Drivers/STM32F4xx_HAL_Driver/Src/stm32f4xx_hal_uart.c ****     {
2315:Drivers/STM32F4xx_HAL_Driver/Src/stm32f4xx_hal_uart.c ****       /* Reset Rx transfer counter */
2316:Drivers/STM32F4xx_HAL_Driver/Src/stm32f4xx_hal_uart.c ****       huart->RxXferCount = 0x00U;
2317:Drivers/STM32F4xx_HAL_Driver/Src/stm32f4xx_hal_uart.c **** 
2318:Drivers/STM32F4xx_HAL_Driver/Src/stm32f4xx_hal_uart.c ****       /* Restore huart->RxState to Ready */
2319:Drivers/STM32F4xx_HAL_Driver/Src/stm32f4xx_hal_uart.c ****       huart->RxState = HAL_UART_STATE_READY;
2320:Drivers/STM32F4xx_HAL_Driver/Src/stm32f4xx_hal_uart.c ****       huart->ReceptionType = HAL_UART_RECEPTION_STANDARD;
2321:Drivers/STM32F4xx_HAL_Driver/Src/stm32f4xx_hal_uart.c **** 
2322:Drivers/STM32F4xx_HAL_Driver/Src/stm32f4xx_hal_uart.c ****       /* As no DMA to be aborted, call directly user Abort complete callback */
2323:Drivers/STM32F4xx_HAL_Driver/Src/stm32f4xx_hal_uart.c **** #if (USE_HAL_UART_REGISTER_CALLBACKS == 1)
2324:Drivers/STM32F4xx_HAL_Driver/Src/stm32f4xx_hal_uart.c ****       /* Call registered Abort Receive Complete Callback */
2325:Drivers/STM32F4xx_HAL_Driver/Src/stm32f4xx_hal_uart.c ****       huart->AbortReceiveCpltCallback(huart);
2326:Drivers/STM32F4xx_HAL_Driver/Src/stm32f4xx_hal_uart.c **** #else
2327:Drivers/STM32F4xx_HAL_Driver/Src/stm32f4xx_hal_uart.c ****       /* Call legacy weak Abort Receive Complete Callback */
2328:Drivers/STM32F4xx_HAL_Driver/Src/stm32f4xx_hal_uart.c ****       HAL_UART_AbortReceiveCpltCallback(huart);
2329:Drivers/STM32F4xx_HAL_Driver/Src/stm32f4xx_hal_uart.c **** #endif /* USE_HAL_UART_REGISTER_CALLBACKS */
2330:Drivers/STM32F4xx_HAL_Driver/Src/stm32f4xx_hal_uart.c ****     }
2331:Drivers/STM32F4xx_HAL_Driver/Src/stm32f4xx_hal_uart.c ****   }
2332:Drivers/STM32F4xx_HAL_Driver/Src/stm32f4xx_hal_uart.c ****   else
2333:Drivers/STM32F4xx_HAL_Driver/Src/stm32f4xx_hal_uart.c ****   {
2334:Drivers/STM32F4xx_HAL_Driver/Src/stm32f4xx_hal_uart.c ****     /* Reset Rx transfer counter */
2335:Drivers/STM32F4xx_HAL_Driver/Src/stm32f4xx_hal_uart.c ****     huart->RxXferCount = 0x00U;
2336:Drivers/STM32F4xx_HAL_Driver/Src/stm32f4xx_hal_uart.c **** 
2337:Drivers/STM32F4xx_HAL_Driver/Src/stm32f4xx_hal_uart.c ****     /* Restore huart->RxState to Ready */
2338:Drivers/STM32F4xx_HAL_Driver/Src/stm32f4xx_hal_uart.c ****     huart->RxState = HAL_UART_STATE_READY;
2339:Drivers/STM32F4xx_HAL_Driver/Src/stm32f4xx_hal_uart.c ****     huart->ReceptionType = HAL_UART_RECEPTION_STANDARD;
2340:Drivers/STM32F4xx_HAL_Driver/Src/stm32f4xx_hal_uart.c **** 
2341:Drivers/STM32F4xx_HAL_Driver/Src/stm32f4xx_hal_uart.c ****     /* As no DMA to be aborted, call directly user Abort complete callback */
2342:Drivers/STM32F4xx_HAL_Driver/Src/stm32f4xx_hal_uart.c **** #if (USE_HAL_UART_REGISTER_CALLBACKS == 1)
2343:Drivers/STM32F4xx_HAL_Driver/Src/stm32f4xx_hal_uart.c ****     /* Call registered Abort Receive Complete Callback */
2344:Drivers/STM32F4xx_HAL_Driver/Src/stm32f4xx_hal_uart.c ****     huart->AbortReceiveCpltCallback(huart);
2345:Drivers/STM32F4xx_HAL_Driver/Src/stm32f4xx_hal_uart.c **** #else
2346:Drivers/STM32F4xx_HAL_Driver/Src/stm32f4xx_hal_uart.c ****     /* Call legacy weak Abort Receive Complete Callback */
2347:Drivers/STM32F4xx_HAL_Driver/Src/stm32f4xx_hal_uart.c ****     HAL_UART_AbortReceiveCpltCallback(huart);
2348:Drivers/STM32F4xx_HAL_Driver/Src/stm32f4xx_hal_uart.c **** #endif /* USE_HAL_UART_REGISTER_CALLBACKS */
2349:Drivers/STM32F4xx_HAL_Driver/Src/stm32f4xx_hal_uart.c ****   }
2350:Drivers/STM32F4xx_HAL_Driver/Src/stm32f4xx_hal_uart.c **** 
2351:Drivers/STM32F4xx_HAL_Driver/Src/stm32f4xx_hal_uart.c ****   return HAL_OK;
ARM GAS  C:\Users\Konrad\AppData\Local\Temp\ccBcBO6H.s 			page 44


2352:Drivers/STM32F4xx_HAL_Driver/Src/stm32f4xx_hal_uart.c **** }
2353:Drivers/STM32F4xx_HAL_Driver/Src/stm32f4xx_hal_uart.c **** 
2354:Drivers/STM32F4xx_HAL_Driver/Src/stm32f4xx_hal_uart.c **** /**
2355:Drivers/STM32F4xx_HAL_Driver/Src/stm32f4xx_hal_uart.c ****   * @brief  This function handles UART interrupt request.
2356:Drivers/STM32F4xx_HAL_Driver/Src/stm32f4xx_hal_uart.c ****   * @param  huart  Pointer to a UART_HandleTypeDef structure that contains
2357:Drivers/STM32F4xx_HAL_Driver/Src/stm32f4xx_hal_uart.c ****   *                the configuration information for the specified UART module.
2358:Drivers/STM32F4xx_HAL_Driver/Src/stm32f4xx_hal_uart.c ****   * @retval None
2359:Drivers/STM32F4xx_HAL_Driver/Src/stm32f4xx_hal_uart.c ****   */
2360:Drivers/STM32F4xx_HAL_Driver/Src/stm32f4xx_hal_uart.c **** void HAL_UART_IRQHandler(UART_HandleTypeDef *huart)
2361:Drivers/STM32F4xx_HAL_Driver/Src/stm32f4xx_hal_uart.c **** {
2362:Drivers/STM32F4xx_HAL_Driver/Src/stm32f4xx_hal_uart.c ****   uint32_t isrflags   = READ_REG(huart->Instance->SR);
2363:Drivers/STM32F4xx_HAL_Driver/Src/stm32f4xx_hal_uart.c ****   uint32_t cr1its     = READ_REG(huart->Instance->CR1);
2364:Drivers/STM32F4xx_HAL_Driver/Src/stm32f4xx_hal_uart.c ****   uint32_t cr3its     = READ_REG(huart->Instance->CR3);
2365:Drivers/STM32F4xx_HAL_Driver/Src/stm32f4xx_hal_uart.c ****   uint32_t errorflags = 0x00U;
2366:Drivers/STM32F4xx_HAL_Driver/Src/stm32f4xx_hal_uart.c ****   uint32_t dmarequest = 0x00U;
2367:Drivers/STM32F4xx_HAL_Driver/Src/stm32f4xx_hal_uart.c **** 
2368:Drivers/STM32F4xx_HAL_Driver/Src/stm32f4xx_hal_uart.c ****   /* If no error occurs */
2369:Drivers/STM32F4xx_HAL_Driver/Src/stm32f4xx_hal_uart.c ****   errorflags = (isrflags & (uint32_t)(USART_SR_PE | USART_SR_FE | USART_SR_ORE | USART_SR_NE));
2370:Drivers/STM32F4xx_HAL_Driver/Src/stm32f4xx_hal_uart.c ****   if (errorflags == RESET)
2371:Drivers/STM32F4xx_HAL_Driver/Src/stm32f4xx_hal_uart.c ****   {
2372:Drivers/STM32F4xx_HAL_Driver/Src/stm32f4xx_hal_uart.c ****     /* UART in mode Receiver -------------------------------------------------*/
2373:Drivers/STM32F4xx_HAL_Driver/Src/stm32f4xx_hal_uart.c ****     if (((isrflags & USART_SR_RXNE) != RESET) && ((cr1its & USART_CR1_RXNEIE) != RESET))
2374:Drivers/STM32F4xx_HAL_Driver/Src/stm32f4xx_hal_uart.c ****     {
2375:Drivers/STM32F4xx_HAL_Driver/Src/stm32f4xx_hal_uart.c ****       UART_Receive_IT(huart);
2376:Drivers/STM32F4xx_HAL_Driver/Src/stm32f4xx_hal_uart.c ****       return;
2377:Drivers/STM32F4xx_HAL_Driver/Src/stm32f4xx_hal_uart.c ****     }
2378:Drivers/STM32F4xx_HAL_Driver/Src/stm32f4xx_hal_uart.c ****   }
2379:Drivers/STM32F4xx_HAL_Driver/Src/stm32f4xx_hal_uart.c **** 
2380:Drivers/STM32F4xx_HAL_Driver/Src/stm32f4xx_hal_uart.c ****   /* If some errors occur */
2381:Drivers/STM32F4xx_HAL_Driver/Src/stm32f4xx_hal_uart.c ****   if ((errorflags != RESET) && (((cr3its & USART_CR3_EIE) != RESET)
2382:Drivers/STM32F4xx_HAL_Driver/Src/stm32f4xx_hal_uart.c ****                                 || ((cr1its & (USART_CR1_RXNEIE | USART_CR1_PEIE)) != RESET)))
2383:Drivers/STM32F4xx_HAL_Driver/Src/stm32f4xx_hal_uart.c ****   {
2384:Drivers/STM32F4xx_HAL_Driver/Src/stm32f4xx_hal_uart.c ****     /* UART parity error interrupt occurred ----------------------------------*/
2385:Drivers/STM32F4xx_HAL_Driver/Src/stm32f4xx_hal_uart.c ****     if (((isrflags & USART_SR_PE) != RESET) && ((cr1its & USART_CR1_PEIE) != RESET))
2386:Drivers/STM32F4xx_HAL_Driver/Src/stm32f4xx_hal_uart.c ****     {
2387:Drivers/STM32F4xx_HAL_Driver/Src/stm32f4xx_hal_uart.c ****       huart->ErrorCode |= HAL_UART_ERROR_PE;
2388:Drivers/STM32F4xx_HAL_Driver/Src/stm32f4xx_hal_uart.c ****     }
2389:Drivers/STM32F4xx_HAL_Driver/Src/stm32f4xx_hal_uart.c **** 
2390:Drivers/STM32F4xx_HAL_Driver/Src/stm32f4xx_hal_uart.c ****     /* UART noise error interrupt occurred -----------------------------------*/
2391:Drivers/STM32F4xx_HAL_Driver/Src/stm32f4xx_hal_uart.c ****     if (((isrflags & USART_SR_NE) != RESET) && ((cr3its & USART_CR3_EIE) != RESET))
2392:Drivers/STM32F4xx_HAL_Driver/Src/stm32f4xx_hal_uart.c ****     {
2393:Drivers/STM32F4xx_HAL_Driver/Src/stm32f4xx_hal_uart.c ****       huart->ErrorCode |= HAL_UART_ERROR_NE;
2394:Drivers/STM32F4xx_HAL_Driver/Src/stm32f4xx_hal_uart.c ****     }
2395:Drivers/STM32F4xx_HAL_Driver/Src/stm32f4xx_hal_uart.c **** 
2396:Drivers/STM32F4xx_HAL_Driver/Src/stm32f4xx_hal_uart.c ****     /* UART frame error interrupt occurred -----------------------------------*/
2397:Drivers/STM32F4xx_HAL_Driver/Src/stm32f4xx_hal_uart.c ****     if (((isrflags & USART_SR_FE) != RESET) && ((cr3its & USART_CR3_EIE) != RESET))
2398:Drivers/STM32F4xx_HAL_Driver/Src/stm32f4xx_hal_uart.c ****     {
2399:Drivers/STM32F4xx_HAL_Driver/Src/stm32f4xx_hal_uart.c ****       huart->ErrorCode |= HAL_UART_ERROR_FE;
2400:Drivers/STM32F4xx_HAL_Driver/Src/stm32f4xx_hal_uart.c ****     }
2401:Drivers/STM32F4xx_HAL_Driver/Src/stm32f4xx_hal_uart.c **** 
2402:Drivers/STM32F4xx_HAL_Driver/Src/stm32f4xx_hal_uart.c ****     /* UART Over-Run interrupt occurred --------------------------------------*/
2403:Drivers/STM32F4xx_HAL_Driver/Src/stm32f4xx_hal_uart.c ****     if (((isrflags & USART_SR_ORE) != RESET) && (((cr1its & USART_CR1_RXNEIE) != RESET)
2404:Drivers/STM32F4xx_HAL_Driver/Src/stm32f4xx_hal_uart.c ****                                                  || ((cr3its & USART_CR3_EIE) != RESET)))
2405:Drivers/STM32F4xx_HAL_Driver/Src/stm32f4xx_hal_uart.c ****     {
2406:Drivers/STM32F4xx_HAL_Driver/Src/stm32f4xx_hal_uart.c ****       huart->ErrorCode |= HAL_UART_ERROR_ORE;
2407:Drivers/STM32F4xx_HAL_Driver/Src/stm32f4xx_hal_uart.c ****     }
2408:Drivers/STM32F4xx_HAL_Driver/Src/stm32f4xx_hal_uart.c **** 
ARM GAS  C:\Users\Konrad\AppData\Local\Temp\ccBcBO6H.s 			page 45


2409:Drivers/STM32F4xx_HAL_Driver/Src/stm32f4xx_hal_uart.c ****     /* Call UART Error Call back function if need be --------------------------*/
2410:Drivers/STM32F4xx_HAL_Driver/Src/stm32f4xx_hal_uart.c ****     if (huart->ErrorCode != HAL_UART_ERROR_NONE)
2411:Drivers/STM32F4xx_HAL_Driver/Src/stm32f4xx_hal_uart.c ****     {
2412:Drivers/STM32F4xx_HAL_Driver/Src/stm32f4xx_hal_uart.c ****       /* UART in mode Receiver -----------------------------------------------*/
2413:Drivers/STM32F4xx_HAL_Driver/Src/stm32f4xx_hal_uart.c ****       if (((isrflags & USART_SR_RXNE) != RESET) && ((cr1its & USART_CR1_RXNEIE) != RESET))
2414:Drivers/STM32F4xx_HAL_Driver/Src/stm32f4xx_hal_uart.c ****       {
2415:Drivers/STM32F4xx_HAL_Driver/Src/stm32f4xx_hal_uart.c ****         UART_Receive_IT(huart);
2416:Drivers/STM32F4xx_HAL_Driver/Src/stm32f4xx_hal_uart.c ****       }
2417:Drivers/STM32F4xx_HAL_Driver/Src/stm32f4xx_hal_uart.c **** 
2418:Drivers/STM32F4xx_HAL_Driver/Src/stm32f4xx_hal_uart.c ****       /* If Overrun error occurs, or if any error occurs in DMA mode reception,
2419:Drivers/STM32F4xx_HAL_Driver/Src/stm32f4xx_hal_uart.c ****          consider error as blocking */
2420:Drivers/STM32F4xx_HAL_Driver/Src/stm32f4xx_hal_uart.c ****       dmarequest = HAL_IS_BIT_SET(huart->Instance->CR3, USART_CR3_DMAR);
2421:Drivers/STM32F4xx_HAL_Driver/Src/stm32f4xx_hal_uart.c ****       if (((huart->ErrorCode & HAL_UART_ERROR_ORE) != RESET) || dmarequest)
2422:Drivers/STM32F4xx_HAL_Driver/Src/stm32f4xx_hal_uart.c ****       {
2423:Drivers/STM32F4xx_HAL_Driver/Src/stm32f4xx_hal_uart.c ****         /* Blocking error : transfer is aborted
2424:Drivers/STM32F4xx_HAL_Driver/Src/stm32f4xx_hal_uart.c ****            Set the UART state ready to be able to start again the process,
2425:Drivers/STM32F4xx_HAL_Driver/Src/stm32f4xx_hal_uart.c ****            Disable Rx Interrupts, and disable Rx DMA request, if ongoing */
2426:Drivers/STM32F4xx_HAL_Driver/Src/stm32f4xx_hal_uart.c ****         UART_EndRxTransfer(huart);
2427:Drivers/STM32F4xx_HAL_Driver/Src/stm32f4xx_hal_uart.c **** 
2428:Drivers/STM32F4xx_HAL_Driver/Src/stm32f4xx_hal_uart.c ****         /* Disable the UART DMA Rx request if enabled */
2429:Drivers/STM32F4xx_HAL_Driver/Src/stm32f4xx_hal_uart.c ****         if (HAL_IS_BIT_SET(huart->Instance->CR3, USART_CR3_DMAR))
