ARM GAS  C:\Users\Konrad\AppData\Local\Temp\ccy9mN5U.s 			page 1


   1              		.cpu cortex-m4
   2              		.arch armv7e-m
   3              		.fpu fpv4-sp-d16
   4              		.eabi_attribute 27, 1
   5              		.eabi_attribute 28, 1
   6              		.eabi_attribute 23, 1
   7              		.eabi_attribute 24, 1
   8              		.eabi_attribute 25, 1
   9              		.eabi_attribute 26, 1
  10              		.eabi_attribute 30, 2
  11              		.eabi_attribute 34, 1
  12              		.eabi_attribute 18, 4
  13              		.file	"usart.c"
  14              		.text
  15              	.Ltext0:
  16              		.cfi_sections	.debug_frame
  17              		.file 1 "Core/Src/usart.c"
  18              		.section	.text.MX_USART1_UART_Init,"ax",%progbits
  19              		.align	1
  20              		.p2align 2,,3
  21              		.global	MX_USART1_UART_Init
  22              		.syntax unified
  23              		.thumb
  24              		.thumb_func
  26              	MX_USART1_UART_Init:
  27              	.LFB216:
   1:Core/Src/usart.c **** /* USER CODE BEGIN Header */
   2:Core/Src/usart.c **** /**
   3:Core/Src/usart.c ****   ******************************************************************************
   4:Core/Src/usart.c ****   * @file    usart.c
   5:Core/Src/usart.c ****   * @brief   This file provides code for the configuration
   6:Core/Src/usart.c ****   *          of the USART instances.
   7:Core/Src/usart.c ****   ******************************************************************************
   8:Core/Src/usart.c ****   * @attention
   9:Core/Src/usart.c ****   *
  10:Core/Src/usart.c ****   * Copyright (c) 2023 STMicroelectronics.
  11:Core/Src/usart.c ****   * All rights reserved.
  12:Core/Src/usart.c ****   *
  13:Core/Src/usart.c ****   * This software is licensed under terms that can be found in the LICENSE file
  14:Core/Src/usart.c ****   * in the root directory of this software component.
  15:Core/Src/usart.c ****   * If no LICENSE file comes with this software, it is provided AS-IS.
  16:Core/Src/usart.c ****   *
  17:Core/Src/usart.c ****   ******************************************************************************
  18:Core/Src/usart.c ****   */
  19:Core/Src/usart.c **** /* USER CODE END Header */
  20:Core/Src/usart.c **** /* Includes ------------------------------------------------------------------*/
  21:Core/Src/usart.c **** #include "usart.h"
  22:Core/Src/usart.c **** 
  23:Core/Src/usart.c **** /* USER CODE BEGIN 0 */
  24:Core/Src/usart.c **** 
  25:Core/Src/usart.c **** /* USER CODE END 0 */
  26:Core/Src/usart.c **** 
  27:Core/Src/usart.c **** UART_HandleTypeDef huart1;
  28:Core/Src/usart.c **** 
  29:Core/Src/usart.c **** /* USART1 init function */
  30:Core/Src/usart.c **** 
  31:Core/Src/usart.c **** void MX_USART1_UART_Init(void)
ARM GAS  C:\Users\Konrad\AppData\Local\Temp\ccy9mN5U.s 			page 2


  32:Core/Src/usart.c **** {
  28              		.loc 1 32 1 view -0
  29              		.cfi_startproc
  30              		@ args = 0, pretend = 0, frame = 0
  31              		@ frame_needed = 0, uses_anonymous_args = 0
  33:Core/Src/usart.c **** 
  34:Core/Src/usart.c ****   /* USER CODE BEGIN USART1_Init 0 */
  35:Core/Src/usart.c **** 
  36:Core/Src/usart.c ****   /* USER CODE END USART1_Init 0 */
  37:Core/Src/usart.c **** 
  38:Core/Src/usart.c ****   /* USER CODE BEGIN USART1_Init 1 */
  39:Core/Src/usart.c **** 
  40:Core/Src/usart.c ****   /* USER CODE END USART1_Init 1 */
  41:Core/Src/usart.c ****   huart1.Instance = USART1;
  32              		.loc 1 41 3 view .LVU1
  32:Core/Src/usart.c **** 
  33              		.loc 1 32 1 is_stmt 0 view .LVU2
  34 0000 10B5     		push	{r4, lr}
  35              		.cfi_def_cfa_offset 8
  36              		.cfi_offset 4, -8
  37              		.cfi_offset 14, -4
  38              		.loc 1 41 19 view .LVU3
  39 0002 0B48     		ldr	r0, .L6
  40 0004 0B4C     		ldr	r4, .L6+4
  42:Core/Src/usart.c ****   huart1.Init.BaudRate = 9600;
  43:Core/Src/usart.c ****   huart1.Init.WordLength = UART_WORDLENGTH_8B;
  41              		.loc 1 43 26 view .LVU4
  42 0006 0023     		movs	r3, #0
  42:Core/Src/usart.c ****   huart1.Init.BaudRate = 9600;
  43              		.loc 1 42 24 view .LVU5
  44 0008 4FF41651 		mov	r1, #9600
  44:Core/Src/usart.c ****   huart1.Init.StopBits = UART_STOPBITS_1;
  45:Core/Src/usart.c ****   huart1.Init.Parity = UART_PARITY_NONE;
  46:Core/Src/usart.c ****   huart1.Init.Mode = UART_MODE_TX_RX;
  45              		.loc 1 46 20 view .LVU6
  46 000c 0C22     		movs	r2, #12
  42:Core/Src/usart.c ****   huart1.Init.BaudRate = 9600;
  47              		.loc 1 42 24 view .LVU7
  48 000e C0E90041 		strd	r4, r1, [r0]
  43:Core/Src/usart.c ****   huart1.Init.StopBits = UART_STOPBITS_1;
  49              		.loc 1 43 3 is_stmt 1 view .LVU8
  44:Core/Src/usart.c ****   huart1.Init.StopBits = UART_STOPBITS_1;
  50              		.loc 1 44 24 is_stmt 0 view .LVU9
  51 0012 C0E90233 		strd	r3, r3, [r0, #8]
  45:Core/Src/usart.c ****   huart1.Init.Mode = UART_MODE_TX_RX;
  52              		.loc 1 45 3 is_stmt 1 view .LVU10
  53              		.loc 1 46 20 is_stmt 0 view .LVU11
  54 0016 C0E90432 		strd	r3, r2, [r0, #16]
  47:Core/Src/usart.c ****   huart1.Init.HwFlowCtl = UART_HWCONTROL_NONE;
  48:Core/Src/usart.c ****   huart1.Init.OverSampling = UART_OVERSAMPLING_16;
  55              		.loc 1 48 28 view .LVU12
  56 001a C0E90633 		strd	r3, r3, [r0, #24]
  49:Core/Src/usart.c ****   if (HAL_UART_Init(&huart1) != HAL_OK)
  57              		.loc 1 49 3 is_stmt 1 view .LVU13
  58              		.loc 1 49 7 is_stmt 0 view .LVU14
  59 001e FFF7FEFF 		bl	HAL_UART_Init
  60              	.LVL0:
ARM GAS  C:\Users\Konrad\AppData\Local\Temp\ccy9mN5U.s 			page 3


  61              		.loc 1 49 6 discriminator 1 view .LVU15
  62 0022 00B9     		cbnz	r0, .L5
  50:Core/Src/usart.c ****   {
  51:Core/Src/usart.c ****     Error_Handler();
  52:Core/Src/usart.c ****   }
  53:Core/Src/usart.c ****   /* USER CODE BEGIN USART1_Init 2 */
  54:Core/Src/usart.c **** 
  55:Core/Src/usart.c ****   /* USER CODE END USART1_Init 2 */
  56:Core/Src/usart.c **** 
  57:Core/Src/usart.c **** }
  63              		.loc 1 57 1 view .LVU16
  64 0024 10BD     		pop	{r4, pc}
  65              	.L5:
  51:Core/Src/usart.c ****   }
  66              		.loc 1 51 5 is_stmt 1 view .LVU17
  67              		.loc 1 57 1 is_stmt 0 view .LVU18
  68 0026 BDE81040 		pop	{r4, lr}
  69              		.cfi_restore 14
  70              		.cfi_restore 4
  71              		.cfi_def_cfa_offset 0
  51:Core/Src/usart.c ****   }
  72              		.loc 1 51 5 view .LVU19
  73 002a FFF7FEBF 		b	Error_Handler
  74              	.LVL1:
  75              	.L7:
  76 002e 00BF     		.align	2
  77              	.L6:
  78 0030 00000000 		.word	huart1
  79 0034 00100140 		.word	1073811456
  80              		.cfi_endproc
  81              	.LFE216:
  83              		.section	.text.HAL_UART_MspInit,"ax",%progbits
  84              		.align	1
  85              		.p2align 2,,3
  86              		.global	HAL_UART_MspInit
  87              		.syntax unified
  88              		.thumb
  89              		.thumb_func
  91              	HAL_UART_MspInit:
  92              	.LVL2:
  93              	.LFB217:
  58:Core/Src/usart.c **** 
  59:Core/Src/usart.c **** void HAL_UART_MspInit(UART_HandleTypeDef* uartHandle)
  60:Core/Src/usart.c **** {
  94              		.loc 1 60 1 is_stmt 1 view -0
  95              		.cfi_startproc
  96              		@ args = 0, pretend = 0, frame = 32
  97              		@ frame_needed = 0, uses_anonymous_args = 0
  61:Core/Src/usart.c **** 
  62:Core/Src/usart.c ****   GPIO_InitTypeDef GPIO_InitStruct = {0};
  98              		.loc 1 62 3 view .LVU21
  60:Core/Src/usart.c **** 
  99              		.loc 1 60 1 is_stmt 0 view .LVU22
 100 0000 10B5     		push	{r4, lr}
 101              		.cfi_def_cfa_offset 8
 102              		.cfi_offset 4, -8
 103              		.cfi_offset 14, -4
ARM GAS  C:\Users\Konrad\AppData\Local\Temp\ccy9mN5U.s 			page 4


  63:Core/Src/usart.c ****   if(uartHandle->Instance==USART1)
 104              		.loc 1 63 5 view .LVU23
 105 0002 1B4A     		ldr	r2, .L12+8
 106 0004 0168     		ldr	r1, [r0]
  60:Core/Src/usart.c **** 
 107              		.loc 1 60 1 view .LVU24
 108 0006 88B0     		sub	sp, sp, #32
 109              		.cfi_def_cfa_offset 40
  62:Core/Src/usart.c ****   if(uartHandle->Instance==USART1)
 110              		.loc 1 62 20 view .LVU25
 111 0008 0023     		movs	r3, #0
 112              		.loc 1 63 5 view .LVU26
 113 000a 9142     		cmp	r1, r2
  62:Core/Src/usart.c ****   if(uartHandle->Instance==USART1)
 114              		.loc 1 62 20 view .LVU27
 115 000c CDE90233 		strd	r3, r3, [sp, #8]
 116 0010 CDE90433 		strd	r3, r3, [sp, #16]
 117 0014 0693     		str	r3, [sp, #24]
 118              		.loc 1 63 3 is_stmt 1 view .LVU28
 119              		.loc 1 63 5 is_stmt 0 view .LVU29
 120 0016 01D0     		beq	.L11
  64:Core/Src/usart.c ****   {
  65:Core/Src/usart.c ****   /* USER CODE BEGIN USART1_MspInit 0 */
  66:Core/Src/usart.c **** 
  67:Core/Src/usart.c ****   /* USER CODE END USART1_MspInit 0 */
  68:Core/Src/usart.c ****     /* USART1 clock enable */
  69:Core/Src/usart.c ****     __HAL_RCC_USART1_CLK_ENABLE();
  70:Core/Src/usart.c **** 
  71:Core/Src/usart.c ****     __HAL_RCC_GPIOB_CLK_ENABLE();
  72:Core/Src/usart.c ****     /**USART1 GPIO Configuration
  73:Core/Src/usart.c ****     PB6     ------> USART1_TX
  74:Core/Src/usart.c ****     PB7     ------> USART1_RX
  75:Core/Src/usart.c ****     */
  76:Core/Src/usart.c ****     GPIO_InitStruct.Pin = GPIO_PIN_6|GPIO_PIN_7;
  77:Core/Src/usart.c ****     GPIO_InitStruct.Mode = GPIO_MODE_AF_PP;
  78:Core/Src/usart.c ****     GPIO_InitStruct.Pull = GPIO_NOPULL;
  79:Core/Src/usart.c ****     GPIO_InitStruct.Speed = GPIO_SPEED_FREQ_VERY_HIGH;
  80:Core/Src/usart.c ****     GPIO_InitStruct.Alternate = GPIO_AF7_USART1;
  81:Core/Src/usart.c ****     HAL_GPIO_Init(GPIOB, &GPIO_InitStruct);
  82:Core/Src/usart.c **** 
  83:Core/Src/usart.c ****   /* USER CODE BEGIN USART1_MspInit 1 */
  84:Core/Src/usart.c **** 
  85:Core/Src/usart.c ****   /* USER CODE END USART1_MspInit 1 */
  86:Core/Src/usart.c ****   }
  87:Core/Src/usart.c **** }
 121              		.loc 1 87 1 view .LVU30
 122 0018 08B0     		add	sp, sp, #32
 123              		.cfi_remember_state
 124              		.cfi_def_cfa_offset 8
 125              		@ sp needed
 126 001a 10BD     		pop	{r4, pc}
 127              	.L11:
 128              		.cfi_restore_state
  69:Core/Src/usart.c **** 
 129              		.loc 1 69 5 is_stmt 1 view .LVU31
 130              	.LBB2:
  69:Core/Src/usart.c **** 
ARM GAS  C:\Users\Konrad\AppData\Local\Temp\ccy9mN5U.s 			page 5


 131              		.loc 1 69 5 view .LVU32
 132 001c 02F59432 		add	r2, r2, #75776
 133 0020 0093     		str	r3, [sp]
  69:Core/Src/usart.c **** 
 134              		.loc 1 69 5 view .LVU33
 135 0022 506C     		ldr	r0, [r2, #68]
 136              	.LVL3:
  69:Core/Src/usart.c **** 
 137              		.loc 1 69 5 is_stmt 0 view .LVU34
 138 0024 40F01000 		orr	r0, r0, #16
 139 0028 5064     		str	r0, [r2, #68]
  69:Core/Src/usart.c **** 
 140              		.loc 1 69 5 is_stmt 1 view .LVU35
 141 002a 506C     		ldr	r0, [r2, #68]
 142 002c 00F01000 		and	r0, r0, #16
 143 0030 0090     		str	r0, [sp]
  69:Core/Src/usart.c **** 
 144              		.loc 1 69 5 view .LVU36
 145 0032 0098     		ldr	r0, [sp]
 146              	.LBE2:
  69:Core/Src/usart.c **** 
 147              		.loc 1 69 5 view .LVU37
  71:Core/Src/usart.c ****     /**USART1 GPIO Configuration
 148              		.loc 1 71 5 view .LVU38
 149              	.LBB3:
  71:Core/Src/usart.c ****     /**USART1 GPIO Configuration
 150              		.loc 1 71 5 view .LVU39
 151 0034 0193     		str	r3, [sp, #4]
  71:Core/Src/usart.c ****     /**USART1 GPIO Configuration
 152              		.loc 1 71 5 view .LVU40
 153 0036 136B     		ldr	r3, [r2, #48]
 154              	.LBE3:
  81:Core/Src/usart.c **** 
 155              		.loc 1 81 5 is_stmt 0 view .LVU41
 156 0038 0E48     		ldr	r0, .L12+12
 157              	.LBB4:
  71:Core/Src/usart.c ****     /**USART1 GPIO Configuration
 158              		.loc 1 71 5 view .LVU42
 159 003a 43F00203 		orr	r3, r3, #2
 160 003e 1363     		str	r3, [r2, #48]
  71:Core/Src/usart.c ****     /**USART1 GPIO Configuration
 161              		.loc 1 71 5 is_stmt 1 view .LVU43
 162 0040 136B     		ldr	r3, [r2, #48]
 163              	.LBE4:
  76:Core/Src/usart.c ****     GPIO_InitStruct.Mode = GPIO_MODE_AF_PP;
 164              		.loc 1 76 25 is_stmt 0 view .LVU44
 165 0042 9FED097B 		vldr.64	d7, .L12	@ int
 166              	.LBB5:
  71:Core/Src/usart.c ****     /**USART1 GPIO Configuration
 167              		.loc 1 71 5 view .LVU45
 168 0046 03F00203 		and	r3, r3, #2
 169 004a 0193     		str	r3, [sp, #4]
  71:Core/Src/usart.c ****     /**USART1 GPIO Configuration
 170              		.loc 1 71 5 is_stmt 1 view .LVU46
 171              	.LBE5:
  79:Core/Src/usart.c ****     GPIO_InitStruct.Alternate = GPIO_AF7_USART1;
 172              		.loc 1 79 27 is_stmt 0 view .LVU47
ARM GAS  C:\Users\Konrad\AppData\Local\Temp\ccy9mN5U.s 			page 6


 173 004c 0322     		movs	r2, #3
 174 004e 0723     		movs	r3, #7
  81:Core/Src/usart.c **** 
 175              		.loc 1 81 5 view .LVU48
 176 0050 02A9     		add	r1, sp, #8
  76:Core/Src/usart.c ****     GPIO_InitStruct.Mode = GPIO_MODE_AF_PP;
 177              		.loc 1 76 25 view .LVU49
 178 0052 8DED027B 		vstr.64	d7, [sp, #8]	@ int
  79:Core/Src/usart.c ****     GPIO_InitStruct.Alternate = GPIO_AF7_USART1;
 179              		.loc 1 79 27 view .LVU50
 180 0056 CDE90523 		strd	r2, r3, [sp, #20]
 181              	.LBB6:
  71:Core/Src/usart.c ****     /**USART1 GPIO Configuration
 182              		.loc 1 71 5 view .LVU51
 183 005a 019C     		ldr	r4, [sp, #4]
 184              	.LBE6:
  71:Core/Src/usart.c ****     /**USART1 GPIO Configuration
 185              		.loc 1 71 5 is_stmt 1 view .LVU52
  76:Core/Src/usart.c ****     GPIO_InitStruct.Mode = GPIO_MODE_AF_PP;
 186              		.loc 1 76 5 view .LVU53
  77:Core/Src/usart.c ****     GPIO_InitStruct.Pull = GPIO_NOPULL;
 187              		.loc 1 77 5 view .LVU54
  78:Core/Src/usart.c ****     GPIO_InitStruct.Speed = GPIO_SPEED_FREQ_VERY_HIGH;
 188              		.loc 1 78 5 view .LVU55
  79:Core/Src/usart.c ****     GPIO_InitStruct.Alternate = GPIO_AF7_USART1;
 189              		.loc 1 79 5 view .LVU56
  80:Core/Src/usart.c ****     HAL_GPIO_Init(GPIOB, &GPIO_InitStruct);
 190              		.loc 1 80 5 view .LVU57
  81:Core/Src/usart.c **** 
 191              		.loc 1 81 5 view .LVU58
 192 005c FFF7FEFF 		bl	HAL_GPIO_Init
 193              	.LVL4:
 194              		.loc 1 87 1 is_stmt 0 view .LVU59
 195 0060 08B0     		add	sp, sp, #32
 196              		.cfi_def_cfa_offset 8
 197              		@ sp needed
 198 0062 10BD     		pop	{r4, pc}
 199              	.L13:
 200 0064 AFF30080 		.align	3
 201              	.L12:
 202 0068 C0000000 		.word	192
 203 006c 02000000 		.word	2
 204 0070 00100140 		.word	1073811456
 205 0074 00040240 		.word	1073873920
 206              		.cfi_endproc
 207              	.LFE217:
 209              		.section	.text.HAL_UART_MspDeInit,"ax",%progbits
 210              		.align	1
 211              		.p2align 2,,3
 212              		.global	HAL_UART_MspDeInit
 213              		.syntax unified
 214              		.thumb
 215              		.thumb_func
 217              	HAL_UART_MspDeInit:
 218              	.LVL5:
 219              	.LFB218:
  88:Core/Src/usart.c **** 
ARM GAS  C:\Users\Konrad\AppData\Local\Temp\ccy9mN5U.s 			page 7


  89:Core/Src/usart.c **** void HAL_UART_MspDeInit(UART_HandleTypeDef* uartHandle)
  90:Core/Src/usart.c **** {
 220              		.loc 1 90 1 is_stmt 1 view -0
 221              		.cfi_startproc
 222              		@ args = 0, pretend = 0, frame = 0
 223              		@ frame_needed = 0, uses_anonymous_args = 0
 224              		@ link register save eliminated.
  91:Core/Src/usart.c **** 
  92:Core/Src/usart.c ****   if(uartHandle->Instance==USART1)
 225              		.loc 1 92 3 view .LVU61
 226              		.loc 1 92 5 is_stmt 0 view .LVU62
 227 0000 064B     		ldr	r3, .L17
 228 0002 0268     		ldr	r2, [r0]
 229 0004 9A42     		cmp	r2, r3
 230 0006 00D0     		beq	.L16
  93:Core/Src/usart.c ****   {
  94:Core/Src/usart.c ****   /* USER CODE BEGIN USART1_MspDeInit 0 */
  95:Core/Src/usart.c **** 
  96:Core/Src/usart.c ****   /* USER CODE END USART1_MspDeInit 0 */
  97:Core/Src/usart.c ****     /* Peripheral clock disable */
  98:Core/Src/usart.c ****     __HAL_RCC_USART1_CLK_DISABLE();
  99:Core/Src/usart.c **** 
 100:Core/Src/usart.c ****     /**USART1 GPIO Configuration
 101:Core/Src/usart.c ****     PB6     ------> USART1_TX
 102:Core/Src/usart.c ****     PB7     ------> USART1_RX
 103:Core/Src/usart.c ****     */
 104:Core/Src/usart.c ****     HAL_GPIO_DeInit(GPIOB, GPIO_PIN_6|GPIO_PIN_7);
 105:Core/Src/usart.c **** 
 106:Core/Src/usart.c ****   /* USER CODE BEGIN USART1_MspDeInit 1 */
 107:Core/Src/usart.c **** 
 108:Core/Src/usart.c ****   /* USER CODE END USART1_MspDeInit 1 */
 109:Core/Src/usart.c ****   }
 110:Core/Src/usart.c **** }
 231              		.loc 1 110 1 view .LVU63
 232 0008 7047     		bx	lr
 233              	.L16:
  98:Core/Src/usart.c **** 
 234              		.loc 1 98 5 is_stmt 1 view .LVU64
 235 000a 054A     		ldr	r2, .L17+4
 104:Core/Src/usart.c **** 
 236              		.loc 1 104 5 is_stmt 0 view .LVU65
 237 000c 0548     		ldr	r0, .L17+8
 238              	.LVL6:
  98:Core/Src/usart.c **** 
 239              		.loc 1 98 5 view .LVU66
 240 000e 536C     		ldr	r3, [r2, #68]
 241 0010 23F01003 		bic	r3, r3, #16
 104:Core/Src/usart.c **** 
 242              		.loc 1 104 5 view .LVU67
 243 0014 C021     		movs	r1, #192
  98:Core/Src/usart.c **** 
 244              		.loc 1 98 5 view .LVU68
 245 0016 5364     		str	r3, [r2, #68]
 104:Core/Src/usart.c **** 
 246              		.loc 1 104 5 is_stmt 1 view .LVU69
 247 0018 FFF7FEBF 		b	HAL_GPIO_DeInit
 248              	.LVL7:
ARM GAS  C:\Users\Konrad\AppData\Local\Temp\ccy9mN5U.s 			page 8


 249              	.L18:
 250              		.align	2
 251              	.L17:
 252 001c 00100140 		.word	1073811456
 253 0020 00380240 		.word	1073887232
 254 0024 00040240 		.word	1073873920
 255              		.cfi_endproc
 256              	.LFE218:
 258              		.global	huart1
 259              		.section	.bss.huart1,"aw",%nobits
 260              		.align	3
 263              	huart1:
 264 0000 00000000 		.space	68
 264      00000000 
 264      00000000 
 264      00000000 
 264      00000000 
 265              		.text
 266              	.Letext0:
 267              		.file 2 "C:/Users/Konrad/AppData/Roaming/Code/User/globalStorage/bmd.stm32-for-vscode/@xpack-dev-t
 268              		.file 3 "C:/Users/Konrad/AppData/Roaming/Code/User/globalStorage/bmd.stm32-for-vscode/@xpack-dev-t
 269              		.file 4 "Drivers/CMSIS/Device/ST/STM32F4xx/Include/stm32f411xe.h"
 270              		.file 5 "Drivers/STM32F4xx_HAL_Driver/Inc/stm32f4xx_hal_def.h"
 271              		.file 6 "Drivers/STM32F4xx_HAL_Driver/Inc/stm32f4xx_hal_gpio.h"
 272              		.file 7 "Drivers/STM32F4xx_HAL_Driver/Inc/stm32f4xx_hal_dma.h"
 273              		.file 8 "Drivers/STM32F4xx_HAL_Driver/Inc/stm32f4xx_hal_uart.h"
 274              		.file 9 "Core/Inc/usart.h"
 275              		.file 10 "Core/Inc/main.h"
ARM GAS  C:\Users\Konrad\AppData\Local\Temp\ccy9mN5U.s 			page 9

